
HackathZee_Sera.elf:     file format elf32-littlearm

Sections:
Idx Name          Size      VMA       LMA       File off  Algn
  0 .isr_vector   00000188  08000000  08000000  00001000  2**0
                  CONTENTS, ALLOC, LOAD, READONLY, DATA
  1 .text         00005adc  08000190  08000190  00001190  2**4
                  CONTENTS, ALLOC, LOAD, READONLY, CODE
  2 .rodata       00000488  08005c6c  08005c6c  00006c6c  2**2
                  CONTENTS, ALLOC, LOAD, READONLY, DATA
  3 .ARM.extab    00000000  080060f4  080060f4  0000805c  2**0
                  CONTENTS, READONLY
  4 .ARM          00000008  080060f4  080060f4  000070f4  2**2
                  CONTENTS, ALLOC, LOAD, READONLY, DATA
  5 .preinit_array 00000000  080060fc  080060fc  0000805c  2**0
                  CONTENTS, ALLOC, LOAD, DATA
  6 .init_array   00000004  080060fc  080060fc  000070fc  2**2
                  CONTENTS, ALLOC, LOAD, READONLY, DATA
  7 .fini_array   00000004  08006100  08006100  00007100  2**2
                  CONTENTS, ALLOC, LOAD, READONLY, DATA
  8 .data         0000005c  20000000  08006104  00008000  2**2
                  CONTENTS, ALLOC, LOAD, DATA
  9 .ccmram       00000000  10000000  10000000  0000805c  2**0
                  CONTENTS
 10 .bss          00000500  2000005c  2000005c  0000805c  2**2
                  ALLOC
 11 ._user_heap_stack 00000604  2000055c  2000055c  0000805c  2**0
                  ALLOC
 12 .ARM.attributes 00000030  00000000  00000000  0000805c  2**0
                  CONTENTS, READONLY
 13 .debug_info   00009559  00000000  00000000  0000808c  2**0
                  CONTENTS, READONLY, DEBUGGING, OCTETS
 14 .debug_abbrev 0000173e  00000000  00000000  000115e5  2**0
                  CONTENTS, READONLY, DEBUGGING, OCTETS
 15 .debug_aranges 00000850  00000000  00000000  00012d28  2**3
                  CONTENTS, READONLY, DEBUGGING, OCTETS
 16 .debug_rnglists 0000066d  00000000  00000000  00013578  2**0
                  CONTENTS, READONLY, DEBUGGING, OCTETS
 17 .debug_macro  0002073c  00000000  00000000  00013be5  2**0
                  CONTENTS, READONLY, DEBUGGING, OCTETS
 18 .debug_line   00009b4b  00000000  00000000  00034321  2**0
                  CONTENTS, READONLY, DEBUGGING, OCTETS
 19 .debug_str    000c4799  00000000  00000000  0003de6c  2**0
                  CONTENTS, READONLY, DEBUGGING, OCTETS
 20 .comment      00000043  00000000  00000000  00102605  2**0
                  CONTENTS, READONLY
 21 .debug_frame  00002720  00000000  00000000  00102648  2**2
                  CONTENTS, READONLY, DEBUGGING, OCTETS
 22 .debug_line_str 0000004c  00000000  00000000  00104d68  2**0
                  CONTENTS, READONLY, DEBUGGING, OCTETS

Disassembly of section .text:

08000190 <__do_global_dtors_aux>:
 8000190:	b510      	push	{r4, lr}
 8000192:	4c05      	ldr	r4, [pc, #20]	@ (80001a8 <__do_global_dtors_aux+0x18>)
 8000194:	7823      	ldrb	r3, [r4, #0]
 8000196:	b933      	cbnz	r3, 80001a6 <__do_global_dtors_aux+0x16>
 8000198:	4b04      	ldr	r3, [pc, #16]	@ (80001ac <__do_global_dtors_aux+0x1c>)
 800019a:	b113      	cbz	r3, 80001a2 <__do_global_dtors_aux+0x12>
 800019c:	4804      	ldr	r0, [pc, #16]	@ (80001b0 <__do_global_dtors_aux+0x20>)
 800019e:	f3af 8000 	nop.w
 80001a2:	2301      	movs	r3, #1
 80001a4:	7023      	strb	r3, [r4, #0]
 80001a6:	bd10      	pop	{r4, pc}
 80001a8:	2000005c 	.word	0x2000005c
 80001ac:	00000000 	.word	0x00000000
 80001b0:	08005c54 	.word	0x08005c54

080001b4 <frame_dummy>:
 80001b4:	b508      	push	{r3, lr}
 80001b6:	4b03      	ldr	r3, [pc, #12]	@ (80001c4 <frame_dummy+0x10>)
 80001b8:	b11b      	cbz	r3, 80001c2 <frame_dummy+0xe>
 80001ba:	4903      	ldr	r1, [pc, #12]	@ (80001c8 <frame_dummy+0x14>)
 80001bc:	4803      	ldr	r0, [pc, #12]	@ (80001cc <frame_dummy+0x18>)
 80001be:	f3af 8000 	nop.w
 80001c2:	bd08      	pop	{r3, pc}
 80001c4:	00000000 	.word	0x00000000
 80001c8:	20000060 	.word	0x20000060
 80001cc:	08005c54 	.word	0x08005c54

080001d0 <strlen>:
 80001d0:	4603      	mov	r3, r0
 80001d2:	f813 2b01 	ldrb.w	r2, [r3], #1
 80001d6:	2a00      	cmp	r2, #0
 80001d8:	d1fb      	bne.n	80001d2 <strlen+0x2>
 80001da:	1a18      	subs	r0, r3, r0
 80001dc:	3801      	subs	r0, #1
 80001de:	4770      	bx	lr

080001e0 <memchr>:
 80001e0:	f001 01ff 	and.w	r1, r1, #255	@ 0xff
 80001e4:	2a10      	cmp	r2, #16
 80001e6:	db2b      	blt.n	8000240 <memchr+0x60>
 80001e8:	f010 0f07 	tst.w	r0, #7
 80001ec:	d008      	beq.n	8000200 <memchr+0x20>
 80001ee:	f810 3b01 	ldrb.w	r3, [r0], #1
 80001f2:	3a01      	subs	r2, #1
 80001f4:	428b      	cmp	r3, r1
 80001f6:	d02d      	beq.n	8000254 <memchr+0x74>
 80001f8:	f010 0f07 	tst.w	r0, #7
 80001fc:	b342      	cbz	r2, 8000250 <memchr+0x70>
 80001fe:	d1f6      	bne.n	80001ee <memchr+0xe>
 8000200:	b4f0      	push	{r4, r5, r6, r7}
 8000202:	ea41 2101 	orr.w	r1, r1, r1, lsl #8
 8000206:	ea41 4101 	orr.w	r1, r1, r1, lsl #16
 800020a:	f022 0407 	bic.w	r4, r2, #7
 800020e:	f07f 0700 	mvns.w	r7, #0
 8000212:	2300      	movs	r3, #0
 8000214:	e8f0 5602 	ldrd	r5, r6, [r0], #8
 8000218:	3c08      	subs	r4, #8
 800021a:	ea85 0501 	eor.w	r5, r5, r1
 800021e:	ea86 0601 	eor.w	r6, r6, r1
 8000222:	fa85 f547 	uadd8	r5, r5, r7
 8000226:	faa3 f587 	sel	r5, r3, r7
 800022a:	fa86 f647 	uadd8	r6, r6, r7
 800022e:	faa5 f687 	sel	r6, r5, r7
 8000232:	b98e      	cbnz	r6, 8000258 <memchr+0x78>
 8000234:	d1ee      	bne.n	8000214 <memchr+0x34>
 8000236:	bcf0      	pop	{r4, r5, r6, r7}
 8000238:	f001 01ff 	and.w	r1, r1, #255	@ 0xff
 800023c:	f002 0207 	and.w	r2, r2, #7
 8000240:	b132      	cbz	r2, 8000250 <memchr+0x70>
 8000242:	f810 3b01 	ldrb.w	r3, [r0], #1
 8000246:	3a01      	subs	r2, #1
 8000248:	ea83 0301 	eor.w	r3, r3, r1
 800024c:	b113      	cbz	r3, 8000254 <memchr+0x74>
 800024e:	d1f8      	bne.n	8000242 <memchr+0x62>
 8000250:	2000      	movs	r0, #0
 8000252:	4770      	bx	lr
 8000254:	3801      	subs	r0, #1
 8000256:	4770      	bx	lr
 8000258:	2d00      	cmp	r5, #0
 800025a:	bf06      	itte	eq
 800025c:	4635      	moveq	r5, r6
 800025e:	3803      	subeq	r0, #3
 8000260:	3807      	subne	r0, #7
 8000262:	f015 0f01 	tst.w	r5, #1
 8000266:	d107      	bne.n	8000278 <memchr+0x98>
 8000268:	3001      	adds	r0, #1
 800026a:	f415 7f80 	tst.w	r5, #256	@ 0x100
 800026e:	bf02      	ittt	eq
 8000270:	3001      	addeq	r0, #1
 8000272:	f415 3fc0 	tsteq.w	r5, #98304	@ 0x18000
 8000276:	3001      	addeq	r0, #1
 8000278:	bcf0      	pop	{r4, r5, r6, r7}
 800027a:	3801      	subs	r0, #1
 800027c:	4770      	bx	lr
 800027e:	bf00      	nop

08000280 <__aeabi_uldivmod>:
 8000280:	b953      	cbnz	r3, 8000298 <__aeabi_uldivmod+0x18>
 8000282:	b94a      	cbnz	r2, 8000298 <__aeabi_uldivmod+0x18>
 8000284:	2900      	cmp	r1, #0
 8000286:	bf08      	it	eq
 8000288:	2800      	cmpeq	r0, #0
 800028a:	bf1c      	itt	ne
 800028c:	f04f 31ff 	movne.w	r1, #4294967295
 8000290:	f04f 30ff 	movne.w	r0, #4294967295
 8000294:	f000 b988 	b.w	80005a8 <__aeabi_idiv0>
 8000298:	f1ad 0c08 	sub.w	ip, sp, #8
 800029c:	e96d ce04 	strd	ip, lr, [sp, #-16]!
 80002a0:	f000 f806 	bl	80002b0 <__udivmoddi4>
 80002a4:	f8dd e004 	ldr.w	lr, [sp, #4]
 80002a8:	e9dd 2302 	ldrd	r2, r3, [sp, #8]
 80002ac:	b004      	add	sp, #16
 80002ae:	4770      	bx	lr

080002b0 <__udivmoddi4>:
 80002b0:	e92d 47f0 	stmdb	sp!, {r4, r5, r6, r7, r8, r9, sl, lr}
 80002b4:	9d08      	ldr	r5, [sp, #32]
 80002b6:	468e      	mov	lr, r1
 80002b8:	4604      	mov	r4, r0
 80002ba:	4688      	mov	r8, r1
 80002bc:	2b00      	cmp	r3, #0
 80002be:	d14a      	bne.n	8000356 <__udivmoddi4+0xa6>
 80002c0:	428a      	cmp	r2, r1
 80002c2:	4617      	mov	r7, r2
 80002c4:	d962      	bls.n	800038c <__udivmoddi4+0xdc>
 80002c6:	fab2 f682 	clz	r6, r2
 80002ca:	b14e      	cbz	r6, 80002e0 <__udivmoddi4+0x30>
 80002cc:	f1c6 0320 	rsb	r3, r6, #32
 80002d0:	fa01 f806 	lsl.w	r8, r1, r6
 80002d4:	fa20 f303 	lsr.w	r3, r0, r3
 80002d8:	40b7      	lsls	r7, r6
 80002da:	ea43 0808 	orr.w	r8, r3, r8
 80002de:	40b4      	lsls	r4, r6
 80002e0:	ea4f 4e17 	mov.w	lr, r7, lsr #16
 80002e4:	fa1f fc87 	uxth.w	ip, r7
 80002e8:	fbb8 f1fe 	udiv	r1, r8, lr
 80002ec:	0c23      	lsrs	r3, r4, #16
 80002ee:	fb0e 8811 	mls	r8, lr, r1, r8
 80002f2:	ea43 4308 	orr.w	r3, r3, r8, lsl #16
 80002f6:	fb01 f20c 	mul.w	r2, r1, ip
 80002fa:	429a      	cmp	r2, r3
 80002fc:	d909      	bls.n	8000312 <__udivmoddi4+0x62>
 80002fe:	18fb      	adds	r3, r7, r3
 8000300:	f101 30ff 	add.w	r0, r1, #4294967295
 8000304:	f080 80ea 	bcs.w	80004dc <__udivmoddi4+0x22c>
 8000308:	429a      	cmp	r2, r3
 800030a:	f240 80e7 	bls.w	80004dc <__udivmoddi4+0x22c>
 800030e:	3902      	subs	r1, #2
 8000310:	443b      	add	r3, r7
 8000312:	1a9a      	subs	r2, r3, r2
 8000314:	b2a3      	uxth	r3, r4
 8000316:	fbb2 f0fe 	udiv	r0, r2, lr
 800031a:	fb0e 2210 	mls	r2, lr, r0, r2
 800031e:	ea43 4302 	orr.w	r3, r3, r2, lsl #16
 8000322:	fb00 fc0c 	mul.w	ip, r0, ip
 8000326:	459c      	cmp	ip, r3
 8000328:	d909      	bls.n	800033e <__udivmoddi4+0x8e>
 800032a:	18fb      	adds	r3, r7, r3
 800032c:	f100 32ff 	add.w	r2, r0, #4294967295
 8000330:	f080 80d6 	bcs.w	80004e0 <__udivmoddi4+0x230>
 8000334:	459c      	cmp	ip, r3
 8000336:	f240 80d3 	bls.w	80004e0 <__udivmoddi4+0x230>
 800033a:	443b      	add	r3, r7
 800033c:	3802      	subs	r0, #2
 800033e:	ea40 4001 	orr.w	r0, r0, r1, lsl #16
 8000342:	eba3 030c 	sub.w	r3, r3, ip
 8000346:	2100      	movs	r1, #0
 8000348:	b11d      	cbz	r5, 8000352 <__udivmoddi4+0xa2>
 800034a:	40f3      	lsrs	r3, r6
 800034c:	2200      	movs	r2, #0
 800034e:	e9c5 3200 	strd	r3, r2, [r5]
 8000352:	e8bd 87f0 	ldmia.w	sp!, {r4, r5, r6, r7, r8, r9, sl, pc}
 8000356:	428b      	cmp	r3, r1
 8000358:	d905      	bls.n	8000366 <__udivmoddi4+0xb6>
 800035a:	b10d      	cbz	r5, 8000360 <__udivmoddi4+0xb0>
 800035c:	e9c5 0100 	strd	r0, r1, [r5]
 8000360:	2100      	movs	r1, #0
 8000362:	4608      	mov	r0, r1
 8000364:	e7f5      	b.n	8000352 <__udivmoddi4+0xa2>
 8000366:	fab3 f183 	clz	r1, r3
 800036a:	2900      	cmp	r1, #0
 800036c:	d146      	bne.n	80003fc <__udivmoddi4+0x14c>
 800036e:	4573      	cmp	r3, lr
 8000370:	d302      	bcc.n	8000378 <__udivmoddi4+0xc8>
 8000372:	4282      	cmp	r2, r0
 8000374:	f200 8105 	bhi.w	8000582 <__udivmoddi4+0x2d2>
 8000378:	1a84      	subs	r4, r0, r2
 800037a:	eb6e 0203 	sbc.w	r2, lr, r3
 800037e:	2001      	movs	r0, #1
 8000380:	4690      	mov	r8, r2
 8000382:	2d00      	cmp	r5, #0
 8000384:	d0e5      	beq.n	8000352 <__udivmoddi4+0xa2>
 8000386:	e9c5 4800 	strd	r4, r8, [r5]
 800038a:	e7e2      	b.n	8000352 <__udivmoddi4+0xa2>
 800038c:	2a00      	cmp	r2, #0
 800038e:	f000 8090 	beq.w	80004b2 <__udivmoddi4+0x202>
 8000392:	fab2 f682 	clz	r6, r2
 8000396:	2e00      	cmp	r6, #0
 8000398:	f040 80a4 	bne.w	80004e4 <__udivmoddi4+0x234>
 800039c:	1a8a      	subs	r2, r1, r2
 800039e:	0c03      	lsrs	r3, r0, #16
 80003a0:	ea4f 4e17 	mov.w	lr, r7, lsr #16
 80003a4:	b280      	uxth	r0, r0
 80003a6:	b2bc      	uxth	r4, r7
 80003a8:	2101      	movs	r1, #1
 80003aa:	fbb2 fcfe 	udiv	ip, r2, lr
 80003ae:	fb0e 221c 	mls	r2, lr, ip, r2
 80003b2:	ea43 4302 	orr.w	r3, r3, r2, lsl #16
 80003b6:	fb04 f20c 	mul.w	r2, r4, ip
 80003ba:	429a      	cmp	r2, r3
 80003bc:	d907      	bls.n	80003ce <__udivmoddi4+0x11e>
 80003be:	18fb      	adds	r3, r7, r3
 80003c0:	f10c 38ff 	add.w	r8, ip, #4294967295
 80003c4:	d202      	bcs.n	80003cc <__udivmoddi4+0x11c>
 80003c6:	429a      	cmp	r2, r3
 80003c8:	f200 80e0 	bhi.w	800058c <__udivmoddi4+0x2dc>
 80003cc:	46c4      	mov	ip, r8
 80003ce:	1a9b      	subs	r3, r3, r2
 80003d0:	fbb3 f2fe 	udiv	r2, r3, lr
 80003d4:	fb0e 3312 	mls	r3, lr, r2, r3
 80003d8:	ea40 4303 	orr.w	r3, r0, r3, lsl #16
 80003dc:	fb02 f404 	mul.w	r4, r2, r4
 80003e0:	429c      	cmp	r4, r3
 80003e2:	d907      	bls.n	80003f4 <__udivmoddi4+0x144>
 80003e4:	18fb      	adds	r3, r7, r3
 80003e6:	f102 30ff 	add.w	r0, r2, #4294967295
 80003ea:	d202      	bcs.n	80003f2 <__udivmoddi4+0x142>
 80003ec:	429c      	cmp	r4, r3
 80003ee:	f200 80ca 	bhi.w	8000586 <__udivmoddi4+0x2d6>
 80003f2:	4602      	mov	r2, r0
 80003f4:	1b1b      	subs	r3, r3, r4
 80003f6:	ea42 400c 	orr.w	r0, r2, ip, lsl #16
 80003fa:	e7a5      	b.n	8000348 <__udivmoddi4+0x98>
 80003fc:	f1c1 0620 	rsb	r6, r1, #32
 8000400:	408b      	lsls	r3, r1
 8000402:	fa22 f706 	lsr.w	r7, r2, r6
 8000406:	431f      	orrs	r7, r3
 8000408:	fa0e f401 	lsl.w	r4, lr, r1
 800040c:	fa20 f306 	lsr.w	r3, r0, r6
 8000410:	fa2e fe06 	lsr.w	lr, lr, r6
 8000414:	ea4f 4917 	mov.w	r9, r7, lsr #16
 8000418:	4323      	orrs	r3, r4
 800041a:	fa00 f801 	lsl.w	r8, r0, r1
 800041e:	fa1f fc87 	uxth.w	ip, r7
 8000422:	fbbe f0f9 	udiv	r0, lr, r9
 8000426:	0c1c      	lsrs	r4, r3, #16
 8000428:	fb09 ee10 	mls	lr, r9, r0, lr
 800042c:	ea44 440e 	orr.w	r4, r4, lr, lsl #16
 8000430:	fb00 fe0c 	mul.w	lr, r0, ip
 8000434:	45a6      	cmp	lr, r4
 8000436:	fa02 f201 	lsl.w	r2, r2, r1
 800043a:	d909      	bls.n	8000450 <__udivmoddi4+0x1a0>
 800043c:	193c      	adds	r4, r7, r4
 800043e:	f100 3aff 	add.w	sl, r0, #4294967295
 8000442:	f080 809c 	bcs.w	800057e <__udivmoddi4+0x2ce>
 8000446:	45a6      	cmp	lr, r4
 8000448:	f240 8099 	bls.w	800057e <__udivmoddi4+0x2ce>
 800044c:	3802      	subs	r0, #2
 800044e:	443c      	add	r4, r7
 8000450:	eba4 040e 	sub.w	r4, r4, lr
 8000454:	fa1f fe83 	uxth.w	lr, r3
 8000458:	fbb4 f3f9 	udiv	r3, r4, r9
 800045c:	fb09 4413 	mls	r4, r9, r3, r4
 8000460:	ea4e 4404 	orr.w	r4, lr, r4, lsl #16
 8000464:	fb03 fc0c 	mul.w	ip, r3, ip
 8000468:	45a4      	cmp	ip, r4
 800046a:	d908      	bls.n	800047e <__udivmoddi4+0x1ce>
 800046c:	193c      	adds	r4, r7, r4
 800046e:	f103 3eff 	add.w	lr, r3, #4294967295
 8000472:	f080 8082 	bcs.w	800057a <__udivmoddi4+0x2ca>
 8000476:	45a4      	cmp	ip, r4
 8000478:	d97f      	bls.n	800057a <__udivmoddi4+0x2ca>
 800047a:	3b02      	subs	r3, #2
 800047c:	443c      	add	r4, r7
 800047e:	ea43 4000 	orr.w	r0, r3, r0, lsl #16
 8000482:	eba4 040c 	sub.w	r4, r4, ip
 8000486:	fba0 ec02 	umull	lr, ip, r0, r2
 800048a:	4564      	cmp	r4, ip
 800048c:	4673      	mov	r3, lr
 800048e:	46e1      	mov	r9, ip
 8000490:	d362      	bcc.n	8000558 <__udivmoddi4+0x2a8>
 8000492:	d05f      	beq.n	8000554 <__udivmoddi4+0x2a4>
 8000494:	b15d      	cbz	r5, 80004ae <__udivmoddi4+0x1fe>
 8000496:	ebb8 0203 	subs.w	r2, r8, r3
 800049a:	eb64 0409 	sbc.w	r4, r4, r9
 800049e:	fa04 f606 	lsl.w	r6, r4, r6
 80004a2:	fa22 f301 	lsr.w	r3, r2, r1
 80004a6:	431e      	orrs	r6, r3
 80004a8:	40cc      	lsrs	r4, r1
 80004aa:	e9c5 6400 	strd	r6, r4, [r5]
 80004ae:	2100      	movs	r1, #0
 80004b0:	e74f      	b.n	8000352 <__udivmoddi4+0xa2>
 80004b2:	fbb1 fcf2 	udiv	ip, r1, r2
 80004b6:	0c01      	lsrs	r1, r0, #16
 80004b8:	ea41 410e 	orr.w	r1, r1, lr, lsl #16
 80004bc:	b280      	uxth	r0, r0
 80004be:	ea40 4201 	orr.w	r2, r0, r1, lsl #16
 80004c2:	463b      	mov	r3, r7
 80004c4:	4638      	mov	r0, r7
 80004c6:	463c      	mov	r4, r7
 80004c8:	46b8      	mov	r8, r7
 80004ca:	46be      	mov	lr, r7
 80004cc:	2620      	movs	r6, #32
 80004ce:	fbb1 f1f7 	udiv	r1, r1, r7
 80004d2:	eba2 0208 	sub.w	r2, r2, r8
 80004d6:	ea41 410c 	orr.w	r1, r1, ip, lsl #16
 80004da:	e766      	b.n	80003aa <__udivmoddi4+0xfa>
 80004dc:	4601      	mov	r1, r0
 80004de:	e718      	b.n	8000312 <__udivmoddi4+0x62>
 80004e0:	4610      	mov	r0, r2
 80004e2:	e72c      	b.n	800033e <__udivmoddi4+0x8e>
 80004e4:	f1c6 0220 	rsb	r2, r6, #32
 80004e8:	fa2e f302 	lsr.w	r3, lr, r2
 80004ec:	40b7      	lsls	r7, r6
 80004ee:	40b1      	lsls	r1, r6
 80004f0:	fa20 f202 	lsr.w	r2, r0, r2
 80004f4:	ea4f 4e17 	mov.w	lr, r7, lsr #16
 80004f8:	430a      	orrs	r2, r1
 80004fa:	fbb3 f8fe 	udiv	r8, r3, lr
 80004fe:	b2bc      	uxth	r4, r7
 8000500:	fb0e 3318 	mls	r3, lr, r8, r3
 8000504:	0c11      	lsrs	r1, r2, #16
 8000506:	ea41 4103 	orr.w	r1, r1, r3, lsl #16
 800050a:	fb08 f904 	mul.w	r9, r8, r4
 800050e:	40b0      	lsls	r0, r6
 8000510:	4589      	cmp	r9, r1
 8000512:	ea4f 4310 	mov.w	r3, r0, lsr #16
 8000516:	b280      	uxth	r0, r0
 8000518:	d93e      	bls.n	8000598 <__udivmoddi4+0x2e8>
 800051a:	1879      	adds	r1, r7, r1
 800051c:	f108 3cff 	add.w	ip, r8, #4294967295
 8000520:	d201      	bcs.n	8000526 <__udivmoddi4+0x276>
 8000522:	4589      	cmp	r9, r1
 8000524:	d81f      	bhi.n	8000566 <__udivmoddi4+0x2b6>
 8000526:	eba1 0109 	sub.w	r1, r1, r9
 800052a:	fbb1 f9fe 	udiv	r9, r1, lr
 800052e:	fb09 f804 	mul.w	r8, r9, r4
 8000532:	fb0e 1119 	mls	r1, lr, r9, r1
 8000536:	b292      	uxth	r2, r2
 8000538:	ea42 4201 	orr.w	r2, r2, r1, lsl #16
 800053c:	4542      	cmp	r2, r8
 800053e:	d229      	bcs.n	8000594 <__udivmoddi4+0x2e4>
 8000540:	18ba      	adds	r2, r7, r2
 8000542:	f109 31ff 	add.w	r1, r9, #4294967295
 8000546:	d2c4      	bcs.n	80004d2 <__udivmoddi4+0x222>
 8000548:	4542      	cmp	r2, r8
 800054a:	d2c2      	bcs.n	80004d2 <__udivmoddi4+0x222>
 800054c:	f1a9 0102 	sub.w	r1, r9, #2
 8000550:	443a      	add	r2, r7
 8000552:	e7be      	b.n	80004d2 <__udivmoddi4+0x222>
 8000554:	45f0      	cmp	r8, lr
 8000556:	d29d      	bcs.n	8000494 <__udivmoddi4+0x1e4>
 8000558:	ebbe 0302 	subs.w	r3, lr, r2
 800055c:	eb6c 0c07 	sbc.w	ip, ip, r7
 8000560:	3801      	subs	r0, #1
 8000562:	46e1      	mov	r9, ip
 8000564:	e796      	b.n	8000494 <__udivmoddi4+0x1e4>
 8000566:	eba7 0909 	sub.w	r9, r7, r9
 800056a:	4449      	add	r1, r9
 800056c:	f1a8 0c02 	sub.w	ip, r8, #2
 8000570:	fbb1 f9fe 	udiv	r9, r1, lr
 8000574:	fb09 f804 	mul.w	r8, r9, r4
 8000578:	e7db      	b.n	8000532 <__udivmoddi4+0x282>
 800057a:	4673      	mov	r3, lr
 800057c:	e77f      	b.n	800047e <__udivmoddi4+0x1ce>
 800057e:	4650      	mov	r0, sl
 8000580:	e766      	b.n	8000450 <__udivmoddi4+0x1a0>
 8000582:	4608      	mov	r0, r1
 8000584:	e6fd      	b.n	8000382 <__udivmoddi4+0xd2>
 8000586:	443b      	add	r3, r7
 8000588:	3a02      	subs	r2, #2
 800058a:	e733      	b.n	80003f4 <__udivmoddi4+0x144>
 800058c:	f1ac 0c02 	sub.w	ip, ip, #2
 8000590:	443b      	add	r3, r7
 8000592:	e71c      	b.n	80003ce <__udivmoddi4+0x11e>
 8000594:	4649      	mov	r1, r9
 8000596:	e79c      	b.n	80004d2 <__udivmoddi4+0x222>
 8000598:	eba1 0109 	sub.w	r1, r1, r9
 800059c:	46c4      	mov	ip, r8
 800059e:	fbb1 f9fe 	udiv	r9, r1, lr
 80005a2:	fb09 f804 	mul.w	r8, r9, r4
 80005a6:	e7c4      	b.n	8000532 <__udivmoddi4+0x282>

080005a8 <__aeabi_idiv0>:
 80005a8:	4770      	bx	lr
 80005aa:	bf00      	nop

080005ac <Sensors_Init>:
    {0U, 1U, 1U, 0U},
    {0U, 1U, 0U, 1U},
    {1U, 0U, 0U, 1U}
};
static void Sensors_Init(void)
{
 80005ac:	b580      	push	{r7, lr}
 80005ae:	af00      	add	r7, sp, #0
  DWT_Delay_Init();
 80005b0:	f000 fe8e 	bl	80012d0 <DWT_Delay_Init>
  DHT22_SetPinInput();
 80005b4:	f000 feea 	bl	800138c <DHT22_SetPinInput>
  Buzzer_Init();
 80005b8:	f000 f8f8 	bl	80007ac <Buzzer_Init>
  Stepper_Init();
 80005bc:	f000 f828 	bl	8000610 <Stepper_Init>
  Relay_Init();
 80005c0:	f000 f960 	bl	8000884 <Relay_Init>
  flow_last_sample_tick = HAL_GetTick();
 80005c4:	f003 fa08 	bl	80039d8 <HAL_GetTick>
 80005c8:	4603      	mov	r3, r0
 80005ca:	4a07      	ldr	r2, [pc, #28]	@ (80005e8 <Sensors_Init+0x3c>)
 80005cc:	6013      	str	r3, [r2, #0]
  dht_last_sample_tick = HAL_GetTick();
 80005ce:	f003 fa03 	bl	80039d8 <HAL_GetTick>
 80005d2:	4603      	mov	r3, r0
 80005d4:	4a05      	ldr	r2, [pc, #20]	@ (80005ec <Sensors_Init+0x40>)
 80005d6:	6013      	str	r3, [r2, #0]
  telemetry_last_send_tick = HAL_GetTick();
 80005d8:	f003 f9fe 	bl	80039d8 <HAL_GetTick>
 80005dc:	4603      	mov	r3, r0
 80005de:	4a04      	ldr	r2, [pc, #16]	@ (80005f0 <Sensors_Init+0x44>)
 80005e0:	6013      	str	r3, [r2, #0]
}
 80005e2:	bf00      	nop
 80005e4:	bd80      	pop	{r7, pc}
 80005e6:	bf00      	nop
 80005e8:	200000dc 	.word	0x200000dc
 80005ec:	200000e4 	.word	0x200000e4
 80005f0:	2000010c 	.word	0x2000010c

080005f4 <Sensors_Service>:

static void Sensors_Service(void)
{
 80005f4:	b580      	push	{r7, lr}
 80005f6:	af00      	add	r7, sp, #0
  Buzzer_Service();
 80005f8:	f000 f908 	bl	800080c <Buzzer_Service>
  Stepper_Service();
 80005fc:	f000 f816 	bl	800062c <Stepper_Service>
  FlowSensor_Service();
 8000600:	f001 fa48 	bl	8001a94 <FlowSensor_Service>
  Relay_Service();
 8000604:	f000 f948 	bl	8000898 <Relay_Service>
  DHT22_Service();
 8000608:	f000 ffec 	bl	80015e4 <DHT22_Service>
}
 800060c:	bf00      	nop
 800060e:	bd80      	pop	{r7, pc}

08000610 <Stepper_Init>:

static void Stepper_Init(void)
{
 8000610:	b580      	push	{r7, lr}
 8000612:	af00      	add	r7, sp, #0
  Stepper_Stop();
 8000614:	f000 f898 	bl	8000748 <Stepper_Stop>
  stepper_last_step_tick = HAL_GetTick();
 8000618:	f003 f9de 	bl	80039d8 <HAL_GetTick>
 800061c:	4603      	mov	r3, r0
 800061e:	4a02      	ldr	r2, [pc, #8]	@ (8000628 <Stepper_Init+0x18>)
 8000620:	6013      	str	r3, [r2, #0]
}
 8000622:	bf00      	nop
 8000624:	bd80      	pop	{r7, pc}
 8000626:	bf00      	nop
 8000628:	2000029c 	.word	0x2000029c

0800062c <Stepper_Service>:

static void Stepper_Service(void)
{
 800062c:	b580      	push	{r7, lr}
 800062e:	b082      	sub	sp, #8
 8000630:	af00      	add	r7, sp, #0
  uint32_t now = HAL_GetTick();
 8000632:	f003 f9d1 	bl	80039d8 <HAL_GetTick>
 8000636:	6078      	str	r0, [r7, #4]

  if (temperature_stepper_active == 0U)
 8000638:	4b25      	ldr	r3, [pc, #148]	@ (80006d0 <Stepper_Service+0xa4>)
 800063a:	781b      	ldrb	r3, [r3, #0]
 800063c:	2b00      	cmp	r3, #0
 800063e:	d040      	beq.n	80006c2 <Stepper_Service+0x96>
  {
    return;
  }

  if ((now - stepper_last_step_tick) < STEPPER_STEP_INTERVAL_MS)
 8000640:	4b24      	ldr	r3, [pc, #144]	@ (80006d4 <Stepper_Service+0xa8>)
 8000642:	681b      	ldr	r3, [r3, #0]
 8000644:	687a      	ldr	r2, [r7, #4]
 8000646:	1ad3      	subs	r3, r2, r3
 8000648:	2b03      	cmp	r3, #3
 800064a:	d93c      	bls.n	80006c6 <Stepper_Service+0x9a>
  {
    return;
  }

  stepper_sequence_index = (uint8_t)((stepper_sequence_index + 1U) % 4U);
 800064c:	4b22      	ldr	r3, [pc, #136]	@ (80006d8 <Stepper_Service+0xac>)
 800064e:	781b      	ldrb	r3, [r3, #0]
 8000650:	3301      	adds	r3, #1
 8000652:	b2db      	uxtb	r3, r3
 8000654:	f003 0303 	and.w	r3, r3, #3
 8000658:	b2da      	uxtb	r2, r3
 800065a:	4b1f      	ldr	r3, [pc, #124]	@ (80006d8 <Stepper_Service+0xac>)
 800065c:	701a      	strb	r2, [r3, #0]
  stepper_last_step_tick = now;
 800065e:	4a1d      	ldr	r2, [pc, #116]	@ (80006d4 <Stepper_Service+0xa8>)
 8000660:	687b      	ldr	r3, [r7, #4]
 8000662:	6013      	str	r3, [r2, #0]

  HAL_GPIO_WritePin(STEPPER_IN1_GPIO_Port, STEPPER_IN1_Pin, (GPIO_PinState)stepper_sequence[stepper_sequence_index][0]);
 8000664:	4b1c      	ldr	r3, [pc, #112]	@ (80006d8 <Stepper_Service+0xac>)
 8000666:	781b      	ldrb	r3, [r3, #0]
 8000668:	461a      	mov	r2, r3
 800066a:	4b1c      	ldr	r3, [pc, #112]	@ (80006dc <Stepper_Service+0xb0>)
 800066c:	f813 3022 	ldrb.w	r3, [r3, r2, lsl #2]
 8000670:	461a      	mov	r2, r3
 8000672:	2140      	movs	r1, #64	@ 0x40
 8000674:	481a      	ldr	r0, [pc, #104]	@ (80006e0 <Stepper_Service+0xb4>)
 8000676:	f003 fca5 	bl	8003fc4 <HAL_GPIO_WritePin>
  HAL_GPIO_WritePin(STEPPER_IN2_GPIO_Port, STEPPER_IN2_Pin, (GPIO_PinState)stepper_sequence[stepper_sequence_index][1]);
 800067a:	4b17      	ldr	r3, [pc, #92]	@ (80006d8 <Stepper_Service+0xac>)
 800067c:	781b      	ldrb	r3, [r3, #0]
 800067e:	4a17      	ldr	r2, [pc, #92]	@ (80006dc <Stepper_Service+0xb0>)
 8000680:	009b      	lsls	r3, r3, #2
 8000682:	4413      	add	r3, r2
 8000684:	785b      	ldrb	r3, [r3, #1]
 8000686:	461a      	mov	r2, r3
 8000688:	2180      	movs	r1, #128	@ 0x80
 800068a:	4815      	ldr	r0, [pc, #84]	@ (80006e0 <Stepper_Service+0xb4>)
 800068c:	f003 fc9a 	bl	8003fc4 <HAL_GPIO_WritePin>
  HAL_GPIO_WritePin(STEPPER_IN3_GPIO_Port, STEPPER_IN3_Pin, (GPIO_PinState)stepper_sequence[stepper_sequence_index][2]);
 8000690:	4b11      	ldr	r3, [pc, #68]	@ (80006d8 <Stepper_Service+0xac>)
 8000692:	781b      	ldrb	r3, [r3, #0]
 8000694:	4a11      	ldr	r2, [pc, #68]	@ (80006dc <Stepper_Service+0xb0>)
 8000696:	009b      	lsls	r3, r3, #2
 8000698:	4413      	add	r3, r2
 800069a:	789b      	ldrb	r3, [r3, #2]
 800069c:	461a      	mov	r2, r3
 800069e:	f44f 7180 	mov.w	r1, #256	@ 0x100
 80006a2:	480f      	ldr	r0, [pc, #60]	@ (80006e0 <Stepper_Service+0xb4>)
 80006a4:	f003 fc8e 	bl	8003fc4 <HAL_GPIO_WritePin>
  HAL_GPIO_WritePin(STEPPER_IN4_GPIO_Port, STEPPER_IN4_Pin, (GPIO_PinState)stepper_sequence[stepper_sequence_index][3]);
 80006a8:	4b0b      	ldr	r3, [pc, #44]	@ (80006d8 <Stepper_Service+0xac>)
 80006aa:	781b      	ldrb	r3, [r3, #0]
 80006ac:	4a0b      	ldr	r2, [pc, #44]	@ (80006dc <Stepper_Service+0xb0>)
 80006ae:	009b      	lsls	r3, r3, #2
 80006b0:	4413      	add	r3, r2
 80006b2:	78db      	ldrb	r3, [r3, #3]
 80006b4:	461a      	mov	r2, r3
 80006b6:	f44f 7100 	mov.w	r1, #512	@ 0x200
 80006ba:	4809      	ldr	r0, [pc, #36]	@ (80006e0 <Stepper_Service+0xb4>)
 80006bc:	f003 fc82 	bl	8003fc4 <HAL_GPIO_WritePin>
 80006c0:	e002      	b.n	80006c8 <Stepper_Service+0x9c>
    return;
 80006c2:	bf00      	nop
 80006c4:	e000      	b.n	80006c8 <Stepper_Service+0x9c>
    return;
 80006c6:	bf00      	nop
}
 80006c8:	3708      	adds	r7, #8
 80006ca:	46bd      	mov	sp, r7
 80006cc:	bd80      	pop	{r7, pc}
 80006ce:	bf00      	nop
 80006d0:	20000294 	.word	0x20000294
 80006d4:	2000029c 	.word	0x2000029c
 80006d8:	20000298 	.word	0x20000298
 80006dc:	08005e30 	.word	0x08005e30
 80006e0:	40020400 	.word	0x40020400

080006e4 <Stepper_Start>:

static void Stepper_Start(void)
{
 80006e4:	b580      	push	{r7, lr}
 80006e6:	af00      	add	r7, sp, #0
  temperature_stepper_active = 1U;
 80006e8:	4b13      	ldr	r3, [pc, #76]	@ (8000738 <Stepper_Start+0x54>)
 80006ea:	2201      	movs	r2, #1
 80006ec:	701a      	strb	r2, [r3, #0]
  stepper_sequence_index = 0U;
 80006ee:	4b13      	ldr	r3, [pc, #76]	@ (800073c <Stepper_Start+0x58>)
 80006f0:	2200      	movs	r2, #0
 80006f2:	701a      	strb	r2, [r3, #0]
  stepper_last_step_tick = HAL_GetTick();
 80006f4:	f003 f970 	bl	80039d8 <HAL_GetTick>
 80006f8:	4603      	mov	r3, r0
 80006fa:	4a11      	ldr	r2, [pc, #68]	@ (8000740 <Stepper_Start+0x5c>)
 80006fc:	6013      	str	r3, [r2, #0]

  HAL_GPIO_WritePin(STEPPER_IN1_GPIO_Port, STEPPER_IN1_Pin, (GPIO_PinState)stepper_sequence[0][0]);
 80006fe:	2301      	movs	r3, #1
 8000700:	461a      	mov	r2, r3
 8000702:	2140      	movs	r1, #64	@ 0x40
 8000704:	480f      	ldr	r0, [pc, #60]	@ (8000744 <Stepper_Start+0x60>)
 8000706:	f003 fc5d 	bl	8003fc4 <HAL_GPIO_WritePin>
  HAL_GPIO_WritePin(STEPPER_IN2_GPIO_Port, STEPPER_IN2_Pin, (GPIO_PinState)stepper_sequence[0][1]);
 800070a:	2300      	movs	r3, #0
 800070c:	461a      	mov	r2, r3
 800070e:	2180      	movs	r1, #128	@ 0x80
 8000710:	480c      	ldr	r0, [pc, #48]	@ (8000744 <Stepper_Start+0x60>)
 8000712:	f003 fc57 	bl	8003fc4 <HAL_GPIO_WritePin>
  HAL_GPIO_WritePin(STEPPER_IN3_GPIO_Port, STEPPER_IN3_Pin, (GPIO_PinState)stepper_sequence[0][2]);
 8000716:	2301      	movs	r3, #1
 8000718:	461a      	mov	r2, r3
 800071a:	f44f 7180 	mov.w	r1, #256	@ 0x100
 800071e:	4809      	ldr	r0, [pc, #36]	@ (8000744 <Stepper_Start+0x60>)
 8000720:	f003 fc50 	bl	8003fc4 <HAL_GPIO_WritePin>
  HAL_GPIO_WritePin(STEPPER_IN4_GPIO_Port, STEPPER_IN4_Pin, (GPIO_PinState)stepper_sequence[0][3]);
 8000724:	2300      	movs	r3, #0
 8000726:	461a      	mov	r2, r3
 8000728:	f44f 7100 	mov.w	r1, #512	@ 0x200
 800072c:	4805      	ldr	r0, [pc, #20]	@ (8000744 <Stepper_Start+0x60>)
 800072e:	f003 fc49 	bl	8003fc4 <HAL_GPIO_WritePin>
}
 8000732:	bf00      	nop
 8000734:	bd80      	pop	{r7, pc}
 8000736:	bf00      	nop
 8000738:	20000294 	.word	0x20000294
 800073c:	20000298 	.word	0x20000298
 8000740:	2000029c 	.word	0x2000029c
 8000744:	40020400 	.word	0x40020400

08000748 <Stepper_Stop>:

static void Stepper_Stop(void)
{
 8000748:	b580      	push	{r7, lr}
 800074a:	af00      	add	r7, sp, #0
  temperature_stepper_active = 0U;
 800074c:	4b05      	ldr	r3, [pc, #20]	@ (8000764 <Stepper_Stop+0x1c>)
 800074e:	2200      	movs	r2, #0
 8000750:	701a      	strb	r2, [r3, #0]
  HAL_GPIO_WritePin(GPIOB, STEPPER_IN1_Pin | STEPPER_IN2_Pin | STEPPER_IN3_Pin | STEPPER_IN4_Pin, GPIO_PIN_RESET);
 8000752:	2200      	movs	r2, #0
 8000754:	f44f 7170 	mov.w	r1, #960	@ 0x3c0
 8000758:	4803      	ldr	r0, [pc, #12]	@ (8000768 <Stepper_Stop+0x20>)
 800075a:	f003 fc33 	bl	8003fc4 <HAL_GPIO_WritePin>
}
 800075e:	bf00      	nop
 8000760:	bd80      	pop	{r7, pc}
 8000762:	bf00      	nop
 8000764:	20000294 	.word	0x20000294
 8000768:	40020400 	.word	0x40020400

0800076c <Buzzer_Set>:

static void Buzzer_Set(uint8_t enabled)
{
 800076c:	b580      	push	{r7, lr}
 800076e:	b084      	sub	sp, #16
 8000770:	af00      	add	r7, sp, #0
 8000772:	4603      	mov	r3, r0
 8000774:	71fb      	strb	r3, [r7, #7]
  GPIO_PinState pin_state = GPIO_PIN_RESET;
 8000776:	2300      	movs	r3, #0
 8000778:	73fb      	strb	r3, [r7, #15]

  buzzer_active = enabled;
 800077a:	4a0a      	ldr	r2, [pc, #40]	@ (80007a4 <Buzzer_Set+0x38>)
 800077c:	79fb      	ldrb	r3, [r7, #7]
 800077e:	7013      	strb	r3, [r2, #0]

  if (enabled != 0U)
 8000780:	79fb      	ldrb	r3, [r7, #7]
 8000782:	2b00      	cmp	r3, #0
 8000784:	d002      	beq.n	800078c <Buzzer_Set+0x20>
  {
    pin_state = BUZZER_ACTIVE_LEVEL;
 8000786:	2301      	movs	r3, #1
 8000788:	73fb      	strb	r3, [r7, #15]
 800078a:	e001      	b.n	8000790 <Buzzer_Set+0x24>
  }
  else
  {
    pin_state = (BUZZER_ACTIVE_LEVEL == GPIO_PIN_SET) ? GPIO_PIN_RESET : GPIO_PIN_SET;
 800078c:	2300      	movs	r3, #0
 800078e:	73fb      	strb	r3, [r7, #15]
  }

  HAL_GPIO_WritePin(BUZZER_GPIO_Port, BUZZER_Pin, pin_state);
 8000790:	7bfb      	ldrb	r3, [r7, #15]
 8000792:	461a      	mov	r2, r3
 8000794:	2102      	movs	r1, #2
 8000796:	4804      	ldr	r0, [pc, #16]	@ (80007a8 <Buzzer_Set+0x3c>)
 8000798:	f003 fc14 	bl	8003fc4 <HAL_GPIO_WritePin>
}
 800079c:	bf00      	nop
 800079e:	3710      	adds	r7, #16
 80007a0:	46bd      	mov	sp, r7
 80007a2:	bd80      	pop	{r7, pc}
 80007a4:	200002a0 	.word	0x200002a0
 80007a8:	40020000 	.word	0x40020000

080007ac <Buzzer_Init>:

static void Buzzer_Init(void)
{
 80007ac:	b580      	push	{r7, lr}
 80007ae:	af00      	add	r7, sp, #0
  buzzer_off_tick = 0U;
 80007b0:	4b08      	ldr	r3, [pc, #32]	@ (80007d4 <Buzzer_Init+0x28>)
 80007b2:	2200      	movs	r2, #0
 80007b4:	601a      	str	r2, [r3, #0]
  buzzer_mold_alarm_latched = 0U;
 80007b6:	4b08      	ldr	r3, [pc, #32]	@ (80007d8 <Buzzer_Init+0x2c>)
 80007b8:	2200      	movs	r2, #0
 80007ba:	701a      	strb	r2, [r3, #0]
  buzzer_frost_alarm_latched = 0U;
 80007bc:	4b07      	ldr	r3, [pc, #28]	@ (80007dc <Buzzer_Init+0x30>)
 80007be:	2200      	movs	r2, #0
 80007c0:	701a      	strb	r2, [r3, #0]
  buzzer_flow_alarm_latched = 0U;
 80007c2:	4b07      	ldr	r3, [pc, #28]	@ (80007e0 <Buzzer_Init+0x34>)
 80007c4:	2200      	movs	r2, #0
 80007c6:	701a      	strb	r2, [r3, #0]
  Buzzer_Set(0U);
 80007c8:	2000      	movs	r0, #0
 80007ca:	f7ff ffcf 	bl	800076c <Buzzer_Set>
}
 80007ce:	bf00      	nop
 80007d0:	bd80      	pop	{r7, pc}
 80007d2:	bf00      	nop
 80007d4:	200002a4 	.word	0x200002a4
 80007d8:	200002a8 	.word	0x200002a8
 80007dc:	200002a9 	.word	0x200002a9
 80007e0:	200002aa 	.word	0x200002aa

080007e4 <Buzzer_Trigger>:

static void Buzzer_Trigger(uint32_t duration_ms)
{
 80007e4:	b580      	push	{r7, lr}
 80007e6:	b082      	sub	sp, #8
 80007e8:	af00      	add	r7, sp, #0
 80007ea:	6078      	str	r0, [r7, #4]
  Buzzer_Set(1U);
 80007ec:	2001      	movs	r0, #1
 80007ee:	f7ff ffbd 	bl	800076c <Buzzer_Set>
  buzzer_off_tick = HAL_GetTick() + duration_ms;
 80007f2:	f003 f8f1 	bl	80039d8 <HAL_GetTick>
 80007f6:	4602      	mov	r2, r0
 80007f8:	687b      	ldr	r3, [r7, #4]
 80007fa:	4413      	add	r3, r2
 80007fc:	4a02      	ldr	r2, [pc, #8]	@ (8000808 <Buzzer_Trigger+0x24>)
 80007fe:	6013      	str	r3, [r2, #0]
}
 8000800:	bf00      	nop
 8000802:	3708      	adds	r7, #8
 8000804:	46bd      	mov	sp, r7
 8000806:	bd80      	pop	{r7, pc}
 8000808:	200002a4 	.word	0x200002a4

0800080c <Buzzer_Service>:

static void Buzzer_Service(void)
{
 800080c:	b580      	push	{r7, lr}
 800080e:	b082      	sub	sp, #8
 8000810:	af00      	add	r7, sp, #0
  uint32_t now = HAL_GetTick();
 8000812:	f003 f8e1 	bl	80039d8 <HAL_GetTick>
 8000816:	6078      	str	r0, [r7, #4]

  if ((buzzer_active != 0U) && ((int32_t)(now - buzzer_off_tick) >= 0))
 8000818:	4b08      	ldr	r3, [pc, #32]	@ (800083c <Buzzer_Service+0x30>)
 800081a:	781b      	ldrb	r3, [r3, #0]
 800081c:	2b00      	cmp	r3, #0
 800081e:	d008      	beq.n	8000832 <Buzzer_Service+0x26>
 8000820:	4b07      	ldr	r3, [pc, #28]	@ (8000840 <Buzzer_Service+0x34>)
 8000822:	681b      	ldr	r3, [r3, #0]
 8000824:	687a      	ldr	r2, [r7, #4]
 8000826:	1ad3      	subs	r3, r2, r3
 8000828:	2b00      	cmp	r3, #0
 800082a:	db02      	blt.n	8000832 <Buzzer_Service+0x26>
  {
    Buzzer_Set(0U);
 800082c:	2000      	movs	r0, #0
 800082e:	f7ff ff9d 	bl	800076c <Buzzer_Set>
  }
}
 8000832:	bf00      	nop
 8000834:	3708      	adds	r7, #8
 8000836:	46bd      	mov	sp, r7
 8000838:	bd80      	pop	{r7, pc}
 800083a:	bf00      	nop
 800083c:	200002a0 	.word	0x200002a0
 8000840:	200002a4 	.word	0x200002a4

08000844 <Relay_Set>:

static void Relay_Set(uint8_t enabled)
{
 8000844:	b580      	push	{r7, lr}
 8000846:	b084      	sub	sp, #16
 8000848:	af00      	add	r7, sp, #0
 800084a:	4603      	mov	r3, r0
 800084c:	71fb      	strb	r3, [r7, #7]
  GPIO_PinState pin_state = GPIO_PIN_RESET;
 800084e:	2300      	movs	r3, #0
 8000850:	73fb      	strb	r3, [r7, #15]

  flow_relay_active = enabled;
 8000852:	4a0a      	ldr	r2, [pc, #40]	@ (800087c <Relay_Set+0x38>)
 8000854:	79fb      	ldrb	r3, [r7, #7]
 8000856:	7013      	strb	r3, [r2, #0]

  if (enabled != 0U)
 8000858:	79fb      	ldrb	r3, [r7, #7]
 800085a:	2b00      	cmp	r3, #0
 800085c:	d002      	beq.n	8000864 <Relay_Set+0x20>
  {
    pin_state = FLOW_RELAY_ACTIVE_LEVEL;
 800085e:	2300      	movs	r3, #0
 8000860:	73fb      	strb	r3, [r7, #15]
 8000862:	e001      	b.n	8000868 <Relay_Set+0x24>
  }
  else
  {
    pin_state = (FLOW_RELAY_ACTIVE_LEVEL == GPIO_PIN_SET) ? GPIO_PIN_RESET : GPIO_PIN_SET;
 8000864:	2301      	movs	r3, #1
 8000866:	73fb      	strb	r3, [r7, #15]
  }

  HAL_GPIO_WritePin(FLOW_RELAY_GPIO_Port, FLOW_RELAY_Pin, pin_state);
 8000868:	7bfb      	ldrb	r3, [r7, #15]
 800086a:	461a      	mov	r2, r3
 800086c:	2102      	movs	r1, #2
 800086e:	4804      	ldr	r0, [pc, #16]	@ (8000880 <Relay_Set+0x3c>)
 8000870:	f003 fba8 	bl	8003fc4 <HAL_GPIO_WritePin>
}
 8000874:	bf00      	nop
 8000876:	3710      	adds	r7, #16
 8000878:	46bd      	mov	sp, r7
 800087a:	bd80      	pop	{r7, pc}
 800087c:	20000295 	.word	0x20000295
 8000880:	40020400 	.word	0x40020400

08000884 <Relay_Init>:

static void Relay_Init(void)
{
 8000884:	b580      	push	{r7, lr}
 8000886:	af00      	add	r7, sp, #0
  Relay_Set(0U);
 8000888:	2000      	movs	r0, #0
 800088a:	f7ff ffdb 	bl	8000844 <Relay_Set>
  FrostRelay_Set(0U);
 800088e:	2000      	movs	r0, #0
 8000890:	f000 f85a 	bl	8000948 <FrostRelay_Set>
}
 8000894:	bf00      	nop
 8000896:	bd80      	pop	{r7, pc}

08000898 <Relay_Service>:

static void Relay_Service(void)
{
 8000898:	b580      	push	{r7, lr}
 800089a:	b082      	sub	sp, #8
 800089c:	af00      	add	r7, sp, #0
  uint8_t flow_alarm_active = 0U;
 800089e:	2300      	movs	r3, #0
 80008a0:	71fb      	strb	r3, [r7, #7]

  if (flow_reference_valid == 0U)
 80008a2:	4b23      	ldr	r3, [pc, #140]	@ (8000930 <Relay_Service+0x98>)
 80008a4:	781b      	ldrb	r3, [r3, #0]
 80008a6:	2b00      	cmp	r3, #0
 80008a8:	d106      	bne.n	80008b8 <Relay_Service+0x20>
  {
    buzzer_flow_alarm_latched = 0U;
 80008aa:	4b22      	ldr	r3, [pc, #136]	@ (8000934 <Relay_Service+0x9c>)
 80008ac:	2200      	movs	r2, #0
 80008ae:	701a      	strb	r2, [r3, #0]
    flow_alarm_active_state = 0U;
 80008b0:	4b21      	ldr	r3, [pc, #132]	@ (8000938 <Relay_Service+0xa0>)
 80008b2:	2200      	movs	r2, #0
 80008b4:	701a      	strb	r2, [r3, #0]
    return;
 80008b6:	e038      	b.n	800092a <Relay_Service+0x92>
  }

  flow_alarm_active = (uint8_t)(
      (g_flow_l_min >= (flow_reference_l_min + FLOW_TRIGGER_DELTA_LPM)) ||
 80008b8:	4b20      	ldr	r3, [pc, #128]	@ (800093c <Relay_Service+0xa4>)
 80008ba:	edd3 7a00 	vldr	s15, [r3]
 80008be:	eeb0 7a00 	vmov.f32	s14, #0	@ 0x40000000  2.0
 80008c2:	ee37 7a87 	vadd.f32	s14, s15, s14
 80008c6:	4b1e      	ldr	r3, [pc, #120]	@ (8000940 <Relay_Service+0xa8>)
 80008c8:	edd3 7a00 	vldr	s15, [r3]
 80008cc:	eeb4 7ae7 	vcmpe.f32	s14, s15
 80008d0:	eef1 fa10 	vmrs	APSR_nzcv, fpscr
 80008d4:	d903      	bls.n	80008de <Relay_Service+0x46>
      (flow_risk_predicted_state != 0U));
 80008d6:	4b1b      	ldr	r3, [pc, #108]	@ (8000944 <Relay_Service+0xac>)
 80008d8:	781b      	ldrb	r3, [r3, #0]
      (g_flow_l_min >= (flow_reference_l_min + FLOW_TRIGGER_DELTA_LPM)) ||
 80008da:	2b00      	cmp	r3, #0
 80008dc:	d001      	beq.n	80008e2 <Relay_Service+0x4a>
 80008de:	2301      	movs	r3, #1
 80008e0:	e000      	b.n	80008e4 <Relay_Service+0x4c>
 80008e2:	2300      	movs	r3, #0
  flow_alarm_active = (uint8_t)(
 80008e4:	71fb      	strb	r3, [r7, #7]

  if ((flow_alarm_active != 0U) && (buzzer_flow_alarm_latched == 0U))
 80008e6:	79fb      	ldrb	r3, [r7, #7]
 80008e8:	2b00      	cmp	r3, #0
 80008ea:	d00b      	beq.n	8000904 <Relay_Service+0x6c>
 80008ec:	4b11      	ldr	r3, [pc, #68]	@ (8000934 <Relay_Service+0x9c>)
 80008ee:	781b      	ldrb	r3, [r3, #0]
 80008f0:	2b00      	cmp	r3, #0
 80008f2:	d107      	bne.n	8000904 <Relay_Service+0x6c>
  {
    Buzzer_Trigger(BUZZER_BEEP_DURATION_MS);
 80008f4:	f640 10c4 	movw	r0, #2500	@ 0x9c4
 80008f8:	f7ff ff74 	bl	80007e4 <Buzzer_Trigger>
    buzzer_flow_alarm_latched = 1U;
 80008fc:	4b0d      	ldr	r3, [pc, #52]	@ (8000934 <Relay_Service+0x9c>)
 80008fe:	2201      	movs	r2, #1
 8000900:	701a      	strb	r2, [r3, #0]
 8000902:	e005      	b.n	8000910 <Relay_Service+0x78>
  }
  else if (flow_alarm_active == 0U)
 8000904:	79fb      	ldrb	r3, [r7, #7]
 8000906:	2b00      	cmp	r3, #0
 8000908:	d102      	bne.n	8000910 <Relay_Service+0x78>
  {
    buzzer_flow_alarm_latched = 0U;
 800090a:	4b0a      	ldr	r3, [pc, #40]	@ (8000934 <Relay_Service+0x9c>)
 800090c:	2200      	movs	r2, #0
 800090e:	701a      	strb	r2, [r3, #0]
  }

  flow_alarm_active_state = flow_alarm_active;
 8000910:	4a09      	ldr	r2, [pc, #36]	@ (8000938 <Relay_Service+0xa0>)
 8000912:	79fb      	ldrb	r3, [r7, #7]
 8000914:	7013      	strb	r3, [r2, #0]

  if (flow_alarm_active != 0U)
 8000916:	79fb      	ldrb	r3, [r7, #7]
 8000918:	2b00      	cmp	r3, #0
 800091a:	d003      	beq.n	8000924 <Relay_Service+0x8c>
  {
    Relay_Set(1U);
 800091c:	2001      	movs	r0, #1
 800091e:	f7ff ff91 	bl	8000844 <Relay_Set>
 8000922:	e002      	b.n	800092a <Relay_Service+0x92>
  }
  else
  {
    Relay_Set(0U);
 8000924:	2000      	movs	r0, #0
 8000926:	f7ff ff8d 	bl	8000844 <Relay_Set>
  }
}
 800092a:	3708      	adds	r7, #8
 800092c:	46bd      	mov	sp, r7
 800092e:	bd80      	pop	{r7, pc}
 8000930:	20000108 	.word	0x20000108
 8000934:	200002aa 	.word	0x200002aa
 8000938:	200002ad 	.word	0x200002ad
 800093c:	20000104 	.word	0x20000104
 8000940:	200000c8 	.word	0x200000c8
 8000944:	20000297 	.word	0x20000297

08000948 <FrostRelay_Set>:

static void FrostRelay_Set(uint8_t enabled)
{
 8000948:	b580      	push	{r7, lr}
 800094a:	b084      	sub	sp, #16
 800094c:	af00      	add	r7, sp, #0
 800094e:	4603      	mov	r3, r0
 8000950:	71fb      	strb	r3, [r7, #7]
  GPIO_PinState pin_state = GPIO_PIN_RESET;
 8000952:	2300      	movs	r3, #0
 8000954:	73fb      	strb	r3, [r7, #15]

  frost_relay_active = enabled;
 8000956:	4a0a      	ldr	r2, [pc, #40]	@ (8000980 <FrostRelay_Set+0x38>)
 8000958:	79fb      	ldrb	r3, [r7, #7]
 800095a:	7013      	strb	r3, [r2, #0]

  if (enabled != 0U)
 800095c:	79fb      	ldrb	r3, [r7, #7]
 800095e:	2b00      	cmp	r3, #0
 8000960:	d002      	beq.n	8000968 <FrostRelay_Set+0x20>
  {
    pin_state = FROST_RELAY_ACTIVE_LEVEL;
 8000962:	2300      	movs	r3, #0
 8000964:	73fb      	strb	r3, [r7, #15]
 8000966:	e001      	b.n	800096c <FrostRelay_Set+0x24>
  }
  else
  {
    pin_state = (FROST_RELAY_ACTIVE_LEVEL == GPIO_PIN_SET) ? GPIO_PIN_RESET : GPIO_PIN_SET;
 8000968:	2301      	movs	r3, #1
 800096a:	73fb      	strb	r3, [r7, #15]
  }

  HAL_GPIO_WritePin(FROST_RELAY_GPIO_Port, FROST_RELAY_Pin, pin_state);
 800096c:	7bfb      	ldrb	r3, [r7, #15]
 800096e:	461a      	mov	r2, r3
 8000970:	2120      	movs	r1, #32
 8000972:	4804      	ldr	r0, [pc, #16]	@ (8000984 <FrostRelay_Set+0x3c>)
 8000974:	f003 fb26 	bl	8003fc4 <HAL_GPIO_WritePin>
}
 8000978:	bf00      	nop
 800097a:	3710      	adds	r7, #16
 800097c:	46bd      	mov	sp, r7
 800097e:	bd80      	pop	{r7, pc}
 8000980:	20000296 	.word	0x20000296
 8000984:	40020400 	.word	0x40020400

08000988 <DHT22_IsReadingPlausible>:

static uint8_t DHT22_IsReadingPlausible(float temperature_c, float humidity_pct)
{
 8000988:	b480      	push	{r7}
 800098a:	b083      	sub	sp, #12
 800098c:	af00      	add	r7, sp, #0
 800098e:	ed87 0a01 	vstr	s0, [r7, #4]
 8000992:	edc7 0a00 	vstr	s1, [r7]
  if ((temperature_c < DHT22_MIN_TEMPERATURE_C) ||
 8000996:	edd7 7a01 	vldr	s15, [r7, #4]
 800099a:	ed9f 7a14 	vldr	s14, [pc, #80]	@ 80009ec <DHT22_IsReadingPlausible+0x64>
 800099e:	eef4 7ac7 	vcmpe.f32	s15, s14
 80009a2:	eef1 fa10 	vmrs	APSR_nzcv, fpscr
 80009a6:	d418      	bmi.n	80009da <DHT22_IsReadingPlausible+0x52>
 80009a8:	edd7 7a01 	vldr	s15, [r7, #4]
 80009ac:	ed9f 7a10 	vldr	s14, [pc, #64]	@ 80009f0 <DHT22_IsReadingPlausible+0x68>
 80009b0:	eef4 7ac7 	vcmpe.f32	s15, s14
 80009b4:	eef1 fa10 	vmrs	APSR_nzcv, fpscr
 80009b8:	dc0f      	bgt.n	80009da <DHT22_IsReadingPlausible+0x52>
      (temperature_c > DHT22_MAX_TEMPERATURE_C) ||
 80009ba:	edd7 7a00 	vldr	s15, [r7]
 80009be:	eef5 7ac0 	vcmpe.f32	s15, #0.0
 80009c2:	eef1 fa10 	vmrs	APSR_nzcv, fpscr
 80009c6:	d408      	bmi.n	80009da <DHT22_IsReadingPlausible+0x52>
      (humidity_pct < 0.0f) ||
 80009c8:	edd7 7a00 	vldr	s15, [r7]
 80009cc:	ed9f 7a09 	vldr	s14, [pc, #36]	@ 80009f4 <DHT22_IsReadingPlausible+0x6c>
 80009d0:	eef4 7ac7 	vcmpe.f32	s15, s14
 80009d4:	eef1 fa10 	vmrs	APSR_nzcv, fpscr
 80009d8:	dd01      	ble.n	80009de <DHT22_IsReadingPlausible+0x56>
      (humidity_pct > DHT22_MAX_HUMIDITY_PCT))
  {
    return 0U;
 80009da:	2300      	movs	r3, #0
 80009dc:	e000      	b.n	80009e0 <DHT22_IsReadingPlausible+0x58>
  }

  return 1U;
 80009de:	2301      	movs	r3, #1
}
 80009e0:	4618      	mov	r0, r3
 80009e2:	370c      	adds	r7, #12
 80009e4:	46bd      	mov	sp, r7
 80009e6:	f85d 7b04 	ldr.w	r7, [sp], #4
 80009ea:	4770      	bx	lr
 80009ec:	c2200000 	.word	0xc2200000
 80009f0:	42a00000 	.word	0x42a00000
 80009f4:	42c80000 	.word	0x42c80000

080009f8 <PredictMoldRisk>:
    float humidity_pct,
    uint32_t now,
    uint32_t elapsed_ms,
    float temp_delta_c,
    float humidity_delta_pct)
{
 80009f8:	b480      	push	{r7}
 80009fa:	b08d      	sub	sp, #52	@ 0x34
 80009fc:	af00      	add	r7, sp, #0
 80009fe:	ed87 0a05 	vstr	s0, [r7, #20]
 8000a02:	edc7 0a04 	vstr	s1, [r7, #16]
 8000a06:	60f8      	str	r0, [r7, #12]
 8000a08:	60b9      	str	r1, [r7, #8]
 8000a0a:	ed87 1a01 	vstr	s2, [r7, #4]
 8000a0e:	edc7 1a00 	vstr	s3, [r7]
  float temp_rate_c_per_ms = 0.0f;
 8000a12:	f04f 0300 	mov.w	r3, #0
 8000a16:	62bb      	str	r3, [r7, #40]	@ 0x28
  float humidity_rate_pct_per_ms = 0.0f;
 8000a18:	f04f 0300 	mov.w	r3, #0
 8000a1c:	627b      	str	r3, [r7, #36]	@ 0x24
  float predicted_temperature_c = temperature_c;
 8000a1e:	697b      	ldr	r3, [r7, #20]
 8000a20:	623b      	str	r3, [r7, #32]
  float predicted_humidity_pct = humidity_pct;
 8000a22:	693b      	ldr	r3, [r7, #16]
 8000a24:	61fb      	str	r3, [r7, #28]
  uint32_t reference_age_ms = 0U;
 8000a26:	2300      	movs	r3, #0
 8000a28:	61bb      	str	r3, [r7, #24]
  uint32_t prediction_horizon_ms = 0U;
 8000a2a:	2300      	movs	r3, #0
 8000a2c:	62fb      	str	r3, [r7, #44]	@ 0x2c

  if ((dht_trend_valid == 0U) || (elapsed_ms == 0U) || (climate_reference_valid == 0U))
 8000a2e:	4b62      	ldr	r3, [pc, #392]	@ (8000bb8 <PredictMoldRisk+0x1c0>)
 8000a30:	781b      	ldrb	r3, [r3, #0]
 8000a32:	2b00      	cmp	r3, #0
 8000a34:	d006      	beq.n	8000a44 <PredictMoldRisk+0x4c>
 8000a36:	68bb      	ldr	r3, [r7, #8]
 8000a38:	2b00      	cmp	r3, #0
 8000a3a:	d003      	beq.n	8000a44 <PredictMoldRisk+0x4c>
 8000a3c:	4b5f      	ldr	r3, [pc, #380]	@ (8000bbc <PredictMoldRisk+0x1c4>)
 8000a3e:	781b      	ldrb	r3, [r3, #0]
 8000a40:	2b00      	cmp	r3, #0
 8000a42:	d101      	bne.n	8000a48 <PredictMoldRisk+0x50>
  {
    return 0U;
 8000a44:	2300      	movs	r3, #0
 8000a46:	e0b0      	b.n	8000baa <PredictMoldRisk+0x1b2>
  }

  if (mold_trend_rise_streak < CLIMATE_TREND_CONFIRM_SAMPLES)
 8000a48:	4b5d      	ldr	r3, [pc, #372]	@ (8000bc0 <PredictMoldRisk+0x1c8>)
 8000a4a:	781b      	ldrb	r3, [r3, #0]
 8000a4c:	2b01      	cmp	r3, #1
 8000a4e:	d801      	bhi.n	8000a54 <PredictMoldRisk+0x5c>
  {
    return 0U;
 8000a50:	2300      	movs	r3, #0
 8000a52:	e0aa      	b.n	8000baa <PredictMoldRisk+0x1b2>
  }

  if ((temp_delta_c < TEMP_TREND_NOISE_FLOOR_C) ||
 8000a54:	edd7 7a01 	vldr	s15, [r7, #4]
 8000a58:	ed9f 7a5a 	vldr	s14, [pc, #360]	@ 8000bc4 <PredictMoldRisk+0x1cc>
 8000a5c:	eef4 7ac7 	vcmpe.f32	s15, s14
 8000a60:	eef1 fa10 	vmrs	APSR_nzcv, fpscr
 8000a64:	d408      	bmi.n	8000a78 <PredictMoldRisk+0x80>
 8000a66:	edd7 7a00 	vldr	s15, [r7]
 8000a6a:	eeb6 7a00 	vmov.f32	s14, #96	@ 0x3f000000  0.5
 8000a6e:	eef4 7ac7 	vcmpe.f32	s15, s14
 8000a72:	eef1 fa10 	vmrs	APSR_nzcv, fpscr
 8000a76:	d501      	bpl.n	8000a7c <PredictMoldRisk+0x84>
      (humidity_delta_pct < HUMIDITY_TREND_NOISE_FLOOR_PCT))
  {
    return 0U;
 8000a78:	2300      	movs	r3, #0
 8000a7a:	e096      	b.n	8000baa <PredictMoldRisk+0x1b2>
  }

  temp_rate_c_per_ms = (temperature_c - last_temperature_sample_c) / (float)elapsed_ms;
 8000a7c:	4b52      	ldr	r3, [pc, #328]	@ (8000bc8 <PredictMoldRisk+0x1d0>)
 8000a7e:	edd3 7a00 	vldr	s15, [r3]
 8000a82:	ed97 7a05 	vldr	s14, [r7, #20]
 8000a86:	ee77 6a67 	vsub.f32	s13, s14, s15
 8000a8a:	68bb      	ldr	r3, [r7, #8]
 8000a8c:	ee07 3a90 	vmov	s15, r3
 8000a90:	eeb8 7a67 	vcvt.f32.u32	s14, s15
 8000a94:	eec6 7a87 	vdiv.f32	s15, s13, s14
 8000a98:	edc7 7a0a 	vstr	s15, [r7, #40]	@ 0x28
  humidity_rate_pct_per_ms = (humidity_pct - last_humidity_sample_pct) / (float)elapsed_ms;
 8000a9c:	4b4b      	ldr	r3, [pc, #300]	@ (8000bcc <PredictMoldRisk+0x1d4>)
 8000a9e:	edd3 7a00 	vldr	s15, [r3]
 8000aa2:	ed97 7a04 	vldr	s14, [r7, #16]
 8000aa6:	ee77 6a67 	vsub.f32	s13, s14, s15
 8000aaa:	68bb      	ldr	r3, [r7, #8]
 8000aac:	ee07 3a90 	vmov	s15, r3
 8000ab0:	eeb8 7a67 	vcvt.f32.u32	s14, s15
 8000ab4:	eec6 7a87 	vdiv.f32	s15, s13, s14
 8000ab8:	edc7 7a09 	vstr	s15, [r7, #36]	@ 0x24

  if ((temp_rate_c_per_ms <= 0.0f) || (humidity_rate_pct_per_ms <= 0.0f))
 8000abc:	edd7 7a0a 	vldr	s15, [r7, #40]	@ 0x28
 8000ac0:	eef5 7ac0 	vcmpe.f32	s15, #0.0
 8000ac4:	eef1 fa10 	vmrs	APSR_nzcv, fpscr
 8000ac8:	d906      	bls.n	8000ad8 <PredictMoldRisk+0xe0>
 8000aca:	edd7 7a09 	vldr	s15, [r7, #36]	@ 0x24
 8000ace:	eef5 7ac0 	vcmpe.f32	s15, #0.0
 8000ad2:	eef1 fa10 	vmrs	APSR_nzcv, fpscr
 8000ad6:	d801      	bhi.n	8000adc <PredictMoldRisk+0xe4>
  {
    return 0U;
 8000ad8:	2300      	movs	r3, #0
 8000ada:	e066      	b.n	8000baa <PredictMoldRisk+0x1b2>
  }

  reference_age_ms = now - climate_reference_tick;
 8000adc:	4b3c      	ldr	r3, [pc, #240]	@ (8000bd0 <PredictMoldRisk+0x1d8>)
 8000ade:	681b      	ldr	r3, [r3, #0]
 8000ae0:	68fa      	ldr	r2, [r7, #12]
 8000ae2:	1ad3      	subs	r3, r2, r3
 8000ae4:	61bb      	str	r3, [r7, #24]
  if (reference_age_ms >= CLIMATE_EVENT_WINDOW_MS)
 8000ae6:	69bb      	ldr	r3, [r7, #24]
 8000ae8:	f64e 225f 	movw	r2, #59999	@ 0xea5f
 8000aec:	4293      	cmp	r3, r2
 8000aee:	d901      	bls.n	8000af4 <PredictMoldRisk+0xfc>
  {
    return 0U;
 8000af0:	2300      	movs	r3, #0
 8000af2:	e05a      	b.n	8000baa <PredictMoldRisk+0x1b2>
  }

  prediction_horizon_ms = CLIMATE_EVENT_WINDOW_MS - reference_age_ms;
 8000af4:	69bb      	ldr	r3, [r7, #24]
 8000af6:	f5c3 436a 	rsb	r3, r3, #59904	@ 0xea00
 8000afa:	3360      	adds	r3, #96	@ 0x60
 8000afc:	62fb      	str	r3, [r7, #44]	@ 0x2c
  if (prediction_horizon_ms > MOLD_PREDICTION_LOOKAHEAD_MS)
 8000afe:	6afb      	ldr	r3, [r7, #44]	@ 0x2c
 8000b00:	4a34      	ldr	r2, [pc, #208]	@ (8000bd4 <PredictMoldRisk+0x1dc>)
 8000b02:	4293      	cmp	r3, r2
 8000b04:	d901      	bls.n	8000b0a <PredictMoldRisk+0x112>
  {
    prediction_horizon_ms = MOLD_PREDICTION_LOOKAHEAD_MS;
 8000b06:	4b33      	ldr	r3, [pc, #204]	@ (8000bd4 <PredictMoldRisk+0x1dc>)
 8000b08:	62fb      	str	r3, [r7, #44]	@ 0x2c
  }

  predicted_temperature_c += temp_rate_c_per_ms * (float)prediction_horizon_ms;
 8000b0a:	6afb      	ldr	r3, [r7, #44]	@ 0x2c
 8000b0c:	ee07 3a90 	vmov	s15, r3
 8000b10:	eeb8 7a67 	vcvt.f32.u32	s14, s15
 8000b14:	edd7 7a0a 	vldr	s15, [r7, #40]	@ 0x28
 8000b18:	ee67 7a27 	vmul.f32	s15, s14, s15
 8000b1c:	ed97 7a08 	vldr	s14, [r7, #32]
 8000b20:	ee77 7a27 	vadd.f32	s15, s14, s15
 8000b24:	edc7 7a08 	vstr	s15, [r7, #32]
  predicted_humidity_pct += humidity_rate_pct_per_ms * (float)prediction_horizon_ms;
 8000b28:	6afb      	ldr	r3, [r7, #44]	@ 0x2c
 8000b2a:	ee07 3a90 	vmov	s15, r3
 8000b2e:	eeb8 7a67 	vcvt.f32.u32	s14, s15
 8000b32:	edd7 7a09 	vldr	s15, [r7, #36]	@ 0x24
 8000b36:	ee67 7a27 	vmul.f32	s15, s14, s15
 8000b3a:	ed97 7a07 	vldr	s14, [r7, #28]
 8000b3e:	ee77 7a27 	vadd.f32	s15, s14, s15
 8000b42:	edc7 7a07 	vstr	s15, [r7, #28]

  return (uint8_t)(
      (predicted_temperature_c >= MOLD_TEMP_THRESHOLD_C) &&
      (predicted_humidity_pct >= MOLD_HUMIDITY_THRESHOLD_PCT) &&
      ((predicted_temperature_c - climate_reference_temperature_c) >= MOLD_TEMP_DELTA_C) &&
 8000b46:	edd7 7a08 	vldr	s15, [r7, #32]
 8000b4a:	eeb3 7a08 	vmov.f32	s14, #56	@ 0x41c00000  24.0
 8000b4e:	eef4 7ac7 	vcmpe.f32	s15, s14
 8000b52:	eef1 fa10 	vmrs	APSR_nzcv, fpscr
 8000b56:	db26      	blt.n	8000ba6 <PredictMoldRisk+0x1ae>
      (predicted_temperature_c >= MOLD_TEMP_THRESHOLD_C) &&
 8000b58:	edd7 7a07 	vldr	s15, [r7, #28]
 8000b5c:	ed9f 7a1e 	vldr	s14, [pc, #120]	@ 8000bd8 <PredictMoldRisk+0x1e0>
 8000b60:	eef4 7ac7 	vcmpe.f32	s15, s14
 8000b64:	eef1 fa10 	vmrs	APSR_nzcv, fpscr
 8000b68:	db1d      	blt.n	8000ba6 <PredictMoldRisk+0x1ae>
      ((predicted_temperature_c - climate_reference_temperature_c) >= MOLD_TEMP_DELTA_C) &&
 8000b6a:	4b1c      	ldr	r3, [pc, #112]	@ (8000bdc <PredictMoldRisk+0x1e4>)
 8000b6c:	edd3 7a00 	vldr	s15, [r3]
 8000b70:	ed97 7a08 	vldr	s14, [r7, #32]
 8000b74:	ee77 7a67 	vsub.f32	s15, s14, s15
      (predicted_humidity_pct >= MOLD_HUMIDITY_THRESHOLD_PCT) &&
 8000b78:	eeb0 7a00 	vmov.f32	s14, #0	@ 0x40000000  2.0
 8000b7c:	eef4 7ac7 	vcmpe.f32	s15, s14
 8000b80:	eef1 fa10 	vmrs	APSR_nzcv, fpscr
 8000b84:	db0f      	blt.n	8000ba6 <PredictMoldRisk+0x1ae>
      ((predicted_humidity_pct - climate_reference_humidity_pct) >= MOLD_HUMIDITY_DELTA_PCT));
 8000b86:	4b16      	ldr	r3, [pc, #88]	@ (8000be0 <PredictMoldRisk+0x1e8>)
 8000b88:	edd3 7a00 	vldr	s15, [r3]
 8000b8c:	ed97 7a07 	vldr	s14, [r7, #28]
 8000b90:	ee77 7a67 	vsub.f32	s15, s14, s15
      ((predicted_temperature_c - climate_reference_temperature_c) >= MOLD_TEMP_DELTA_C) &&
 8000b94:	eeb1 7a04 	vmov.f32	s14, #20	@ 0x40a00000  5.0
 8000b98:	eef4 7ac7 	vcmpe.f32	s15, s14
 8000b9c:	eef1 fa10 	vmrs	APSR_nzcv, fpscr
 8000ba0:	db01      	blt.n	8000ba6 <PredictMoldRisk+0x1ae>
 8000ba2:	2301      	movs	r3, #1
 8000ba4:	e000      	b.n	8000ba8 <PredictMoldRisk+0x1b0>
 8000ba6:	2300      	movs	r3, #0
  return (uint8_t)(
 8000ba8:	b2db      	uxtb	r3, r3
}
 8000baa:	4618      	mov	r0, r3
 8000bac:	3734      	adds	r7, #52	@ 0x34
 8000bae:	46bd      	mov	sp, r7
 8000bb0:	f85d 7b04 	ldr.w	r7, [sp], #4
 8000bb4:	4770      	bx	lr
 8000bb6:	bf00      	nop
 8000bb8:	200002bc 	.word	0x200002bc
 8000bbc:	200000f4 	.word	0x200000f4
 8000bc0:	200002bd 	.word	0x200002bd
 8000bc4:	3e4ccccd 	.word	0x3e4ccccd
 8000bc8:	200002b0 	.word	0x200002b0
 8000bcc:	200002b4 	.word	0x200002b4
 8000bd0:	200000f0 	.word	0x200000f0
 8000bd4:	0002bf20 	.word	0x0002bf20
 8000bd8:	42a00000 	.word	0x42a00000
 8000bdc:	200000e8 	.word	0x200000e8
 8000be0:	200000ec 	.word	0x200000ec

08000be4 <PredictFrostRisk>:
static uint8_t PredictFrostRisk(
    float temperature_c,
    uint32_t now,
    uint32_t elapsed_ms,
    float temp_delta_c)
{
 8000be4:	b480      	push	{r7}
 8000be6:	b089      	sub	sp, #36	@ 0x24
 8000be8:	af00      	add	r7, sp, #0
 8000bea:	ed87 0a03 	vstr	s0, [r7, #12]
 8000bee:	60b8      	str	r0, [r7, #8]
 8000bf0:	6079      	str	r1, [r7, #4]
 8000bf2:	edc7 0a00 	vstr	s1, [r7]
  float temp_rate_c_per_ms = 0.0f;
 8000bf6:	f04f 0300 	mov.w	r3, #0
 8000bfa:	61bb      	str	r3, [r7, #24]
  float predicted_temperature_c = temperature_c;
 8000bfc:	68fb      	ldr	r3, [r7, #12]
 8000bfe:	617b      	str	r3, [r7, #20]
  uint32_t reference_age_ms = 0U;
 8000c00:	2300      	movs	r3, #0
 8000c02:	613b      	str	r3, [r7, #16]
  uint32_t prediction_horizon_ms = 0U;
 8000c04:	2300      	movs	r3, #0
 8000c06:	61fb      	str	r3, [r7, #28]

  if ((dht_trend_valid == 0U) || (elapsed_ms == 0U) || (frost_reference_valid == 0U))
 8000c08:	4b39      	ldr	r3, [pc, #228]	@ (8000cf0 <PredictFrostRisk+0x10c>)
 8000c0a:	781b      	ldrb	r3, [r3, #0]
 8000c0c:	2b00      	cmp	r3, #0
 8000c0e:	d006      	beq.n	8000c1e <PredictFrostRisk+0x3a>
 8000c10:	687b      	ldr	r3, [r7, #4]
 8000c12:	2b00      	cmp	r3, #0
 8000c14:	d003      	beq.n	8000c1e <PredictFrostRisk+0x3a>
 8000c16:	4b37      	ldr	r3, [pc, #220]	@ (8000cf4 <PredictFrostRisk+0x110>)
 8000c18:	781b      	ldrb	r3, [r3, #0]
 8000c1a:	2b00      	cmp	r3, #0
 8000c1c:	d101      	bne.n	8000c22 <PredictFrostRisk+0x3e>
  {
    return 0U;
 8000c1e:	2300      	movs	r3, #0
 8000c20:	e060      	b.n	8000ce4 <PredictFrostRisk+0x100>
  }

  if (frost_trend_drop_streak < CLIMATE_TREND_CONFIRM_SAMPLES)
 8000c22:	4b35      	ldr	r3, [pc, #212]	@ (8000cf8 <PredictFrostRisk+0x114>)
 8000c24:	781b      	ldrb	r3, [r3, #0]
 8000c26:	2b01      	cmp	r3, #1
 8000c28:	d801      	bhi.n	8000c2e <PredictFrostRisk+0x4a>
  {
    return 0U;
 8000c2a:	2300      	movs	r3, #0
 8000c2c:	e05a      	b.n	8000ce4 <PredictFrostRisk+0x100>
  }

  if (temp_delta_c > (-TEMP_TREND_NOISE_FLOOR_C))
 8000c2e:	edd7 7a00 	vldr	s15, [r7]
 8000c32:	ed9f 7a32 	vldr	s14, [pc, #200]	@ 8000cfc <PredictFrostRisk+0x118>
 8000c36:	eef4 7ac7 	vcmpe.f32	s15, s14
 8000c3a:	eef1 fa10 	vmrs	APSR_nzcv, fpscr
 8000c3e:	dd01      	ble.n	8000c44 <PredictFrostRisk+0x60>
  {
    return 0U;
 8000c40:	2300      	movs	r3, #0
 8000c42:	e04f      	b.n	8000ce4 <PredictFrostRisk+0x100>
  }

  temp_rate_c_per_ms = (temperature_c - last_temperature_sample_c) / (float)elapsed_ms;
 8000c44:	4b2e      	ldr	r3, [pc, #184]	@ (8000d00 <PredictFrostRisk+0x11c>)
 8000c46:	edd3 7a00 	vldr	s15, [r3]
 8000c4a:	ed97 7a03 	vldr	s14, [r7, #12]
 8000c4e:	ee77 6a67 	vsub.f32	s13, s14, s15
 8000c52:	687b      	ldr	r3, [r7, #4]
 8000c54:	ee07 3a90 	vmov	s15, r3
 8000c58:	eeb8 7a67 	vcvt.f32.u32	s14, s15
 8000c5c:	eec6 7a87 	vdiv.f32	s15, s13, s14
 8000c60:	edc7 7a06 	vstr	s15, [r7, #24]
  if (temp_rate_c_per_ms >= 0.0f)
 8000c64:	edd7 7a06 	vldr	s15, [r7, #24]
 8000c68:	eef5 7ac0 	vcmpe.f32	s15, #0.0
 8000c6c:	eef1 fa10 	vmrs	APSR_nzcv, fpscr
 8000c70:	db01      	blt.n	8000c76 <PredictFrostRisk+0x92>
  {
    return 0U;
 8000c72:	2300      	movs	r3, #0
 8000c74:	e036      	b.n	8000ce4 <PredictFrostRisk+0x100>
  }

  reference_age_ms = now - frost_reference_tick;
 8000c76:	4b23      	ldr	r3, [pc, #140]	@ (8000d04 <PredictFrostRisk+0x120>)
 8000c78:	681b      	ldr	r3, [r3, #0]
 8000c7a:	68ba      	ldr	r2, [r7, #8]
 8000c7c:	1ad3      	subs	r3, r2, r3
 8000c7e:	613b      	str	r3, [r7, #16]
  if (reference_age_ms >= CLIMATE_EVENT_WINDOW_MS)
 8000c80:	693b      	ldr	r3, [r7, #16]
 8000c82:	f64e 225f 	movw	r2, #59999	@ 0xea5f
 8000c86:	4293      	cmp	r3, r2
 8000c88:	d901      	bls.n	8000c8e <PredictFrostRisk+0xaa>
  {
    return 0U;
 8000c8a:	2300      	movs	r3, #0
 8000c8c:	e02a      	b.n	8000ce4 <PredictFrostRisk+0x100>
  }

  prediction_horizon_ms = CLIMATE_EVENT_WINDOW_MS - reference_age_ms;
 8000c8e:	693b      	ldr	r3, [r7, #16]
 8000c90:	f5c3 436a 	rsb	r3, r3, #59904	@ 0xea00
 8000c94:	3360      	adds	r3, #96	@ 0x60
 8000c96:	61fb      	str	r3, [r7, #28]
  if (prediction_horizon_ms > FROST_PREDICTION_LOOKAHEAD_MS)
 8000c98:	69fb      	ldr	r3, [r7, #28]
 8000c9a:	4a1b      	ldr	r2, [pc, #108]	@ (8000d08 <PredictFrostRisk+0x124>)
 8000c9c:	4293      	cmp	r3, r2
 8000c9e:	d901      	bls.n	8000ca4 <PredictFrostRisk+0xc0>
  {
    prediction_horizon_ms = FROST_PREDICTION_LOOKAHEAD_MS;
 8000ca0:	4b19      	ldr	r3, [pc, #100]	@ (8000d08 <PredictFrostRisk+0x124>)
 8000ca2:	61fb      	str	r3, [r7, #28]
  }

  predicted_temperature_c += temp_rate_c_per_ms * (float)prediction_horizon_ms;
 8000ca4:	69fb      	ldr	r3, [r7, #28]
 8000ca6:	ee07 3a90 	vmov	s15, r3
 8000caa:	eeb8 7a67 	vcvt.f32.u32	s14, s15
 8000cae:	edd7 7a06 	vldr	s15, [r7, #24]
 8000cb2:	ee67 7a27 	vmul.f32	s15, s14, s15
 8000cb6:	ed97 7a05 	vldr	s14, [r7, #20]
 8000cba:	ee77 7a27 	vadd.f32	s15, s14, s15
 8000cbe:	edc7 7a05 	vstr	s15, [r7, #20]

  return (uint8_t)(
      (predicted_temperature_c <= (frost_reference_temperature_c - FROST_TRIGGER_DELTA_C)));
 8000cc2:	4b12      	ldr	r3, [pc, #72]	@ (8000d0c <PredictFrostRisk+0x128>)
 8000cc4:	edd3 7a00 	vldr	s15, [r3]
 8000cc8:	eeb0 7a00 	vmov.f32	s14, #0	@ 0x40000000  2.0
 8000ccc:	ee77 7ac7 	vsub.f32	s15, s15, s14
  return (uint8_t)(
 8000cd0:	ed97 7a05 	vldr	s14, [r7, #20]
 8000cd4:	eeb4 7ae7 	vcmpe.f32	s14, s15
 8000cd8:	eef1 fa10 	vmrs	APSR_nzcv, fpscr
 8000cdc:	bf94      	ite	ls
 8000cde:	2301      	movls	r3, #1
 8000ce0:	2300      	movhi	r3, #0
 8000ce2:	b2db      	uxtb	r3, r3
}
 8000ce4:	4618      	mov	r0, r3
 8000ce6:	3724      	adds	r7, #36	@ 0x24
 8000ce8:	46bd      	mov	sp, r7
 8000cea:	f85d 7b04 	ldr.w	r7, [sp], #4
 8000cee:	4770      	bx	lr
 8000cf0:	200002bc 	.word	0x200002bc
 8000cf4:	20000100 	.word	0x20000100
 8000cf8:	200002be 	.word	0x200002be
 8000cfc:	be4ccccd 	.word	0xbe4ccccd
 8000d00:	200002b0 	.word	0x200002b0
 8000d04:	200000fc 	.word	0x200000fc
 8000d08:	0002bf20 	.word	0x0002bf20
 8000d0c:	200000f8 	.word	0x200000f8

08000d10 <PredictFlowRisk>:

static uint8_t PredictFlowRisk(
    float flow_l_min,
    uint32_t elapsed_ms)
{
 8000d10:	b480      	push	{r7}
 8000d12:	b085      	sub	sp, #20
 8000d14:	af00      	add	r7, sp, #0
 8000d16:	ed87 0a01 	vstr	s0, [r7, #4]
 8000d1a:	6038      	str	r0, [r7, #0]
  float flow_rate_lpm_per_ms = 0.0f;
 8000d1c:	f04f 0300 	mov.w	r3, #0
 8000d20:	60fb      	str	r3, [r7, #12]
  float predicted_flow_l_min = flow_l_min;
 8000d22:	687b      	ldr	r3, [r7, #4]
 8000d24:	60bb      	str	r3, [r7, #8]

  if ((flow_trend_valid == 0U) || (elapsed_ms == 0U) || (flow_reference_valid == 0U))
 8000d26:	4b2d      	ldr	r3, [pc, #180]	@ (8000ddc <PredictFlowRisk+0xcc>)
 8000d28:	781b      	ldrb	r3, [r3, #0]
 8000d2a:	2b00      	cmp	r3, #0
 8000d2c:	d006      	beq.n	8000d3c <PredictFlowRisk+0x2c>
 8000d2e:	683b      	ldr	r3, [r7, #0]
 8000d30:	2b00      	cmp	r3, #0
 8000d32:	d003      	beq.n	8000d3c <PredictFlowRisk+0x2c>
 8000d34:	4b2a      	ldr	r3, [pc, #168]	@ (8000de0 <PredictFlowRisk+0xd0>)
 8000d36:	781b      	ldrb	r3, [r3, #0]
 8000d38:	2b00      	cmp	r3, #0
 8000d3a:	d101      	bne.n	8000d40 <PredictFlowRisk+0x30>
  {
    return 0U;
 8000d3c:	2300      	movs	r3, #0
 8000d3e:	e047      	b.n	8000dd0 <PredictFlowRisk+0xc0>
  }

  flow_rate_lpm_per_ms = (flow_l_min - last_flow_sample_l_min) / (float)elapsed_ms;
 8000d40:	4b28      	ldr	r3, [pc, #160]	@ (8000de4 <PredictFlowRisk+0xd4>)
 8000d42:	edd3 7a00 	vldr	s15, [r3]
 8000d46:	ed97 7a01 	vldr	s14, [r7, #4]
 8000d4a:	ee77 6a67 	vsub.f32	s13, s14, s15
 8000d4e:	683b      	ldr	r3, [r7, #0]
 8000d50:	ee07 3a90 	vmov	s15, r3
 8000d54:	eeb8 7a67 	vcvt.f32.u32	s14, s15
 8000d58:	eec6 7a87 	vdiv.f32	s15, s13, s14
 8000d5c:	edc7 7a03 	vstr	s15, [r7, #12]
  if (flow_rate_lpm_per_ms <= 0.0f)
 8000d60:	edd7 7a03 	vldr	s15, [r7, #12]
 8000d64:	eef5 7ac0 	vcmpe.f32	s15, #0.0
 8000d68:	eef1 fa10 	vmrs	APSR_nzcv, fpscr
 8000d6c:	d801      	bhi.n	8000d72 <PredictFlowRisk+0x62>
  {
    return 0U;
 8000d6e:	2300      	movs	r3, #0
 8000d70:	e02e      	b.n	8000dd0 <PredictFlowRisk+0xc0>
  }

  if (fabsf(flow_l_min - last_flow_sample_l_min) < FLOW_TREND_NOISE_FLOOR_LPM)
 8000d72:	4b1c      	ldr	r3, [pc, #112]	@ (8000de4 <PredictFlowRisk+0xd4>)
 8000d74:	edd3 7a00 	vldr	s15, [r3]
 8000d78:	ed97 7a01 	vldr	s14, [r7, #4]
 8000d7c:	ee77 7a67 	vsub.f32	s15, s14, s15
 8000d80:	eef0 7ae7 	vabs.f32	s15, s15
 8000d84:	ed9f 7a18 	vldr	s14, [pc, #96]	@ 8000de8 <PredictFlowRisk+0xd8>
 8000d88:	eef4 7ac7 	vcmpe.f32	s15, s14
 8000d8c:	eef1 fa10 	vmrs	APSR_nzcv, fpscr
 8000d90:	d501      	bpl.n	8000d96 <PredictFlowRisk+0x86>
  {
    return 0U;
 8000d92:	2300      	movs	r3, #0
 8000d94:	e01c      	b.n	8000dd0 <PredictFlowRisk+0xc0>
  }

  predicted_flow_l_min += flow_rate_lpm_per_ms * (float)FLOW_PREDICTION_LOOKAHEAD_MS;
 8000d96:	edd7 7a03 	vldr	s15, [r7, #12]
 8000d9a:	ed9f 7a14 	vldr	s14, [pc, #80]	@ 8000dec <PredictFlowRisk+0xdc>
 8000d9e:	ee67 7a87 	vmul.f32	s15, s15, s14
 8000da2:	ed97 7a02 	vldr	s14, [r7, #8]
 8000da6:	ee77 7a27 	vadd.f32	s15, s14, s15
 8000daa:	edc7 7a02 	vstr	s15, [r7, #8]
  return (uint8_t)(predicted_flow_l_min >= (flow_reference_l_min + FLOW_TRIGGER_DELTA_LPM));
 8000dae:	4b10      	ldr	r3, [pc, #64]	@ (8000df0 <PredictFlowRisk+0xe0>)
 8000db0:	edd3 7a00 	vldr	s15, [r3]
 8000db4:	eeb0 7a00 	vmov.f32	s14, #0	@ 0x40000000  2.0
 8000db8:	ee77 7a87 	vadd.f32	s15, s15, s14
 8000dbc:	ed97 7a02 	vldr	s14, [r7, #8]
 8000dc0:	eeb4 7ae7 	vcmpe.f32	s14, s15
 8000dc4:	eef1 fa10 	vmrs	APSR_nzcv, fpscr
 8000dc8:	bfac      	ite	ge
 8000dca:	2301      	movge	r3, #1
 8000dcc:	2300      	movlt	r3, #0
 8000dce:	b2db      	uxtb	r3, r3
}
 8000dd0:	4618      	mov	r0, r3
 8000dd2:	3714      	adds	r7, #20
 8000dd4:	46bd      	mov	sp, r7
 8000dd6:	f85d 7b04 	ldr.w	r7, [sp], #4
 8000dda:	4770      	bx	lr
 8000ddc:	200002c8 	.word	0x200002c8
 8000de0:	20000108 	.word	0x20000108
 8000de4:	200002c0 	.word	0x200002c0
 8000de8:	3e4ccccd 	.word	0x3e4ccccd
 8000dec:	46ea6000 	.word	0x46ea6000
 8000df0:	20000104 	.word	0x20000104

08000df4 <ESP_FlushRx>:

static void ESP_FlushRx(void)
{
 8000df4:	b580      	push	{r7, lr}
 8000df6:	b082      	sub	sp, #8
 8000df8:	af00      	add	r7, sp, #0
  uint8_t byte = 0U;
 8000dfa:	2300      	movs	r3, #0
 8000dfc:	71fb      	strb	r3, [r7, #7]

  while (HAL_UART_Receive(&huart2, &byte, 1U, 2U) == HAL_OK)
 8000dfe:	bf00      	nop
 8000e00:	1df9      	adds	r1, r7, #7
 8000e02:	2302      	movs	r3, #2
 8000e04:	2201      	movs	r2, #1
 8000e06:	4805      	ldr	r0, [pc, #20]	@ (8000e1c <ESP_FlushRx+0x28>)
 8000e08:	f003 fe81 	bl	8004b0e <HAL_UART_Receive>
 8000e0c:	4603      	mov	r3, r0
 8000e0e:	2b00      	cmp	r3, #0
 8000e10:	d0f6      	beq.n	8000e00 <ESP_FlushRx+0xc>
  {
  }
}
 8000e12:	bf00      	nop
 8000e14:	bf00      	nop
 8000e16:	3708      	adds	r7, #8
 8000e18:	46bd      	mov	sp, r7
 8000e1a:	bd80      	pop	{r7, pc}
 8000e1c:	20000078 	.word	0x20000078

08000e20 <ESP_WaitForResponse>:

static uint8_t ESP_WaitForResponse(const char *expected_ok, const char *expected_alt_ok, const char *expected_fail, uint32_t timeout_ms)
{
 8000e20:	b580      	push	{r7, lr}
 8000e22:	b088      	sub	sp, #32
 8000e24:	af00      	add	r7, sp, #0
 8000e26:	60f8      	str	r0, [r7, #12]
 8000e28:	60b9      	str	r1, [r7, #8]
 8000e2a:	607a      	str	r2, [r7, #4]
 8000e2c:	603b      	str	r3, [r7, #0]
  uint8_t byte = 0U;
 8000e2e:	2300      	movs	r3, #0
 8000e30:	75fb      	strb	r3, [r7, #23]
  uint32_t start_tick = HAL_GetTick();
 8000e32:	f002 fdd1 	bl	80039d8 <HAL_GetTick>
 8000e36:	61b8      	str	r0, [r7, #24]
  size_t used = 0U;
 8000e38:	2300      	movs	r3, #0
 8000e3a:	61fb      	str	r3, [r7, #28]

  esp_rx_line[0] = '\0';
 8000e3c:	4b3a      	ldr	r3, [pc, #232]	@ (8000f28 <ESP_WaitForResponse+0x108>)
 8000e3e:	2200      	movs	r2, #0
 8000e40:	701a      	strb	r2, [r3, #0]

  while ((HAL_GetTick() - start_tick) < timeout_ms)
 8000e42:	e064      	b.n	8000f0e <ESP_WaitForResponse+0xee>
  {
    if (HAL_UART_Receive(&huart2, &byte, 1U, 1U) == HAL_OK)
 8000e44:	f107 0117 	add.w	r1, r7, #23
 8000e48:	2301      	movs	r3, #1
 8000e4a:	2201      	movs	r2, #1
 8000e4c:	4837      	ldr	r0, [pc, #220]	@ (8000f2c <ESP_WaitForResponse+0x10c>)
 8000e4e:	f003 fe5e 	bl	8004b0e <HAL_UART_Receive>
 8000e52:	4603      	mov	r3, r0
 8000e54:	2b00      	cmp	r3, #0
 8000e56:	d158      	bne.n	8000f0a <ESP_WaitForResponse+0xea>
    {
      if (used < (ESP_RX_BUFFER_SIZE - 1U))
 8000e58:	69fb      	ldr	r3, [r7, #28]
 8000e5a:	f5b3 7fbf 	cmp.w	r3, #382	@ 0x17e
 8000e5e:	d806      	bhi.n	8000e6e <ESP_WaitForResponse+0x4e>
      {
        esp_rx_line[used++] = (char)byte;
 8000e60:	69fb      	ldr	r3, [r7, #28]
 8000e62:	1c5a      	adds	r2, r3, #1
 8000e64:	61fa      	str	r2, [r7, #28]
 8000e66:	7df9      	ldrb	r1, [r7, #23]
 8000e68:	4a2f      	ldr	r2, [pc, #188]	@ (8000f28 <ESP_WaitForResponse+0x108>)
 8000e6a:	54d1      	strb	r1, [r2, r3]
 8000e6c:	e00d      	b.n	8000e8a <ESP_WaitForResponse+0x6a>
      }
      else
      {
        memmove(esp_rx_line, esp_rx_line + 1, ESP_RX_BUFFER_SIZE - 2U);
 8000e6e:	4b30      	ldr	r3, [pc, #192]	@ (8000f30 <ESP_WaitForResponse+0x110>)
 8000e70:	f44f 72bf 	mov.w	r2, #382	@ 0x17e
 8000e74:	4619      	mov	r1, r3
 8000e76:	482c      	ldr	r0, [pc, #176]	@ (8000f28 <ESP_WaitForResponse+0x108>)
 8000e78:	f004 fa46 	bl	8005308 <memmove>
        esp_rx_line[ESP_RX_BUFFER_SIZE - 2U] = (char)byte;
 8000e7c:	7dfa      	ldrb	r2, [r7, #23]
 8000e7e:	4b2a      	ldr	r3, [pc, #168]	@ (8000f28 <ESP_WaitForResponse+0x108>)
 8000e80:	f883 217e 	strb.w	r2, [r3, #382]	@ 0x17e
        used = ESP_RX_BUFFER_SIZE - 1U;
 8000e84:	f240 137f 	movw	r3, #383	@ 0x17f
 8000e88:	61fb      	str	r3, [r7, #28]
      }

      esp_rx_line[used] = '\0';
 8000e8a:	4a27      	ldr	r2, [pc, #156]	@ (8000f28 <ESP_WaitForResponse+0x108>)
 8000e8c:	69fb      	ldr	r3, [r7, #28]
 8000e8e:	4413      	add	r3, r2
 8000e90:	2200      	movs	r2, #0
 8000e92:	701a      	strb	r2, [r3, #0]

      if ((expected_ok != NULL) && (strstr(esp_rx_line, expected_ok) != NULL))
 8000e94:	68fb      	ldr	r3, [r7, #12]
 8000e96:	2b00      	cmp	r3, #0
 8000e98:	d008      	beq.n	8000eac <ESP_WaitForResponse+0x8c>
 8000e9a:	68f9      	ldr	r1, [r7, #12]
 8000e9c:	4822      	ldr	r0, [pc, #136]	@ (8000f28 <ESP_WaitForResponse+0x108>)
 8000e9e:	f004 fa67 	bl	8005370 <strstr>
 8000ea2:	4603      	mov	r3, r0
 8000ea4:	2b00      	cmp	r3, #0
 8000ea6:	d001      	beq.n	8000eac <ESP_WaitForResponse+0x8c>
      {
        return 1U;
 8000ea8:	2301      	movs	r3, #1
 8000eaa:	e039      	b.n	8000f20 <ESP_WaitForResponse+0x100>
      }

      if ((expected_alt_ok != NULL) && (strstr(esp_rx_line, expected_alt_ok) != NULL))
 8000eac:	68bb      	ldr	r3, [r7, #8]
 8000eae:	2b00      	cmp	r3, #0
 8000eb0:	d008      	beq.n	8000ec4 <ESP_WaitForResponse+0xa4>
 8000eb2:	68b9      	ldr	r1, [r7, #8]
 8000eb4:	481c      	ldr	r0, [pc, #112]	@ (8000f28 <ESP_WaitForResponse+0x108>)
 8000eb6:	f004 fa5b 	bl	8005370 <strstr>
 8000eba:	4603      	mov	r3, r0
 8000ebc:	2b00      	cmp	r3, #0
 8000ebe:	d001      	beq.n	8000ec4 <ESP_WaitForResponse+0xa4>
      {
        return 1U;
 8000ec0:	2301      	movs	r3, #1
 8000ec2:	e02d      	b.n	8000f20 <ESP_WaitForResponse+0x100>
      }

      if ((expected_fail != NULL) && (strstr(esp_rx_line, expected_fail) != NULL))
 8000ec4:	687b      	ldr	r3, [r7, #4]
 8000ec6:	2b00      	cmp	r3, #0
 8000ec8:	d008      	beq.n	8000edc <ESP_WaitForResponse+0xbc>
 8000eca:	6879      	ldr	r1, [r7, #4]
 8000ecc:	4816      	ldr	r0, [pc, #88]	@ (8000f28 <ESP_WaitForResponse+0x108>)
 8000ece:	f004 fa4f 	bl	8005370 <strstr>
 8000ed2:	4603      	mov	r3, r0
 8000ed4:	2b00      	cmp	r3, #0
 8000ed6:	d001      	beq.n	8000edc <ESP_WaitForResponse+0xbc>
      {
        return 0U;
 8000ed8:	2300      	movs	r3, #0
 8000eda:	e021      	b.n	8000f20 <ESP_WaitForResponse+0x100>
      }

      if ((strstr(esp_rx_line, "busy") != NULL) ||
 8000edc:	4915      	ldr	r1, [pc, #84]	@ (8000f34 <ESP_WaitForResponse+0x114>)
 8000ede:	4812      	ldr	r0, [pc, #72]	@ (8000f28 <ESP_WaitForResponse+0x108>)
 8000ee0:	f004 fa46 	bl	8005370 <strstr>
 8000ee4:	4603      	mov	r3, r0
 8000ee6:	2b00      	cmp	r3, #0
 8000ee8:	d10d      	bne.n	8000f06 <ESP_WaitForResponse+0xe6>
          (strstr(esp_rx_line, "SEND FAIL") != NULL) ||
 8000eea:	4913      	ldr	r1, [pc, #76]	@ (8000f38 <ESP_WaitForResponse+0x118>)
 8000eec:	480e      	ldr	r0, [pc, #56]	@ (8000f28 <ESP_WaitForResponse+0x108>)
 8000eee:	f004 fa3f 	bl	8005370 <strstr>
 8000ef2:	4603      	mov	r3, r0
      if ((strstr(esp_rx_line, "busy") != NULL) ||
 8000ef4:	2b00      	cmp	r3, #0
 8000ef6:	d106      	bne.n	8000f06 <ESP_WaitForResponse+0xe6>
          (strstr(esp_rx_line, "link is not valid") != NULL))
 8000ef8:	4910      	ldr	r1, [pc, #64]	@ (8000f3c <ESP_WaitForResponse+0x11c>)
 8000efa:	480b      	ldr	r0, [pc, #44]	@ (8000f28 <ESP_WaitForResponse+0x108>)
 8000efc:	f004 fa38 	bl	8005370 <strstr>
 8000f00:	4603      	mov	r3, r0
          (strstr(esp_rx_line, "SEND FAIL") != NULL) ||
 8000f02:	2b00      	cmp	r3, #0
 8000f04:	d001      	beq.n	8000f0a <ESP_WaitForResponse+0xea>
      {
        return 0U;
 8000f06:	2300      	movs	r3, #0
 8000f08:	e00a      	b.n	8000f20 <ESP_WaitForResponse+0x100>
      }
    }

    Sensors_Service();
 8000f0a:	f7ff fb73 	bl	80005f4 <Sensors_Service>
  while ((HAL_GetTick() - start_tick) < timeout_ms)
 8000f0e:	f002 fd63 	bl	80039d8 <HAL_GetTick>
 8000f12:	4602      	mov	r2, r0
 8000f14:	69bb      	ldr	r3, [r7, #24]
 8000f16:	1ad3      	subs	r3, r2, r3
 8000f18:	683a      	ldr	r2, [r7, #0]
 8000f1a:	429a      	cmp	r2, r3
 8000f1c:	d892      	bhi.n	8000e44 <ESP_WaitForResponse+0x24>
  }

  return 0U;
 8000f1e:	2300      	movs	r3, #0
}
 8000f20:	4618      	mov	r0, r3
 8000f22:	3720      	adds	r7, #32
 8000f24:	46bd      	mov	sp, r7
 8000f26:	bd80      	pop	{r7, pc}
 8000f28:	20000114 	.word	0x20000114
 8000f2c:	20000078 	.word	0x20000078
 8000f30:	20000115 	.word	0x20000115
 8000f34:	08005c6c 	.word	0x08005c6c
 8000f38:	08005c74 	.word	0x08005c74
 8000f3c:	08005c80 	.word	0x08005c80

08000f40 <ESP_SendCommandAndWait>:

static uint8_t ESP_SendCommandAndWait(const char *command, const char *expected_ok, const char *expected_alt_ok, const char *expected_fail, uint32_t timeout_ms)
{
 8000f40:	b580      	push	{r7, lr}
 8000f42:	b084      	sub	sp, #16
 8000f44:	af00      	add	r7, sp, #0
 8000f46:	60f8      	str	r0, [r7, #12]
 8000f48:	60b9      	str	r1, [r7, #8]
 8000f4a:	607a      	str	r2, [r7, #4]
 8000f4c:	603b      	str	r3, [r7, #0]
  ESP_FlushRx();
 8000f4e:	f7ff ff51 	bl	8000df4 <ESP_FlushRx>

  if (HAL_UART_Transmit(&huart2, (uint8_t *)command, strlen(command), 1000U) != HAL_OK)
 8000f52:	68f8      	ldr	r0, [r7, #12]
 8000f54:	f7ff f93c 	bl	80001d0 <strlen>
 8000f58:	4603      	mov	r3, r0
 8000f5a:	b29a      	uxth	r2, r3
 8000f5c:	f44f 737a 	mov.w	r3, #1000	@ 0x3e8
 8000f60:	68f9      	ldr	r1, [r7, #12]
 8000f62:	4809      	ldr	r0, [pc, #36]	@ (8000f88 <ESP_SendCommandAndWait+0x48>)
 8000f64:	f003 fd48 	bl	80049f8 <HAL_UART_Transmit>
 8000f68:	4603      	mov	r3, r0
 8000f6a:	2b00      	cmp	r3, #0
 8000f6c:	d001      	beq.n	8000f72 <ESP_SendCommandAndWait+0x32>
  {
    return 0U;
 8000f6e:	2300      	movs	r3, #0
 8000f70:	e006      	b.n	8000f80 <ESP_SendCommandAndWait+0x40>
  }

  return ESP_WaitForResponse(expected_ok, expected_alt_ok, expected_fail, timeout_ms);
 8000f72:	69bb      	ldr	r3, [r7, #24]
 8000f74:	683a      	ldr	r2, [r7, #0]
 8000f76:	6879      	ldr	r1, [r7, #4]
 8000f78:	68b8      	ldr	r0, [r7, #8]
 8000f7a:	f7ff ff51 	bl	8000e20 <ESP_WaitForResponse>
 8000f7e:	4603      	mov	r3, r0
}
 8000f80:	4618      	mov	r0, r3
 8000f82:	3710      	adds	r7, #16
 8000f84:	46bd      	mov	sp, r7
 8000f86:	bd80      	pop	{r7, pc}
 8000f88:	20000078 	.word	0x20000078

08000f8c <ESP_InitModule>:

static uint8_t ESP_InitModule(void)
{
 8000f8c:	b580      	push	{r7, lr}
 8000f8e:	b084      	sub	sp, #16
 8000f90:	af02      	add	r7, sp, #8
  uint8_t attempt = 0U;
 8000f92:	2300      	movs	r3, #0
 8000f94:	71fb      	strb	r3, [r7, #7]

  for (attempt = 0U; attempt < 5U; attempt++)
 8000f96:	2300      	movs	r3, #0
 8000f98:	71fb      	strb	r3, [r7, #7]
 8000f9a:	e011      	b.n	8000fc0 <ESP_InitModule+0x34>
  {
    if (ESP_SendCommandAndWait("AT\r\n", "OK", NULL, "ERROR", 600U) != 0U)
 8000f9c:	f44f 7316 	mov.w	r3, #600	@ 0x258
 8000fa0:	9300      	str	r3, [sp, #0]
 8000fa2:	4b2b      	ldr	r3, [pc, #172]	@ (8001050 <ESP_InitModule+0xc4>)
 8000fa4:	2200      	movs	r2, #0
 8000fa6:	492b      	ldr	r1, [pc, #172]	@ (8001054 <ESP_InitModule+0xc8>)
 8000fa8:	482b      	ldr	r0, [pc, #172]	@ (8001058 <ESP_InitModule+0xcc>)
 8000faa:	f7ff ffc9 	bl	8000f40 <ESP_SendCommandAndWait>
 8000fae:	4603      	mov	r3, r0
 8000fb0:	2b00      	cmp	r3, #0
 8000fb2:	d109      	bne.n	8000fc8 <ESP_InitModule+0x3c>
    {
      break;
    }

    ServiceDelay(100U);
 8000fb4:	2064      	movs	r0, #100	@ 0x64
 8000fb6:	f000 f961 	bl	800127c <ServiceDelay>
  for (attempt = 0U; attempt < 5U; attempt++)
 8000fba:	79fb      	ldrb	r3, [r7, #7]
 8000fbc:	3301      	adds	r3, #1
 8000fbe:	71fb      	strb	r3, [r7, #7]
 8000fc0:	79fb      	ldrb	r3, [r7, #7]
 8000fc2:	2b04      	cmp	r3, #4
 8000fc4:	d9ea      	bls.n	8000f9c <ESP_InitModule+0x10>
 8000fc6:	e000      	b.n	8000fca <ESP_InitModule+0x3e>
      break;
 8000fc8:	bf00      	nop
  }

  if (attempt == 5U)
 8000fca:	79fb      	ldrb	r3, [r7, #7]
 8000fcc:	2b05      	cmp	r3, #5
 8000fce:	d101      	bne.n	8000fd4 <ESP_InitModule+0x48>
  {
    return 0U;
 8000fd0:	2300      	movs	r3, #0
 8000fd2:	e038      	b.n	8001046 <ESP_InitModule+0xba>
  }

  if (ESP_SendCommandAndWait("ATE0\r\n", "OK", NULL, "ERROR", 600U) == 0U)
 8000fd4:	f44f 7316 	mov.w	r3, #600	@ 0x258
 8000fd8:	9300      	str	r3, [sp, #0]
 8000fda:	4b1d      	ldr	r3, [pc, #116]	@ (8001050 <ESP_InitModule+0xc4>)
 8000fdc:	2200      	movs	r2, #0
 8000fde:	491d      	ldr	r1, [pc, #116]	@ (8001054 <ESP_InitModule+0xc8>)
 8000fe0:	481e      	ldr	r0, [pc, #120]	@ (800105c <ESP_InitModule+0xd0>)
 8000fe2:	f7ff ffad 	bl	8000f40 <ESP_SendCommandAndWait>
 8000fe6:	4603      	mov	r3, r0
 8000fe8:	2b00      	cmp	r3, #0
 8000fea:	d101      	bne.n	8000ff0 <ESP_InitModule+0x64>
  {
    return 0U;
 8000fec:	2300      	movs	r3, #0
 8000fee:	e02a      	b.n	8001046 <ESP_InitModule+0xba>
  }

  if (ESP_SendCommandAndWait("AT+CWMODE=1\r\n", "OK", "no change", "ERROR", 600U) == 0U)
 8000ff0:	f44f 7316 	mov.w	r3, #600	@ 0x258
 8000ff4:	9300      	str	r3, [sp, #0]
 8000ff6:	4b16      	ldr	r3, [pc, #88]	@ (8001050 <ESP_InitModule+0xc4>)
 8000ff8:	4a19      	ldr	r2, [pc, #100]	@ (8001060 <ESP_InitModule+0xd4>)
 8000ffa:	4916      	ldr	r1, [pc, #88]	@ (8001054 <ESP_InitModule+0xc8>)
 8000ffc:	4819      	ldr	r0, [pc, #100]	@ (8001064 <ESP_InitModule+0xd8>)
 8000ffe:	f7ff ff9f 	bl	8000f40 <ESP_SendCommandAndWait>
 8001002:	4603      	mov	r3, r0
 8001004:	2b00      	cmp	r3, #0
 8001006:	d101      	bne.n	800100c <ESP_InitModule+0x80>
  {
    return 0U;
 8001008:	2300      	movs	r3, #0
 800100a:	e01c      	b.n	8001046 <ESP_InitModule+0xba>
  }

  if (ESP_SendCommandAndWait(
 800100c:	f642 63e0 	movw	r3, #12000	@ 0x2ee0
 8001010:	9300      	str	r3, [sp, #0]
 8001012:	4b15      	ldr	r3, [pc, #84]	@ (8001068 <ESP_InitModule+0xdc>)
 8001014:	4a0f      	ldr	r2, [pc, #60]	@ (8001054 <ESP_InitModule+0xc8>)
 8001016:	4915      	ldr	r1, [pc, #84]	@ (800106c <ESP_InitModule+0xe0>)
 8001018:	4815      	ldr	r0, [pc, #84]	@ (8001070 <ESP_InitModule+0xe4>)
 800101a:	f7ff ff91 	bl	8000f40 <ESP_SendCommandAndWait>
 800101e:	4603      	mov	r3, r0
 8001020:	2b00      	cmp	r3, #0
 8001022:	d101      	bne.n	8001028 <ESP_InitModule+0x9c>
          "WIFI GOT IP",
          "OK",
          "FAIL",
          12000U) == 0U)
  {
    return 0U;
 8001024:	2300      	movs	r3, #0
 8001026:	e00e      	b.n	8001046 <ESP_InitModule+0xba>
  }

  if (ESP_SendCommandAndWait("AT+CIPMUX=0\r\n", "OK", "no change", "ERROR", 600U) == 0U)
 8001028:	f44f 7316 	mov.w	r3, #600	@ 0x258
 800102c:	9300      	str	r3, [sp, #0]
 800102e:	4b08      	ldr	r3, [pc, #32]	@ (8001050 <ESP_InitModule+0xc4>)
 8001030:	4a0b      	ldr	r2, [pc, #44]	@ (8001060 <ESP_InitModule+0xd4>)
 8001032:	4908      	ldr	r1, [pc, #32]	@ (8001054 <ESP_InitModule+0xc8>)
 8001034:	480f      	ldr	r0, [pc, #60]	@ (8001074 <ESP_InitModule+0xe8>)
 8001036:	f7ff ff83 	bl	8000f40 <ESP_SendCommandAndWait>
 800103a:	4603      	mov	r3, r0
 800103c:	2b00      	cmp	r3, #0
 800103e:	d101      	bne.n	8001044 <ESP_InitModule+0xb8>
  {
    return 0U;
 8001040:	2300      	movs	r3, #0
 8001042:	e000      	b.n	8001046 <ESP_InitModule+0xba>
  }

  return 1U;
 8001044:	2301      	movs	r3, #1
}
 8001046:	4618      	mov	r0, r3
 8001048:	3708      	adds	r7, #8
 800104a:	46bd      	mov	sp, r7
 800104c:	bd80      	pop	{r7, pc}
 800104e:	bf00      	nop
 8001050:	08005c94 	.word	0x08005c94
 8001054:	08005c9c 	.word	0x08005c9c
 8001058:	08005ca0 	.word	0x08005ca0
 800105c:	08005ca8 	.word	0x08005ca8
 8001060:	08005cb0 	.word	0x08005cb0
 8001064:	08005cbc 	.word	0x08005cbc
 8001068:	08005ccc 	.word	0x08005ccc
 800106c:	08005cd4 	.word	0x08005cd4
 8001070:	08005ce0 	.word	0x08005ce0
 8001074:	08005d04 	.word	0x08005d04

08001078 <ESP_EnsureTcpConnected>:

static uint8_t ESP_EnsureTcpConnected(void)
{
 8001078:	b580      	push	{r7, lr}
 800107a:	b082      	sub	sp, #8
 800107c:	af02      	add	r7, sp, #8
  if (esp_tcp_connected != 0U)
 800107e:	4b0d      	ldr	r3, [pc, #52]	@ (80010b4 <ESP_EnsureTcpConnected+0x3c>)
 8001080:	781b      	ldrb	r3, [r3, #0]
 8001082:	2b00      	cmp	r3, #0
 8001084:	d001      	beq.n	800108a <ESP_EnsureTcpConnected+0x12>
  {
    return 1U;
 8001086:	2301      	movs	r3, #1
 8001088:	e011      	b.n	80010ae <ESP_EnsureTcpConnected+0x36>
  }

  if (ESP_SendCommandAndWait("AT+CIPSTART=\"TCP\",\"192.168.4.1\",80\r\n",
 800108a:	f640 13c4 	movw	r3, #2500	@ 0x9c4
 800108e:	9300      	str	r3, [sp, #0]
 8001090:	4b09      	ldr	r3, [pc, #36]	@ (80010b8 <ESP_EnsureTcpConnected+0x40>)
 8001092:	4a0a      	ldr	r2, [pc, #40]	@ (80010bc <ESP_EnsureTcpConnected+0x44>)
 8001094:	490a      	ldr	r1, [pc, #40]	@ (80010c0 <ESP_EnsureTcpConnected+0x48>)
 8001096:	480b      	ldr	r0, [pc, #44]	@ (80010c4 <ESP_EnsureTcpConnected+0x4c>)
 8001098:	f7ff ff52 	bl	8000f40 <ESP_SendCommandAndWait>
 800109c:	4603      	mov	r3, r0
 800109e:	2b00      	cmp	r3, #0
 80010a0:	d101      	bne.n	80010a6 <ESP_EnsureTcpConnected+0x2e>
                             "CONNECT",
                             "ALREADY CONNECTED",
                             "ERROR",
                             2500U) == 0U)
  {
    return 0U;
 80010a2:	2300      	movs	r3, #0
 80010a4:	e003      	b.n	80010ae <ESP_EnsureTcpConnected+0x36>
  }

  esp_tcp_connected = 1U;
 80010a6:	4b03      	ldr	r3, [pc, #12]	@ (80010b4 <ESP_EnsureTcpConnected+0x3c>)
 80010a8:	2201      	movs	r2, #1
 80010aa:	701a      	strb	r2, [r3, #0]
  return 1U;
 80010ac:	2301      	movs	r3, #1
}
 80010ae:	4618      	mov	r0, r3
 80010b0:	46bd      	mov	sp, r7
 80010b2:	bd80      	pop	{r7, pc}
 80010b4:	20000110 	.word	0x20000110
 80010b8:	08005c94 	.word	0x08005c94
 80010bc:	08005d14 	.word	0x08005d14
 80010c0:	08005d28 	.word	0x08005d28
 80010c4:	08005d30 	.word	0x08005d30

080010c8 <ESP_RecoverLink>:

static void ESP_RecoverLink(void)
{
 80010c8:	b580      	push	{r7, lr}
 80010ca:	b082      	sub	sp, #8
 80010cc:	af02      	add	r7, sp, #8
  esp_tcp_connected = 0U;
 80010ce:	4b0e      	ldr	r3, [pc, #56]	@ (8001108 <ESP_RecoverLink+0x40>)
 80010d0:	2200      	movs	r2, #0
 80010d2:	701a      	strb	r2, [r3, #0]
  (void)ESP_SendCommandAndWait("AT+CIPCLOSE\r\n", "OK", "ERROR", "FAIL", 500U);
 80010d4:	f44f 73fa 	mov.w	r3, #500	@ 0x1f4
 80010d8:	9300      	str	r3, [sp, #0]
 80010da:	4b0c      	ldr	r3, [pc, #48]	@ (800110c <ESP_RecoverLink+0x44>)
 80010dc:	4a0c      	ldr	r2, [pc, #48]	@ (8001110 <ESP_RecoverLink+0x48>)
 80010de:	490d      	ldr	r1, [pc, #52]	@ (8001114 <ESP_RecoverLink+0x4c>)
 80010e0:	480d      	ldr	r0, [pc, #52]	@ (8001118 <ESP_RecoverLink+0x50>)
 80010e2:	f7ff ff2d 	bl	8000f40 <ESP_SendCommandAndWait>

  if (ESP_EnsureTcpConnected() != 0U)
 80010e6:	f7ff ffc7 	bl	8001078 <ESP_EnsureTcpConnected>
 80010ea:	4603      	mov	r3, r0
 80010ec:	2b00      	cmp	r3, #0
 80010ee:	d107      	bne.n	8001100 <ESP_RecoverLink+0x38>
  {
    return;
  }

  if (ESP_InitModule() != 0U)
 80010f0:	f7ff ff4c 	bl	8000f8c <ESP_InitModule>
 80010f4:	4603      	mov	r3, r0
 80010f6:	2b00      	cmp	r3, #0
 80010f8:	d003      	beq.n	8001102 <ESP_RecoverLink+0x3a>
  {
    (void)ESP_EnsureTcpConnected();
 80010fa:	f7ff ffbd 	bl	8001078 <ESP_EnsureTcpConnected>
 80010fe:	e000      	b.n	8001102 <ESP_RecoverLink+0x3a>
    return;
 8001100:	bf00      	nop
  }
}
 8001102:	46bd      	mov	sp, r7
 8001104:	bd80      	pop	{r7, pc}
 8001106:	bf00      	nop
 8001108:	20000110 	.word	0x20000110
 800110c:	08005ccc 	.word	0x08005ccc
 8001110:	08005c94 	.word	0x08005c94
 8001114:	08005c9c 	.word	0x08005c9c
 8001118:	08005d58 	.word	0x08005d58

0800111c <ESP_SendPayload>:

static uint8_t ESP_SendPayload(const char *payload)
{
 800111c:	b580      	push	{r7, lr}
 800111e:	b08e      	sub	sp, #56	@ 0x38
 8001120:	af02      	add	r7, sp, #8
 8001122:	6078      	str	r0, [r7, #4]
  char cmd_send[32];
  size_t payload_len = strlen(payload);
 8001124:	6878      	ldr	r0, [r7, #4]
 8001126:	f7ff f853 	bl	80001d0 <strlen>
 800112a:	62f8      	str	r0, [r7, #44]	@ 0x2c

  if (ESP_EnsureTcpConnected() == 0U)
 800112c:	f7ff ffa4 	bl	8001078 <ESP_EnsureTcpConnected>
 8001130:	4603      	mov	r3, r0
 8001132:	2b00      	cmp	r3, #0
 8001134:	d101      	bne.n	800113a <ESP_SendPayload+0x1e>
  {
    return 0U;
 8001136:	2300      	movs	r3, #0
 8001138:	e044      	b.n	80011c4 <ESP_SendPayload+0xa8>
  }

  snprintf(cmd_send, sizeof(cmd_send), "AT+CIPSEND=%lu\r\n", (unsigned long)payload_len);
 800113a:	f107 000c 	add.w	r0, r7, #12
 800113e:	6afb      	ldr	r3, [r7, #44]	@ 0x2c
 8001140:	4a22      	ldr	r2, [pc, #136]	@ (80011cc <ESP_SendPayload+0xb0>)
 8001142:	2120      	movs	r1, #32
 8001144:	f004 f8aa 	bl	800529c <sniprintf>

  if (ESP_SendCommandAndWait(cmd_send, ">", NULL, "ERROR", 1000U) == 0U)
 8001148:	f107 000c 	add.w	r0, r7, #12
 800114c:	f44f 737a 	mov.w	r3, #1000	@ 0x3e8
 8001150:	9300      	str	r3, [sp, #0]
 8001152:	4b1f      	ldr	r3, [pc, #124]	@ (80011d0 <ESP_SendPayload+0xb4>)
 8001154:	2200      	movs	r2, #0
 8001156:	491f      	ldr	r1, [pc, #124]	@ (80011d4 <ESP_SendPayload+0xb8>)
 8001158:	f7ff fef2 	bl	8000f40 <ESP_SendCommandAndWait>
 800115c:	4603      	mov	r3, r0
 800115e:	2b00      	cmp	r3, #0
 8001160:	d104      	bne.n	800116c <ESP_SendPayload+0x50>
  {
    esp_tcp_connected = 0U;
 8001162:	4b1d      	ldr	r3, [pc, #116]	@ (80011d8 <ESP_SendPayload+0xbc>)
 8001164:	2200      	movs	r2, #0
 8001166:	701a      	strb	r2, [r3, #0]
    return 0U;
 8001168:	2300      	movs	r3, #0
 800116a:	e02b      	b.n	80011c4 <ESP_SendPayload+0xa8>
  }

  ESP_FlushRx();
 800116c:	f7ff fe42 	bl	8000df4 <ESP_FlushRx>

  if (HAL_UART_Transmit(&huart2, (uint8_t *)payload, payload_len, 1000U) != HAL_OK)
 8001170:	6afb      	ldr	r3, [r7, #44]	@ 0x2c
 8001172:	b29a      	uxth	r2, r3
 8001174:	f44f 737a 	mov.w	r3, #1000	@ 0x3e8
 8001178:	6879      	ldr	r1, [r7, #4]
 800117a:	4818      	ldr	r0, [pc, #96]	@ (80011dc <ESP_SendPayload+0xc0>)
 800117c:	f003 fc3c 	bl	80049f8 <HAL_UART_Transmit>
 8001180:	4603      	mov	r3, r0
 8001182:	2b00      	cmp	r3, #0
 8001184:	d004      	beq.n	8001190 <ESP_SendPayload+0x74>
  {
    esp_tcp_connected = 0U;
 8001186:	4b14      	ldr	r3, [pc, #80]	@ (80011d8 <ESP_SendPayload+0xbc>)
 8001188:	2200      	movs	r2, #0
 800118a:	701a      	strb	r2, [r3, #0]
    return 0U;
 800118c:	2300      	movs	r3, #0
 800118e:	e019      	b.n	80011c4 <ESP_SendPayload+0xa8>
  }

  if (ESP_WaitForResponse("SEND OK", NULL, "ERROR", 1200U) == 0U)
 8001190:	f44f 6396 	mov.w	r3, #1200	@ 0x4b0
 8001194:	4a0e      	ldr	r2, [pc, #56]	@ (80011d0 <ESP_SendPayload+0xb4>)
 8001196:	2100      	movs	r1, #0
 8001198:	4811      	ldr	r0, [pc, #68]	@ (80011e0 <ESP_SendPayload+0xc4>)
 800119a:	f7ff fe41 	bl	8000e20 <ESP_WaitForResponse>
 800119e:	4603      	mov	r3, r0
 80011a0:	2b00      	cmp	r3, #0
 80011a2:	d104      	bne.n	80011ae <ESP_SendPayload+0x92>
  {
    esp_tcp_connected = 0U;
 80011a4:	4b0c      	ldr	r3, [pc, #48]	@ (80011d8 <ESP_SendPayload+0xbc>)
 80011a6:	2200      	movs	r2, #0
 80011a8:	701a      	strb	r2, [r3, #0]
    return 0U;
 80011aa:	2300      	movs	r3, #0
 80011ac:	e00a      	b.n	80011c4 <ESP_SendPayload+0xa8>
  }

  if (strstr(esp_rx_line, "CLOSED") != NULL)
 80011ae:	490d      	ldr	r1, [pc, #52]	@ (80011e4 <ESP_SendPayload+0xc8>)
 80011b0:	480d      	ldr	r0, [pc, #52]	@ (80011e8 <ESP_SendPayload+0xcc>)
 80011b2:	f004 f8dd 	bl	8005370 <strstr>
 80011b6:	4603      	mov	r3, r0
 80011b8:	2b00      	cmp	r3, #0
 80011ba:	d002      	beq.n	80011c2 <ESP_SendPayload+0xa6>
  {
    esp_tcp_connected = 0U;
 80011bc:	4b06      	ldr	r3, [pc, #24]	@ (80011d8 <ESP_SendPayload+0xbc>)
 80011be:	2200      	movs	r2, #0
 80011c0:	701a      	strb	r2, [r3, #0]
  }

  return 1U;
 80011c2:	2301      	movs	r3, #1
}
 80011c4:	4618      	mov	r0, r3
 80011c6:	3730      	adds	r7, #48	@ 0x30
 80011c8:	46bd      	mov	sp, r7
 80011ca:	bd80      	pop	{r7, pc}
 80011cc:	08005d68 	.word	0x08005d68
 80011d0:	08005c94 	.word	0x08005c94
 80011d4:	08005d7c 	.word	0x08005d7c
 80011d8:	20000110 	.word	0x20000110
 80011dc:	20000078 	.word	0x20000078
 80011e0:	08005d80 	.word	0x08005d80
 80011e4:	08005d88 	.word	0x08005d88
 80011e8:	20000114 	.word	0x20000114

080011ec <Telemetry_Service>:

static void Telemetry_Service(void)
{
 80011ec:	b580      	push	{r7, lr}
 80011ee:	b0e8      	sub	sp, #416	@ 0x1a0
 80011f0:	af02      	add	r7, sp, #8
  char data[100];
  char secure_packet[SECURE_TELEMETRY_MAX_PACKET_LEN];
  uint32_t now = HAL_GetTick();
 80011f2:	f002 fbf1 	bl	80039d8 <HAL_GetTick>
 80011f6:	f8c7 0194 	str.w	r0, [r7, #404]	@ 0x194

  if (climate_reference_valid == 0U)
 80011fa:	4b1d      	ldr	r3, [pc, #116]	@ (8001270 <Telemetry_Service+0x84>)
 80011fc:	781b      	ldrb	r3, [r3, #0]
 80011fe:	2b00      	cmp	r3, #0
 8001200:	d02d      	beq.n	800125e <Telemetry_Service+0x72>
  {
    return;
  }

  if ((now - telemetry_last_send_tick) < TELEMETRY_SEND_INTERVAL_MS)
 8001202:	4b1c      	ldr	r3, [pc, #112]	@ (8001274 <Telemetry_Service+0x88>)
 8001204:	681b      	ldr	r3, [r3, #0]
 8001206:	f8d7 2194 	ldr.w	r2, [r7, #404]	@ 0x194
 800120a:	1ad3      	subs	r3, r2, r3
 800120c:	f5b3 7f7a 	cmp.w	r3, #1000	@ 0x3e8
 8001210:	d327      	bcc.n	8001262 <Telemetry_Service+0x76>
  {
    return;
  }

  telemetry_last_send_tick = now;
 8001212:	4a18      	ldr	r2, [pc, #96]	@ (8001274 <Telemetry_Service+0x88>)
 8001214:	f8d7 3194 	ldr.w	r3, [r7, #404]	@ 0x194
 8001218:	6013      	str	r3, [r2, #0]

  BuildSensorPayload(data, sizeof(data));
 800121a:	f507 7398 	add.w	r3, r7, #304	@ 0x130
 800121e:	2164      	movs	r1, #100	@ 0x64
 8001220:	4618      	mov	r0, r3
 8001222:	f000 fce1 	bl	8001be8 <BuildSensorPayload>
  if (SecureTelemetry_Encode(
 8001226:	f507 7398 	add.w	r3, r7, #304	@ 0x130
 800122a:	4618      	mov	r0, r3
 800122c:	f7fe ffd0 	bl	80001d0 <strlen>
 8001230:	4601      	mov	r1, r0
 8001232:	463b      	mov	r3, r7
 8001234:	f507 7098 	add.w	r0, r7, #304	@ 0x130
 8001238:	f44f 7298 	mov.w	r2, #304	@ 0x130
 800123c:	9200      	str	r2, [sp, #0]
 800123e:	4a0e      	ldr	r2, [pc, #56]	@ (8001278 <Telemetry_Service+0x8c>)
 8001240:	f002 f886 	bl	8003350 <SecureTelemetry_Encode>
 8001244:	4603      	mov	r3, r0
 8001246:	2b00      	cmp	r3, #0
 8001248:	d00d      	beq.n	8001266 <Telemetry_Service+0x7a>
          sizeof(secure_packet)) == 0U)
  {
    return;
  }

  if (ESP_SendPayload(secure_packet) == 0U)
 800124a:	463b      	mov	r3, r7
 800124c:	4618      	mov	r0, r3
 800124e:	f7ff ff65 	bl	800111c <ESP_SendPayload>
 8001252:	4603      	mov	r3, r0
 8001254:	2b00      	cmp	r3, #0
 8001256:	d107      	bne.n	8001268 <Telemetry_Service+0x7c>
  {
    ESP_RecoverLink();
 8001258:	f7ff ff36 	bl	80010c8 <ESP_RecoverLink>
 800125c:	e004      	b.n	8001268 <Telemetry_Service+0x7c>
    return;
 800125e:	bf00      	nop
 8001260:	e002      	b.n	8001268 <Telemetry_Service+0x7c>
    return;
 8001262:	bf00      	nop
 8001264:	e000      	b.n	8001268 <Telemetry_Service+0x7c>
    return;
 8001266:	bf00      	nop
  }
}
 8001268:	f507 77cc 	add.w	r7, r7, #408	@ 0x198
 800126c:	46bd      	mov	sp, r7
 800126e:	bd80      	pop	{r7, pc}
 8001270:	200000f4 	.word	0x200000f4
 8001274:	2000010c 	.word	0x2000010c
 8001278:	08005d90 	.word	0x08005d90

0800127c <ServiceDelay>:

static void ServiceDelay(uint32_t delay_ms)
{
 800127c:	b580      	push	{r7, lr}
 800127e:	b086      	sub	sp, #24
 8001280:	af00      	add	r7, sp, #0
 8001282:	6078      	str	r0, [r7, #4]
  uint32_t start_tick = HAL_GetTick();
 8001284:	f002 fba8 	bl	80039d8 <HAL_GetTick>
 8001288:	6178      	str	r0, [r7, #20]

  while ((HAL_GetTick() - start_tick) < delay_ms)
 800128a:	e014      	b.n	80012b6 <ServiceDelay+0x3a>
  {
    uint32_t remaining = delay_ms - (HAL_GetTick() - start_tick);
 800128c:	f002 fba4 	bl	80039d8 <HAL_GetTick>
 8001290:	4602      	mov	r2, r0
 8001292:	697b      	ldr	r3, [r7, #20]
 8001294:	1a9b      	subs	r3, r3, r2
 8001296:	687a      	ldr	r2, [r7, #4]
 8001298:	4413      	add	r3, r2
 800129a:	613b      	str	r3, [r7, #16]
    uint32_t chunk = (remaining > 10U) ? 10U : remaining;
 800129c:	693b      	ldr	r3, [r7, #16]
 800129e:	2b0a      	cmp	r3, #10
 80012a0:	bf28      	it	cs
 80012a2:	230a      	movcs	r3, #10
 80012a4:	60fb      	str	r3, [r7, #12]

    Sensors_Service();
 80012a6:	f7ff f9a5 	bl	80005f4 <Sensors_Service>

    if (chunk > 0U)
 80012aa:	68fb      	ldr	r3, [r7, #12]
 80012ac:	2b00      	cmp	r3, #0
 80012ae:	d002      	beq.n	80012b6 <ServiceDelay+0x3a>
    {
      HAL_Delay(chunk);
 80012b0:	68f8      	ldr	r0, [r7, #12]
 80012b2:	f002 fb9d 	bl	80039f0 <HAL_Delay>
  while ((HAL_GetTick() - start_tick) < delay_ms)
 80012b6:	f002 fb8f 	bl	80039d8 <HAL_GetTick>
 80012ba:	4602      	mov	r2, r0
 80012bc:	697b      	ldr	r3, [r7, #20]
 80012be:	1ad3      	subs	r3, r2, r3
 80012c0:	687a      	ldr	r2, [r7, #4]
 80012c2:	429a      	cmp	r2, r3
 80012c4:	d8e2      	bhi.n	800128c <ServiceDelay+0x10>
    }
  }
}
 80012c6:	bf00      	nop
 80012c8:	bf00      	nop
 80012ca:	3718      	adds	r7, #24
 80012cc:	46bd      	mov	sp, r7
 80012ce:	bd80      	pop	{r7, pc}

080012d0 <DWT_Delay_Init>:

static void DWT_Delay_Init(void)
{
 80012d0:	b480      	push	{r7}
 80012d2:	af00      	add	r7, sp, #0
  CoreDebug->DEMCR |= CoreDebug_DEMCR_TRCENA_Msk;
 80012d4:	4b09      	ldr	r3, [pc, #36]	@ (80012fc <DWT_Delay_Init+0x2c>)
 80012d6:	68db      	ldr	r3, [r3, #12]
 80012d8:	4a08      	ldr	r2, [pc, #32]	@ (80012fc <DWT_Delay_Init+0x2c>)
 80012da:	f043 7380 	orr.w	r3, r3, #16777216	@ 0x1000000
 80012de:	60d3      	str	r3, [r2, #12]
  DWT->CYCCNT = 0U;
 80012e0:	4b07      	ldr	r3, [pc, #28]	@ (8001300 <DWT_Delay_Init+0x30>)
 80012e2:	2200      	movs	r2, #0
 80012e4:	605a      	str	r2, [r3, #4]
  DWT->CTRL |= DWT_CTRL_CYCCNTENA_Msk;
 80012e6:	4b06      	ldr	r3, [pc, #24]	@ (8001300 <DWT_Delay_Init+0x30>)
 80012e8:	681b      	ldr	r3, [r3, #0]
 80012ea:	4a05      	ldr	r2, [pc, #20]	@ (8001300 <DWT_Delay_Init+0x30>)
 80012ec:	f043 0301 	orr.w	r3, r3, #1
 80012f0:	6013      	str	r3, [r2, #0]
}
 80012f2:	bf00      	nop
 80012f4:	46bd      	mov	sp, r7
 80012f6:	f85d 7b04 	ldr.w	r7, [sp], #4
 80012fa:	4770      	bx	lr
 80012fc:	e000edf0 	.word	0xe000edf0
 8001300:	e0001000 	.word	0xe0001000

08001304 <DelayUs>:

static void DelayUs(uint32_t delay_us)
{
 8001304:	b480      	push	{r7}
 8001306:	b085      	sub	sp, #20
 8001308:	af00      	add	r7, sp, #0
 800130a:	6078      	str	r0, [r7, #4]
  uint32_t start = DWT->CYCCNT;
 800130c:	4b0d      	ldr	r3, [pc, #52]	@ (8001344 <DelayUs+0x40>)
 800130e:	685b      	ldr	r3, [r3, #4]
 8001310:	60fb      	str	r3, [r7, #12]
  uint32_t cycles = delay_us * (SystemCoreClock / 1000000U);
 8001312:	4b0d      	ldr	r3, [pc, #52]	@ (8001348 <DelayUs+0x44>)
 8001314:	681b      	ldr	r3, [r3, #0]
 8001316:	4a0d      	ldr	r2, [pc, #52]	@ (800134c <DelayUs+0x48>)
 8001318:	fba2 2303 	umull	r2, r3, r2, r3
 800131c:	0c9a      	lsrs	r2, r3, #18
 800131e:	687b      	ldr	r3, [r7, #4]
 8001320:	fb02 f303 	mul.w	r3, r2, r3
 8001324:	60bb      	str	r3, [r7, #8]

  while ((DWT->CYCCNT - start) < cycles)
 8001326:	bf00      	nop
 8001328:	4b06      	ldr	r3, [pc, #24]	@ (8001344 <DelayUs+0x40>)
 800132a:	685a      	ldr	r2, [r3, #4]
 800132c:	68fb      	ldr	r3, [r7, #12]
 800132e:	1ad3      	subs	r3, r2, r3
 8001330:	68ba      	ldr	r2, [r7, #8]
 8001332:	429a      	cmp	r2, r3
 8001334:	d8f8      	bhi.n	8001328 <DelayUs+0x24>
  {
  }
}
 8001336:	bf00      	nop
 8001338:	bf00      	nop
 800133a:	3714      	adds	r7, #20
 800133c:	46bd      	mov	sp, r7
 800133e:	f85d 7b04 	ldr.w	r7, [sp], #4
 8001342:	4770      	bx	lr
 8001344:	e0001000 	.word	0xe0001000
 8001348:	20000000 	.word	0x20000000
 800134c:	431bde83 	.word	0x431bde83

08001350 <DHT22_SetPinOutput>:

static void DHT22_SetPinOutput(void)
{
 8001350:	b580      	push	{r7, lr}
 8001352:	b086      	sub	sp, #24
 8001354:	af00      	add	r7, sp, #0
  GPIO_InitTypeDef GPIO_InitStruct = {0};
 8001356:	1d3b      	adds	r3, r7, #4
 8001358:	2200      	movs	r2, #0
 800135a:	601a      	str	r2, [r3, #0]
 800135c:	605a      	str	r2, [r3, #4]
 800135e:	609a      	str	r2, [r3, #8]
 8001360:	60da      	str	r2, [r3, #12]
 8001362:	611a      	str	r2, [r3, #16]

  GPIO_InitStruct.Pin = DHT22_DATA_Pin;
 8001364:	2301      	movs	r3, #1
 8001366:	607b      	str	r3, [r7, #4]
  GPIO_InitStruct.Mode = GPIO_MODE_OUTPUT_PP;
 8001368:	2301      	movs	r3, #1
 800136a:	60bb      	str	r3, [r7, #8]
  GPIO_InitStruct.Pull = GPIO_NOPULL;
 800136c:	2300      	movs	r3, #0
 800136e:	60fb      	str	r3, [r7, #12]
  GPIO_InitStruct.Speed = GPIO_SPEED_FREQ_LOW;
 8001370:	2300      	movs	r3, #0
 8001372:	613b      	str	r3, [r7, #16]
  HAL_GPIO_Init(DHT22_DATA_GPIO_Port, &GPIO_InitStruct);
 8001374:	1d3b      	adds	r3, r7, #4
 8001376:	4619      	mov	r1, r3
 8001378:	4803      	ldr	r0, [pc, #12]	@ (8001388 <DHT22_SetPinOutput+0x38>)
 800137a:	f002 fc6f 	bl	8003c5c <HAL_GPIO_Init>
}
 800137e:	bf00      	nop
 8001380:	3718      	adds	r7, #24
 8001382:	46bd      	mov	sp, r7
 8001384:	bd80      	pop	{r7, pc}
 8001386:	bf00      	nop
 8001388:	40020400 	.word	0x40020400

0800138c <DHT22_SetPinInput>:

static void DHT22_SetPinInput(void)
{
 800138c:	b580      	push	{r7, lr}
 800138e:	b086      	sub	sp, #24
 8001390:	af00      	add	r7, sp, #0
  GPIO_InitTypeDef GPIO_InitStruct = {0};
 8001392:	1d3b      	adds	r3, r7, #4
 8001394:	2200      	movs	r2, #0
 8001396:	601a      	str	r2, [r3, #0]
 8001398:	605a      	str	r2, [r3, #4]
 800139a:	609a      	str	r2, [r3, #8]
 800139c:	60da      	str	r2, [r3, #12]
 800139e:	611a      	str	r2, [r3, #16]

  GPIO_InitStruct.Pin = DHT22_DATA_Pin;
 80013a0:	2301      	movs	r3, #1
 80013a2:	607b      	str	r3, [r7, #4]
  GPIO_InitStruct.Mode = GPIO_MODE_INPUT;
 80013a4:	2300      	movs	r3, #0
 80013a6:	60bb      	str	r3, [r7, #8]
  GPIO_InitStruct.Pull = GPIO_NOPULL;
 80013a8:	2300      	movs	r3, #0
 80013aa:	60fb      	str	r3, [r7, #12]
  HAL_GPIO_Init(DHT22_DATA_GPIO_Port, &GPIO_InitStruct);
 80013ac:	1d3b      	adds	r3, r7, #4
 80013ae:	4619      	mov	r1, r3
 80013b0:	4803      	ldr	r0, [pc, #12]	@ (80013c0 <DHT22_SetPinInput+0x34>)
 80013b2:	f002 fc53 	bl	8003c5c <HAL_GPIO_Init>
}
 80013b6:	bf00      	nop
 80013b8:	3718      	adds	r7, #24
 80013ba:	46bd      	mov	sp, r7
 80013bc:	bd80      	pop	{r7, pc}
 80013be:	bf00      	nop
 80013c0:	40020400 	.word	0x40020400

080013c4 <DHT22_WaitForState>:

static uint8_t DHT22_WaitForState(GPIO_PinState state, uint32_t timeout_us)
{
 80013c4:	b580      	push	{r7, lr}
 80013c6:	b084      	sub	sp, #16
 80013c8:	af00      	add	r7, sp, #0
 80013ca:	4603      	mov	r3, r0
 80013cc:	6039      	str	r1, [r7, #0]
 80013ce:	71fb      	strb	r3, [r7, #7]
  uint32_t start = DWT->CYCCNT;
 80013d0:	4b12      	ldr	r3, [pc, #72]	@ (800141c <DHT22_WaitForState+0x58>)
 80013d2:	685b      	ldr	r3, [r3, #4]
 80013d4:	60fb      	str	r3, [r7, #12]
  uint32_t timeout_cycles = timeout_us * (SystemCoreClock / 1000000U);
 80013d6:	4b12      	ldr	r3, [pc, #72]	@ (8001420 <DHT22_WaitForState+0x5c>)
 80013d8:	681b      	ldr	r3, [r3, #0]
 80013da:	4a12      	ldr	r2, [pc, #72]	@ (8001424 <DHT22_WaitForState+0x60>)
 80013dc:	fba2 2303 	umull	r2, r3, r2, r3
 80013e0:	0c9a      	lsrs	r2, r3, #18
 80013e2:	683b      	ldr	r3, [r7, #0]
 80013e4:	fb02 f303 	mul.w	r3, r2, r3
 80013e8:	60bb      	str	r3, [r7, #8]

  while ((DWT->CYCCNT - start) < timeout_cycles)
 80013ea:	e00a      	b.n	8001402 <DHT22_WaitForState+0x3e>
  {
    if (HAL_GPIO_ReadPin(DHT22_DATA_GPIO_Port, DHT22_DATA_Pin) == state)
 80013ec:	2101      	movs	r1, #1
 80013ee:	480e      	ldr	r0, [pc, #56]	@ (8001428 <DHT22_WaitForState+0x64>)
 80013f0:	f002 fdd0 	bl	8003f94 <HAL_GPIO_ReadPin>
 80013f4:	4603      	mov	r3, r0
 80013f6:	461a      	mov	r2, r3
 80013f8:	79fb      	ldrb	r3, [r7, #7]
 80013fa:	4293      	cmp	r3, r2
 80013fc:	d101      	bne.n	8001402 <DHT22_WaitForState+0x3e>
    {
      return 1U;
 80013fe:	2301      	movs	r3, #1
 8001400:	e007      	b.n	8001412 <DHT22_WaitForState+0x4e>
  while ((DWT->CYCCNT - start) < timeout_cycles)
 8001402:	4b06      	ldr	r3, [pc, #24]	@ (800141c <DHT22_WaitForState+0x58>)
 8001404:	685a      	ldr	r2, [r3, #4]
 8001406:	68fb      	ldr	r3, [r7, #12]
 8001408:	1ad3      	subs	r3, r2, r3
 800140a:	68ba      	ldr	r2, [r7, #8]
 800140c:	429a      	cmp	r2, r3
 800140e:	d8ed      	bhi.n	80013ec <DHT22_WaitForState+0x28>
    }
  }

  return 0U;
 8001410:	2300      	movs	r3, #0
}
 8001412:	4618      	mov	r0, r3
 8001414:	3710      	adds	r7, #16
 8001416:	46bd      	mov	sp, r7
 8001418:	bd80      	pop	{r7, pc}
 800141a:	bf00      	nop
 800141c:	e0001000 	.word	0xe0001000
 8001420:	20000000 	.word	0x20000000
 8001424:	431bde83 	.word	0x431bde83
 8001428:	40020400 	.word	0x40020400

0800142c <DHT22_Read>:

static uint8_t DHT22_Read(float *temperature_c, float *humidity_pct)
{
 800142c:	b580      	push	{r7, lr}
 800142e:	b086      	sub	sp, #24
 8001430:	af00      	add	r7, sp, #0
 8001432:	6078      	str	r0, [r7, #4]
 8001434:	6039      	str	r1, [r7, #0]
  uint8_t data[5] = {0};
 8001436:	f107 030c 	add.w	r3, r7, #12
 800143a:	2200      	movs	r2, #0
 800143c:	601a      	str	r2, [r3, #0]
 800143e:	711a      	strb	r2, [r3, #4]
  uint8_t i = 0U;
 8001440:	2300      	movs	r3, #0
 8001442:	75fb      	strb	r3, [r7, #23]
  uint16_t raw_humidity = 0U;
 8001444:	2300      	movs	r3, #0
 8001446:	82bb      	strh	r3, [r7, #20]
  uint16_t raw_temperature = 0U;
 8001448:	2300      	movs	r3, #0
 800144a:	827b      	strh	r3, [r7, #18]

  DHT22_SetPinOutput();
 800144c:	f7ff ff80 	bl	8001350 <DHT22_SetPinOutput>
  HAL_GPIO_WritePin(DHT22_DATA_GPIO_Port, DHT22_DATA_Pin, GPIO_PIN_RESET);
 8001450:	2200      	movs	r2, #0
 8001452:	2101      	movs	r1, #1
 8001454:	4862      	ldr	r0, [pc, #392]	@ (80015e0 <DHT22_Read+0x1b4>)
 8001456:	f002 fdb5 	bl	8003fc4 <HAL_GPIO_WritePin>
  DelayUs(1200U);
 800145a:	f44f 6096 	mov.w	r0, #1200	@ 0x4b0
 800145e:	f7ff ff51 	bl	8001304 <DelayUs>

  DHT22_SetPinInput();
 8001462:	f7ff ff93 	bl	800138c <DHT22_SetPinInput>
  DelayUs(30U);
 8001466:	201e      	movs	r0, #30
 8001468:	f7ff ff4c 	bl	8001304 <DelayUs>

  if (DHT22_WaitForState(GPIO_PIN_RESET, 100U) == 0U)
 800146c:	2164      	movs	r1, #100	@ 0x64
 800146e:	2000      	movs	r0, #0
 8001470:	f7ff ffa8 	bl	80013c4 <DHT22_WaitForState>
 8001474:	4603      	mov	r3, r0
 8001476:	2b00      	cmp	r3, #0
 8001478:	d101      	bne.n	800147e <DHT22_Read+0x52>
  {
    return 0U;
 800147a:	2300      	movs	r3, #0
 800147c:	e0ab      	b.n	80015d6 <DHT22_Read+0x1aa>
  }

  if (DHT22_WaitForState(GPIO_PIN_SET, 100U) == 0U)
 800147e:	2164      	movs	r1, #100	@ 0x64
 8001480:	2001      	movs	r0, #1
 8001482:	f7ff ff9f 	bl	80013c4 <DHT22_WaitForState>
 8001486:	4603      	mov	r3, r0
 8001488:	2b00      	cmp	r3, #0
 800148a:	d101      	bne.n	8001490 <DHT22_Read+0x64>
  {
    return 0U;
 800148c:	2300      	movs	r3, #0
 800148e:	e0a2      	b.n	80015d6 <DHT22_Read+0x1aa>
  }

  if (DHT22_WaitForState(GPIO_PIN_RESET, 100U) == 0U)
 8001490:	2164      	movs	r1, #100	@ 0x64
 8001492:	2000      	movs	r0, #0
 8001494:	f7ff ff96 	bl	80013c4 <DHT22_WaitForState>
 8001498:	4603      	mov	r3, r0
 800149a:	2b00      	cmp	r3, #0
 800149c:	d101      	bne.n	80014a2 <DHT22_Read+0x76>
  {
    return 0U;
 800149e:	2300      	movs	r3, #0
 80014a0:	e099      	b.n	80015d6 <DHT22_Read+0x1aa>
  }

  for (i = 0U; i < 40U; i++)
 80014a2:	2300      	movs	r3, #0
 80014a4:	75fb      	strb	r3, [r7, #23]
 80014a6:	e042      	b.n	800152e <DHT22_Read+0x102>
  {
    if (DHT22_WaitForState(GPIO_PIN_SET, 100U) == 0U)
 80014a8:	2164      	movs	r1, #100	@ 0x64
 80014aa:	2001      	movs	r0, #1
 80014ac:	f7ff ff8a 	bl	80013c4 <DHT22_WaitForState>
 80014b0:	4603      	mov	r3, r0
 80014b2:	2b00      	cmp	r3, #0
 80014b4:	d101      	bne.n	80014ba <DHT22_Read+0x8e>
    {
      return 0U;
 80014b6:	2300      	movs	r3, #0
 80014b8:	e08d      	b.n	80015d6 <DHT22_Read+0x1aa>
    }

    DelayUs(40U);
 80014ba:	2028      	movs	r0, #40	@ 0x28
 80014bc:	f7ff ff22 	bl	8001304 <DelayUs>
    data[i / 8U] <<= 1U;
 80014c0:	7dfb      	ldrb	r3, [r7, #23]
 80014c2:	08db      	lsrs	r3, r3, #3
 80014c4:	b2da      	uxtb	r2, r3
 80014c6:	4613      	mov	r3, r2
 80014c8:	3318      	adds	r3, #24
 80014ca:	443b      	add	r3, r7
 80014cc:	f813 3c0c 	ldrb.w	r3, [r3, #-12]
 80014d0:	4611      	mov	r1, r2
 80014d2:	005b      	lsls	r3, r3, #1
 80014d4:	b2da      	uxtb	r2, r3
 80014d6:	f101 0318 	add.w	r3, r1, #24
 80014da:	443b      	add	r3, r7
 80014dc:	f803 2c0c 	strb.w	r2, [r3, #-12]

    if (HAL_GPIO_ReadPin(DHT22_DATA_GPIO_Port, DHT22_DATA_Pin) == GPIO_PIN_SET)
 80014e0:	2101      	movs	r1, #1
 80014e2:	483f      	ldr	r0, [pc, #252]	@ (80015e0 <DHT22_Read+0x1b4>)
 80014e4:	f002 fd56 	bl	8003f94 <HAL_GPIO_ReadPin>
 80014e8:	4603      	mov	r3, r0
 80014ea:	2b01      	cmp	r3, #1
 80014ec:	d110      	bne.n	8001510 <DHT22_Read+0xe4>
    {
      data[i / 8U] |= 1U;
 80014ee:	7dfb      	ldrb	r3, [r7, #23]
 80014f0:	08db      	lsrs	r3, r3, #3
 80014f2:	b2da      	uxtb	r2, r3
 80014f4:	4613      	mov	r3, r2
 80014f6:	3318      	adds	r3, #24
 80014f8:	443b      	add	r3, r7
 80014fa:	f813 3c0c 	ldrb.w	r3, [r3, #-12]
 80014fe:	4611      	mov	r1, r2
 8001500:	f043 0301 	orr.w	r3, r3, #1
 8001504:	b2da      	uxtb	r2, r3
 8001506:	f101 0318 	add.w	r3, r1, #24
 800150a:	443b      	add	r3, r7
 800150c:	f803 2c0c 	strb.w	r2, [r3, #-12]
    }

    if ((i < 39U) && (DHT22_WaitForState(GPIO_PIN_RESET, 100U) == 0U))
 8001510:	7dfb      	ldrb	r3, [r7, #23]
 8001512:	2b26      	cmp	r3, #38	@ 0x26
 8001514:	d808      	bhi.n	8001528 <DHT22_Read+0xfc>
 8001516:	2164      	movs	r1, #100	@ 0x64
 8001518:	2000      	movs	r0, #0
 800151a:	f7ff ff53 	bl	80013c4 <DHT22_WaitForState>
 800151e:	4603      	mov	r3, r0
 8001520:	2b00      	cmp	r3, #0
 8001522:	d101      	bne.n	8001528 <DHT22_Read+0xfc>
    {
      return 0U;
 8001524:	2300      	movs	r3, #0
 8001526:	e056      	b.n	80015d6 <DHT22_Read+0x1aa>
  for (i = 0U; i < 40U; i++)
 8001528:	7dfb      	ldrb	r3, [r7, #23]
 800152a:	3301      	adds	r3, #1
 800152c:	75fb      	strb	r3, [r7, #23]
 800152e:	7dfb      	ldrb	r3, [r7, #23]
 8001530:	2b27      	cmp	r3, #39	@ 0x27
 8001532:	d9b9      	bls.n	80014a8 <DHT22_Read+0x7c>
    }
  }

  if (((uint8_t)(data[0] + data[1] + data[2] + data[3])) != data[4])
 8001534:	7b3a      	ldrb	r2, [r7, #12]
 8001536:	7b7b      	ldrb	r3, [r7, #13]
 8001538:	4413      	add	r3, r2
 800153a:	b2da      	uxtb	r2, r3
 800153c:	7bbb      	ldrb	r3, [r7, #14]
 800153e:	4413      	add	r3, r2
 8001540:	b2da      	uxtb	r2, r3
 8001542:	7bfb      	ldrb	r3, [r7, #15]
 8001544:	4413      	add	r3, r2
 8001546:	b2da      	uxtb	r2, r3
 8001548:	7c3b      	ldrb	r3, [r7, #16]
 800154a:	429a      	cmp	r2, r3
 800154c:	d001      	beq.n	8001552 <DHT22_Read+0x126>
  {
    return 0U;
 800154e:	2300      	movs	r3, #0
 8001550:	e041      	b.n	80015d6 <DHT22_Read+0x1aa>
  }

  raw_humidity = ((uint16_t)data[0] << 8) | data[1];
 8001552:	7b3b      	ldrb	r3, [r7, #12]
 8001554:	b21b      	sxth	r3, r3
 8001556:	021b      	lsls	r3, r3, #8
 8001558:	b21a      	sxth	r2, r3
 800155a:	7b7b      	ldrb	r3, [r7, #13]
 800155c:	b21b      	sxth	r3, r3
 800155e:	4313      	orrs	r3, r2
 8001560:	b21b      	sxth	r3, r3
 8001562:	82bb      	strh	r3, [r7, #20]
  raw_temperature = ((uint16_t)data[2] << 8) | data[3];
 8001564:	7bbb      	ldrb	r3, [r7, #14]
 8001566:	b21b      	sxth	r3, r3
 8001568:	021b      	lsls	r3, r3, #8
 800156a:	b21a      	sxth	r2, r3
 800156c:	7bfb      	ldrb	r3, [r7, #15]
 800156e:	b21b      	sxth	r3, r3
 8001570:	4313      	orrs	r3, r2
 8001572:	b21b      	sxth	r3, r3
 8001574:	827b      	strh	r3, [r7, #18]

  *humidity_pct = raw_humidity / 10.0f;
 8001576:	8abb      	ldrh	r3, [r7, #20]
 8001578:	ee07 3a90 	vmov	s15, r3
 800157c:	eeb8 7ae7 	vcvt.f32.s32	s14, s15
 8001580:	eef2 6a04 	vmov.f32	s13, #36	@ 0x41200000  10.0
 8001584:	eec7 7a26 	vdiv.f32	s15, s14, s13
 8001588:	683b      	ldr	r3, [r7, #0]
 800158a:	edc3 7a00 	vstr	s15, [r3]

  if ((raw_temperature & 0x8000U) != 0U)
 800158e:	f9b7 3012 	ldrsh.w	r3, [r7, #18]
 8001592:	2b00      	cmp	r3, #0
 8001594:	da12      	bge.n	80015bc <DHT22_Read+0x190>
  {
    raw_temperature &= 0x7FFFU;
 8001596:	8a7b      	ldrh	r3, [r7, #18]
 8001598:	f3c3 030e 	ubfx	r3, r3, #0, #15
 800159c:	827b      	strh	r3, [r7, #18]
    *temperature_c = -(raw_temperature / 10.0f);
 800159e:	8a7b      	ldrh	r3, [r7, #18]
 80015a0:	ee07 3a90 	vmov	s15, r3
 80015a4:	eeb8 7ae7 	vcvt.f32.s32	s14, s15
 80015a8:	eef2 6a04 	vmov.f32	s13, #36	@ 0x41200000  10.0
 80015ac:	eec7 7a26 	vdiv.f32	s15, s14, s13
 80015b0:	eef1 7a67 	vneg.f32	s15, s15
 80015b4:	687b      	ldr	r3, [r7, #4]
 80015b6:	edc3 7a00 	vstr	s15, [r3]
 80015ba:	e00b      	b.n	80015d4 <DHT22_Read+0x1a8>
  }
  else
  {
    *temperature_c = raw_temperature / 10.0f;
 80015bc:	8a7b      	ldrh	r3, [r7, #18]
 80015be:	ee07 3a90 	vmov	s15, r3
 80015c2:	eeb8 7ae7 	vcvt.f32.s32	s14, s15
 80015c6:	eef2 6a04 	vmov.f32	s13, #36	@ 0x41200000  10.0
 80015ca:	eec7 7a26 	vdiv.f32	s15, s14, s13
 80015ce:	687b      	ldr	r3, [r7, #4]
 80015d0:	edc3 7a00 	vstr	s15, [r3]
  }

  return 1U;
 80015d4:	2301      	movs	r3, #1
}
 80015d6:	4618      	mov	r0, r3
 80015d8:	3718      	adds	r7, #24
 80015da:	46bd      	mov	sp, r7
 80015dc:	bd80      	pop	{r7, pc}
 80015de:	bf00      	nop
 80015e0:	40020400 	.word	0x40020400

080015e4 <DHT22_Service>:

static void DHT22_Service(void)
{
 80015e4:	b580      	push	{r7, lr}
 80015e6:	b088      	sub	sp, #32
 80015e8:	af00      	add	r7, sp, #0
  float temperature_c = 0.0f;
 80015ea:	f04f 0300 	mov.w	r3, #0
 80015ee:	60bb      	str	r3, [r7, #8]
  float humidity_pct = 0.0f;
 80015f0:	f04f 0300 	mov.w	r3, #0
 80015f4:	607b      	str	r3, [r7, #4]
  float temp_delta_c = 0.0f;
 80015f6:	f04f 0300 	mov.w	r3, #0
 80015fa:	61fb      	str	r3, [r7, #28]
  float humidity_delta_pct = 0.0f;
 80015fc:	f04f 0300 	mov.w	r3, #0
 8001600:	61bb      	str	r3, [r7, #24]
  uint8_t mold_risk = 0U;
 8001602:	2300      	movs	r3, #0
 8001604:	74fb      	strb	r3, [r7, #19]
  uint8_t frost_risk = 0U;
 8001606:	2300      	movs	r3, #0
 8001608:	74bb      	strb	r3, [r7, #18]
  uint8_t mold_risk_predicted = 0U;
 800160a:	2300      	movs	r3, #0
 800160c:	747b      	strb	r3, [r7, #17]
  uint8_t frost_risk_predicted = 0U;
 800160e:	2300      	movs	r3, #0
 8001610:	743b      	strb	r3, [r7, #16]
  uint32_t trend_elapsed_ms = 0U;
 8001612:	2300      	movs	r3, #0
 8001614:	617b      	str	r3, [r7, #20]
  uint32_t now = HAL_GetTick();
 8001616:	f002 f9df 	bl	80039d8 <HAL_GetTick>
 800161a:	60f8      	str	r0, [r7, #12]

  if ((now - dht_last_sample_tick) < DHT22_SAMPLE_INTERVAL_MS)
 800161c:	4ba0      	ldr	r3, [pc, #640]	@ (80018a0 <DHT22_Service+0x2bc>)
 800161e:	681b      	ldr	r3, [r3, #0]
 8001620:	68fa      	ldr	r2, [r7, #12]
 8001622:	1ad3      	subs	r3, r2, r3
 8001624:	f5b3 6ffa 	cmp.w	r3, #2000	@ 0x7d0
 8001628:	f0c0 8219 	bcc.w	8001a5e <DHT22_Service+0x47a>
  {
    return;
  }

  dht_last_sample_tick = now;
 800162c:	4a9c      	ldr	r2, [pc, #624]	@ (80018a0 <DHT22_Service+0x2bc>)
 800162e:	68fb      	ldr	r3, [r7, #12]
 8001630:	6013      	str	r3, [r2, #0]

  if (DHT22_Read(&temperature_c, &humidity_pct) != 0U)
 8001632:	1d3a      	adds	r2, r7, #4
 8001634:	f107 0308 	add.w	r3, r7, #8
 8001638:	4611      	mov	r1, r2
 800163a:	4618      	mov	r0, r3
 800163c:	f7ff fef6 	bl	800142c <DHT22_Read>
 8001640:	4603      	mov	r3, r0
 8001642:	2b00      	cmp	r3, #0
 8001644:	f000 81ed 	beq.w	8001a22 <DHT22_Service+0x43e>
  {
    if (DHT22_IsReadingPlausible(temperature_c, humidity_pct) == 0U)
 8001648:	edd7 7a02 	vldr	s15, [r7, #8]
 800164c:	ed97 7a01 	vldr	s14, [r7, #4]
 8001650:	eef0 0a47 	vmov.f32	s1, s14
 8001654:	eeb0 0a67 	vmov.f32	s0, s15
 8001658:	f7ff f996 	bl	8000988 <DHT22_IsReadingPlausible>
 800165c:	4603      	mov	r3, r0
 800165e:	2b00      	cmp	r3, #0
 8001660:	d117      	bne.n	8001692 <DHT22_Service+0xae>
    {
      g_dht_valid = 0U;
 8001662:	4b90      	ldr	r3, [pc, #576]	@ (80018a4 <DHT22_Service+0x2c0>)
 8001664:	2200      	movs	r2, #0
 8001666:	701a      	strb	r2, [r3, #0]
      Stepper_Stop();
 8001668:	f7ff f86e 	bl	8000748 <Stepper_Stop>
      FrostRelay_Set(0U);
 800166c:	2000      	movs	r0, #0
 800166e:	f7ff f96b 	bl	8000948 <FrostRelay_Set>
      mold_alarm_active = 0U;
 8001672:	4b8d      	ldr	r3, [pc, #564]	@ (80018a8 <DHT22_Service+0x2c4>)
 8001674:	2200      	movs	r2, #0
 8001676:	701a      	strb	r2, [r3, #0]
      frost_alarm_active = 0U;
 8001678:	4b8c      	ldr	r3, [pc, #560]	@ (80018ac <DHT22_Service+0x2c8>)
 800167a:	2200      	movs	r2, #0
 800167c:	701a      	strb	r2, [r3, #0]
      dht_trend_valid = 0U;
 800167e:	4b8c      	ldr	r3, [pc, #560]	@ (80018b0 <DHT22_Service+0x2cc>)
 8001680:	2200      	movs	r2, #0
 8001682:	701a      	strb	r2, [r3, #0]
      mold_trend_rise_streak = 0U;
 8001684:	4b8b      	ldr	r3, [pc, #556]	@ (80018b4 <DHT22_Service+0x2d0>)
 8001686:	2200      	movs	r2, #0
 8001688:	701a      	strb	r2, [r3, #0]
      frost_trend_drop_streak = 0U;
 800168a:	4b8b      	ldr	r3, [pc, #556]	@ (80018b8 <DHT22_Service+0x2d4>)
 800168c:	2200      	movs	r2, #0
 800168e:	701a      	strb	r2, [r3, #0]
      return;
 8001690:	e1e6      	b.n	8001a60 <DHT22_Service+0x47c>
    }

    if ((dht_trend_valid != 0U) && (now > last_dht_trend_tick))
 8001692:	4b87      	ldr	r3, [pc, #540]	@ (80018b0 <DHT22_Service+0x2cc>)
 8001694:	781b      	ldrb	r3, [r3, #0]
 8001696:	2b00      	cmp	r3, #0
 8001698:	d053      	beq.n	8001742 <DHT22_Service+0x15e>
 800169a:	4b88      	ldr	r3, [pc, #544]	@ (80018bc <DHT22_Service+0x2d8>)
 800169c:	681b      	ldr	r3, [r3, #0]
 800169e:	68fa      	ldr	r2, [r7, #12]
 80016a0:	429a      	cmp	r2, r3
 80016a2:	d94e      	bls.n	8001742 <DHT22_Service+0x15e>
    {
      trend_elapsed_ms = now - last_dht_trend_tick;
 80016a4:	4b85      	ldr	r3, [pc, #532]	@ (80018bc <DHT22_Service+0x2d8>)
 80016a6:	681b      	ldr	r3, [r3, #0]
 80016a8:	68fa      	ldr	r2, [r7, #12]
 80016aa:	1ad3      	subs	r3, r2, r3
 80016ac:	617b      	str	r3, [r7, #20]
      temp_delta_c = temperature_c - last_temperature_sample_c;
 80016ae:	ed97 7a02 	vldr	s14, [r7, #8]
 80016b2:	4b83      	ldr	r3, [pc, #524]	@ (80018c0 <DHT22_Service+0x2dc>)
 80016b4:	edd3 7a00 	vldr	s15, [r3]
 80016b8:	ee77 7a67 	vsub.f32	s15, s14, s15
 80016bc:	edc7 7a07 	vstr	s15, [r7, #28]
      humidity_delta_pct = humidity_pct - last_humidity_sample_pct;
 80016c0:	ed97 7a01 	vldr	s14, [r7, #4]
 80016c4:	4b7f      	ldr	r3, [pc, #508]	@ (80018c4 <DHT22_Service+0x2e0>)
 80016c6:	edd3 7a00 	vldr	s15, [r3]
 80016ca:	ee77 7a67 	vsub.f32	s15, s14, s15
 80016ce:	edc7 7a06 	vstr	s15, [r7, #24]

      if ((temp_delta_c >= TEMP_TREND_NOISE_FLOOR_C) &&
 80016d2:	edd7 7a07 	vldr	s15, [r7, #28]
 80016d6:	ed9f 7a7c 	vldr	s14, [pc, #496]	@ 80018c8 <DHT22_Service+0x2e4>
 80016da:	eef4 7ac7 	vcmpe.f32	s15, s14
 80016de:	eef1 fa10 	vmrs	APSR_nzcv, fpscr
 80016e2:	db13      	blt.n	800170c <DHT22_Service+0x128>
 80016e4:	edd7 7a06 	vldr	s15, [r7, #24]
 80016e8:	eeb6 7a00 	vmov.f32	s14, #96	@ 0x3f000000  0.5
 80016ec:	eef4 7ac7 	vcmpe.f32	s15, s14
 80016f0:	eef1 fa10 	vmrs	APSR_nzcv, fpscr
 80016f4:	db0a      	blt.n	800170c <DHT22_Service+0x128>
          (humidity_delta_pct >= HUMIDITY_TREND_NOISE_FLOOR_PCT))
      {
        if (mold_trend_rise_streak < 255U)
 80016f6:	4b6f      	ldr	r3, [pc, #444]	@ (80018b4 <DHT22_Service+0x2d0>)
 80016f8:	781b      	ldrb	r3, [r3, #0]
 80016fa:	2bff      	cmp	r3, #255	@ 0xff
 80016fc:	d009      	beq.n	8001712 <DHT22_Service+0x12e>
        {
          mold_trend_rise_streak++;
 80016fe:	4b6d      	ldr	r3, [pc, #436]	@ (80018b4 <DHT22_Service+0x2d0>)
 8001700:	781b      	ldrb	r3, [r3, #0]
 8001702:	3301      	adds	r3, #1
 8001704:	b2da      	uxtb	r2, r3
 8001706:	4b6b      	ldr	r3, [pc, #428]	@ (80018b4 <DHT22_Service+0x2d0>)
 8001708:	701a      	strb	r2, [r3, #0]
        if (mold_trend_rise_streak < 255U)
 800170a:	e002      	b.n	8001712 <DHT22_Service+0x12e>
        }
      }
      else
      {
        mold_trend_rise_streak = 0U;
 800170c:	4b69      	ldr	r3, [pc, #420]	@ (80018b4 <DHT22_Service+0x2d0>)
 800170e:	2200      	movs	r2, #0
 8001710:	701a      	strb	r2, [r3, #0]
      }

      if (temp_delta_c <= (-TEMP_TREND_NOISE_FLOOR_C))
 8001712:	edd7 7a07 	vldr	s15, [r7, #28]
 8001716:	ed9f 7a6d 	vldr	s14, [pc, #436]	@ 80018cc <DHT22_Service+0x2e8>
 800171a:	eef4 7ac7 	vcmpe.f32	s15, s14
 800171e:	eef1 fa10 	vmrs	APSR_nzcv, fpscr
 8001722:	d80a      	bhi.n	800173a <DHT22_Service+0x156>
      {
        if (frost_trend_drop_streak < 255U)
 8001724:	4b64      	ldr	r3, [pc, #400]	@ (80018b8 <DHT22_Service+0x2d4>)
 8001726:	781b      	ldrb	r3, [r3, #0]
 8001728:	2bff      	cmp	r3, #255	@ 0xff
 800172a:	d011      	beq.n	8001750 <DHT22_Service+0x16c>
        {
          frost_trend_drop_streak++;
 800172c:	4b62      	ldr	r3, [pc, #392]	@ (80018b8 <DHT22_Service+0x2d4>)
 800172e:	781b      	ldrb	r3, [r3, #0]
 8001730:	3301      	adds	r3, #1
 8001732:	b2da      	uxtb	r2, r3
 8001734:	4b60      	ldr	r3, [pc, #384]	@ (80018b8 <DHT22_Service+0x2d4>)
 8001736:	701a      	strb	r2, [r3, #0]
      if (temp_delta_c <= (-TEMP_TREND_NOISE_FLOOR_C))
 8001738:	e00a      	b.n	8001750 <DHT22_Service+0x16c>
        }
      }
      else
      {
        frost_trend_drop_streak = 0U;
 800173a:	4b5f      	ldr	r3, [pc, #380]	@ (80018b8 <DHT22_Service+0x2d4>)
 800173c:	2200      	movs	r2, #0
 800173e:	701a      	strb	r2, [r3, #0]
      if (temp_delta_c <= (-TEMP_TREND_NOISE_FLOOR_C))
 8001740:	e006      	b.n	8001750 <DHT22_Service+0x16c>
      }
    }
    else
    {
      mold_trend_rise_streak = 0U;
 8001742:	4b5c      	ldr	r3, [pc, #368]	@ (80018b4 <DHT22_Service+0x2d0>)
 8001744:	2200      	movs	r2, #0
 8001746:	701a      	strb	r2, [r3, #0]
      frost_trend_drop_streak = 0U;
 8001748:	4b5b      	ldr	r3, [pc, #364]	@ (80018b8 <DHT22_Service+0x2d4>)
 800174a:	2200      	movs	r2, #0
 800174c:	701a      	strb	r2, [r3, #0]
 800174e:	e000      	b.n	8001752 <DHT22_Service+0x16e>
      if (temp_delta_c <= (-TEMP_TREND_NOISE_FLOOR_C))
 8001750:	bf00      	nop
    }

    g_temperature_c = temperature_c;
 8001752:	68bb      	ldr	r3, [r7, #8]
 8001754:	4a5e      	ldr	r2, [pc, #376]	@ (80018d0 <DHT22_Service+0x2ec>)
 8001756:	6013      	str	r3, [r2, #0]
    g_humidity_pct = humidity_pct;
 8001758:	687b      	ldr	r3, [r7, #4]
 800175a:	4a5e      	ldr	r2, [pc, #376]	@ (80018d4 <DHT22_Service+0x2f0>)
 800175c:	6013      	str	r3, [r2, #0]
    g_dht_valid = 1U;
 800175e:	4b51      	ldr	r3, [pc, #324]	@ (80018a4 <DHT22_Service+0x2c0>)
 8001760:	2201      	movs	r2, #1
 8001762:	701a      	strb	r2, [r3, #0]

    if (climate_reference_valid == 0U)
 8001764:	4b5c      	ldr	r3, [pc, #368]	@ (80018d8 <DHT22_Service+0x2f4>)
 8001766:	781b      	ldrb	r3, [r3, #0]
 8001768:	2b00      	cmp	r3, #0
 800176a:	d119      	bne.n	80017a0 <DHT22_Service+0x1bc>
    {
      climate_reference_temperature_c = temperature_c;
 800176c:	68bb      	ldr	r3, [r7, #8]
 800176e:	4a5b      	ldr	r2, [pc, #364]	@ (80018dc <DHT22_Service+0x2f8>)
 8001770:	6013      	str	r3, [r2, #0]
      climate_reference_humidity_pct = humidity_pct;
 8001772:	687b      	ldr	r3, [r7, #4]
 8001774:	4a5a      	ldr	r2, [pc, #360]	@ (80018e0 <DHT22_Service+0x2fc>)
 8001776:	6013      	str	r3, [r2, #0]
      climate_reference_tick = now;
 8001778:	4a5a      	ldr	r2, [pc, #360]	@ (80018e4 <DHT22_Service+0x300>)
 800177a:	68fb      	ldr	r3, [r7, #12]
 800177c:	6013      	str	r3, [r2, #0]
      climate_reference_valid = 1U;
 800177e:	4b56      	ldr	r3, [pc, #344]	@ (80018d8 <DHT22_Service+0x2f4>)
 8001780:	2201      	movs	r2, #1
 8001782:	701a      	strb	r2, [r3, #0]
      frost_reference_temperature_c = temperature_c;
 8001784:	68bb      	ldr	r3, [r7, #8]
 8001786:	4a58      	ldr	r2, [pc, #352]	@ (80018e8 <DHT22_Service+0x304>)
 8001788:	6013      	str	r3, [r2, #0]
      frost_reference_tick = now;
 800178a:	4a58      	ldr	r2, [pc, #352]	@ (80018ec <DHT22_Service+0x308>)
 800178c:	68fb      	ldr	r3, [r7, #12]
 800178e:	6013      	str	r3, [r2, #0]
      frost_reference_valid = 1U;
 8001790:	4b57      	ldr	r3, [pc, #348]	@ (80018f0 <DHT22_Service+0x30c>)
 8001792:	2201      	movs	r2, #1
 8001794:	701a      	strb	r2, [r3, #0]
      telemetry_last_send_tick = now - TELEMETRY_SEND_INTERVAL_MS;
 8001796:	68fb      	ldr	r3, [r7, #12]
 8001798:	f5a3 737a 	sub.w	r3, r3, #1000	@ 0x3e8
 800179c:	4a55      	ldr	r2, [pc, #340]	@ (80018f4 <DHT22_Service+0x310>)
 800179e:	6013      	str	r3, [r2, #0]
    }

    if (((now - climate_reference_tick) > CLIMATE_EVENT_WINDOW_MS) ||
 80017a0:	4b50      	ldr	r3, [pc, #320]	@ (80018e4 <DHT22_Service+0x300>)
 80017a2:	681b      	ldr	r3, [r3, #0]
 80017a4:	68fa      	ldr	r2, [r7, #12]
 80017a6:	1ad3      	subs	r3, r2, r3
 80017a8:	f64e 2260 	movw	r2, #60000	@ 0xea60
 80017ac:	4293      	cmp	r3, r2
 80017ae:	d813      	bhi.n	80017d8 <DHT22_Service+0x1f4>
        (temperature_c < climate_reference_temperature_c) ||
 80017b0:	ed97 7a02 	vldr	s14, [r7, #8]
 80017b4:	4b49      	ldr	r3, [pc, #292]	@ (80018dc <DHT22_Service+0x2f8>)
 80017b6:	edd3 7a00 	vldr	s15, [r3]
    if (((now - climate_reference_tick) > CLIMATE_EVENT_WINDOW_MS) ||
 80017ba:	eeb4 7ae7 	vcmpe.f32	s14, s15
 80017be:	eef1 fa10 	vmrs	APSR_nzcv, fpscr
 80017c2:	d409      	bmi.n	80017d8 <DHT22_Service+0x1f4>
        (humidity_pct < climate_reference_humidity_pct))
 80017c4:	ed97 7a01 	vldr	s14, [r7, #4]
 80017c8:	4b45      	ldr	r3, [pc, #276]	@ (80018e0 <DHT22_Service+0x2fc>)
 80017ca:	edd3 7a00 	vldr	s15, [r3]
        (temperature_c < climate_reference_temperature_c) ||
 80017ce:	eeb4 7ae7 	vcmpe.f32	s14, s15
 80017d2:	eef1 fa10 	vmrs	APSR_nzcv, fpscr
 80017d6:	d508      	bpl.n	80017ea <DHT22_Service+0x206>
    {
      climate_reference_temperature_c = temperature_c;
 80017d8:	68bb      	ldr	r3, [r7, #8]
 80017da:	4a40      	ldr	r2, [pc, #256]	@ (80018dc <DHT22_Service+0x2f8>)
 80017dc:	6013      	str	r3, [r2, #0]
      climate_reference_humidity_pct = humidity_pct;
 80017de:	687b      	ldr	r3, [r7, #4]
 80017e0:	4a3f      	ldr	r2, [pc, #252]	@ (80018e0 <DHT22_Service+0x2fc>)
 80017e2:	6013      	str	r3, [r2, #0]
      climate_reference_tick = now;
 80017e4:	4a3f      	ldr	r2, [pc, #252]	@ (80018e4 <DHT22_Service+0x300>)
 80017e6:	68fb      	ldr	r3, [r7, #12]
 80017e8:	6013      	str	r3, [r2, #0]
    }

    if ((frost_reference_valid == 0U) ||
 80017ea:	4b41      	ldr	r3, [pc, #260]	@ (80018f0 <DHT22_Service+0x30c>)
 80017ec:	781b      	ldrb	r3, [r3, #0]
 80017ee:	2b00      	cmp	r3, #0
 80017f0:	d011      	beq.n	8001816 <DHT22_Service+0x232>
        ((now - frost_reference_tick) > CLIMATE_EVENT_WINDOW_MS) ||
 80017f2:	4b3e      	ldr	r3, [pc, #248]	@ (80018ec <DHT22_Service+0x308>)
 80017f4:	681b      	ldr	r3, [r3, #0]
 80017f6:	68fa      	ldr	r2, [r7, #12]
 80017f8:	1ad3      	subs	r3, r2, r3
    if ((frost_reference_valid == 0U) ||
 80017fa:	f64e 2260 	movw	r2, #60000	@ 0xea60
 80017fe:	4293      	cmp	r3, r2
 8001800:	d809      	bhi.n	8001816 <DHT22_Service+0x232>
        (temperature_c > frost_reference_temperature_c))
 8001802:	ed97 7a02 	vldr	s14, [r7, #8]
 8001806:	4b38      	ldr	r3, [pc, #224]	@ (80018e8 <DHT22_Service+0x304>)
 8001808:	edd3 7a00 	vldr	s15, [r3]
        ((now - frost_reference_tick) > CLIMATE_EVENT_WINDOW_MS) ||
 800180c:	eeb4 7ae7 	vcmpe.f32	s14, s15
 8001810:	eef1 fa10 	vmrs	APSR_nzcv, fpscr
 8001814:	dd08      	ble.n	8001828 <DHT22_Service+0x244>
    {
      frost_reference_temperature_c = temperature_c;
 8001816:	68bb      	ldr	r3, [r7, #8]
 8001818:	4a33      	ldr	r2, [pc, #204]	@ (80018e8 <DHT22_Service+0x304>)
 800181a:	6013      	str	r3, [r2, #0]
      frost_reference_tick = now;
 800181c:	4a33      	ldr	r2, [pc, #204]	@ (80018ec <DHT22_Service+0x308>)
 800181e:	68fb      	ldr	r3, [r7, #12]
 8001820:	6013      	str	r3, [r2, #0]
      frost_reference_valid = 1U;
 8001822:	4b33      	ldr	r3, [pc, #204]	@ (80018f0 <DHT22_Service+0x30c>)
 8001824:	2201      	movs	r2, #1
 8001826:	701a      	strb	r2, [r3, #0]
    }

    mold_risk = (uint8_t)(
        (temperature_c >= MOLD_TEMP_THRESHOLD_C) &&
 8001828:	edd7 7a02 	vldr	s15, [r7, #8]
 800182c:	eeb3 7a08 	vmov.f32	s14, #56	@ 0x41c00000  24.0
 8001830:	eef4 7ac7 	vcmpe.f32	s15, s14
 8001834:	eef1 fa10 	vmrs	APSR_nzcv, fpscr
 8001838:	db0a      	blt.n	8001850 <DHT22_Service+0x26c>
        (humidity_pct >= MOLD_HUMIDITY_THRESHOLD_PCT));
 800183a:	edd7 7a01 	vldr	s15, [r7, #4]
        (temperature_c >= MOLD_TEMP_THRESHOLD_C) &&
 800183e:	ed9f 7a2e 	vldr	s14, [pc, #184]	@ 80018f8 <DHT22_Service+0x314>
 8001842:	eef4 7ac7 	vcmpe.f32	s15, s14
 8001846:	eef1 fa10 	vmrs	APSR_nzcv, fpscr
 800184a:	db01      	blt.n	8001850 <DHT22_Service+0x26c>
 800184c:	2301      	movs	r3, #1
 800184e:	e000      	b.n	8001852 <DHT22_Service+0x26e>
 8001850:	2300      	movs	r3, #0
    mold_risk = (uint8_t)(
 8001852:	74fb      	strb	r3, [r7, #19]

    frost_risk = (uint8_t)(
        (frost_reference_valid != 0U) &&
 8001854:	4b26      	ldr	r3, [pc, #152]	@ (80018f0 <DHT22_Service+0x30c>)
 8001856:	781b      	ldrb	r3, [r3, #0]
        ((now - frost_reference_tick) <= CLIMATE_EVENT_WINDOW_MS) &&
        (temperature_c <= (frost_reference_temperature_c - FROST_TRIGGER_DELTA_C)) &&
 8001858:	2b00      	cmp	r3, #0
 800185a:	d04f      	beq.n	80018fc <DHT22_Service+0x318>
        ((now - frost_reference_tick) <= CLIMATE_EVENT_WINDOW_MS) &&
 800185c:	4b23      	ldr	r3, [pc, #140]	@ (80018ec <DHT22_Service+0x308>)
 800185e:	681b      	ldr	r3, [r3, #0]
 8001860:	68fa      	ldr	r2, [r7, #12]
 8001862:	1ad3      	subs	r3, r2, r3
        (frost_reference_valid != 0U) &&
 8001864:	f64e 2260 	movw	r2, #60000	@ 0xea60
 8001868:	4293      	cmp	r3, r2
 800186a:	d847      	bhi.n	80018fc <DHT22_Service+0x318>
        (temperature_c <= (frost_reference_temperature_c - FROST_TRIGGER_DELTA_C)) &&
 800186c:	4b1e      	ldr	r3, [pc, #120]	@ (80018e8 <DHT22_Service+0x304>)
 800186e:	edd3 7a00 	vldr	s15, [r3]
 8001872:	eeb0 7a00 	vmov.f32	s14, #0	@ 0x40000000  2.0
 8001876:	ee37 7ac7 	vsub.f32	s14, s15, s14
 800187a:	edd7 7a02 	vldr	s15, [r7, #8]
        ((now - frost_reference_tick) <= CLIMATE_EVENT_WINDOW_MS) &&
 800187e:	eeb4 7ae7 	vcmpe.f32	s14, s15
 8001882:	eef1 fa10 	vmrs	APSR_nzcv, fpscr
 8001886:	db39      	blt.n	80018fc <DHT22_Service+0x318>
        (temperature_c <= (frost_reference_temperature_c - FROST_TRIGGER_DELTA_C)) &&
 8001888:	edd7 7a07 	vldr	s15, [r7, #28]
 800188c:	ed9f 7a0f 	vldr	s14, [pc, #60]	@ 80018cc <DHT22_Service+0x2e8>
 8001890:	eef4 7ac7 	vcmpe.f32	s15, s14
 8001894:	eef1 fa10 	vmrs	APSR_nzcv, fpscr
 8001898:	d830      	bhi.n	80018fc <DHT22_Service+0x318>
 800189a:	2301      	movs	r3, #1
 800189c:	e02f      	b.n	80018fe <DHT22_Service+0x31a>
 800189e:	bf00      	nop
 80018a0:	200000e4 	.word	0x200000e4
 80018a4:	200000d8 	.word	0x200000d8
 80018a8:	200002ab 	.word	0x200002ab
 80018ac:	200002ac 	.word	0x200002ac
 80018b0:	200002bc 	.word	0x200002bc
 80018b4:	200002bd 	.word	0x200002bd
 80018b8:	200002be 	.word	0x200002be
 80018bc:	200002b8 	.word	0x200002b8
 80018c0:	200002b0 	.word	0x200002b0
 80018c4:	200002b4 	.word	0x200002b4
 80018c8:	3e4ccccd 	.word	0x3e4ccccd
 80018cc:	be4ccccd 	.word	0xbe4ccccd
 80018d0:	200000c0 	.word	0x200000c0
 80018d4:	200000c4 	.word	0x200000c4
 80018d8:	200000f4 	.word	0x200000f4
 80018dc:	200000e8 	.word	0x200000e8
 80018e0:	200000ec 	.word	0x200000ec
 80018e4:	200000f0 	.word	0x200000f0
 80018e8:	200000f8 	.word	0x200000f8
 80018ec:	200000fc 	.word	0x200000fc
 80018f0:	20000100 	.word	0x20000100
 80018f4:	2000010c 	.word	0x2000010c
 80018f8:	42a00000 	.word	0x42a00000
 80018fc:	2300      	movs	r3, #0
    frost_risk = (uint8_t)(
 80018fe:	74bb      	strb	r3, [r7, #18]
        (temp_delta_c <= (-TEMP_TREND_NOISE_FLOOR_C)));

    mold_risk_predicted = PredictMoldRisk(
 8001900:	edd7 7a02 	vldr	s15, [r7, #8]
 8001904:	ed97 7a01 	vldr	s14, [r7, #4]
 8001908:	edd7 1a06 	vldr	s3, [r7, #24]
 800190c:	ed97 1a07 	vldr	s2, [r7, #28]
 8001910:	6979      	ldr	r1, [r7, #20]
 8001912:	68f8      	ldr	r0, [r7, #12]
 8001914:	eef0 0a47 	vmov.f32	s1, s14
 8001918:	eeb0 0a67 	vmov.f32	s0, s15
 800191c:	f7ff f86c 	bl	80009f8 <PredictMoldRisk>
 8001920:	4603      	mov	r3, r0
 8001922:	747b      	strb	r3, [r7, #17]
        humidity_pct,
        now,
        trend_elapsed_ms,
        temp_delta_c,
        humidity_delta_pct);
    frost_risk_predicted = PredictFrostRisk(
 8001924:	edd7 7a02 	vldr	s15, [r7, #8]
 8001928:	edd7 0a07 	vldr	s1, [r7, #28]
 800192c:	6979      	ldr	r1, [r7, #20]
 800192e:	68f8      	ldr	r0, [r7, #12]
 8001930:	eeb0 0a67 	vmov.f32	s0, s15
 8001934:	f7ff f956 	bl	8000be4 <PredictFrostRisk>
 8001938:	4603      	mov	r3, r0
 800193a:	743b      	strb	r3, [r7, #16]
        temperature_c,
        now,
        trend_elapsed_ms,
        temp_delta_c);

    if (((mold_risk != 0U) || (mold_risk_predicted != 0U)) && (buzzer_mold_alarm_latched == 0U))
 800193c:	7cfb      	ldrb	r3, [r7, #19]
 800193e:	2b00      	cmp	r3, #0
 8001940:	d102      	bne.n	8001948 <DHT22_Service+0x364>
 8001942:	7c7b      	ldrb	r3, [r7, #17]
 8001944:	2b00      	cmp	r3, #0
 8001946:	d00b      	beq.n	8001960 <DHT22_Service+0x37c>
 8001948:	4b47      	ldr	r3, [pc, #284]	@ (8001a68 <DHT22_Service+0x484>)
 800194a:	781b      	ldrb	r3, [r3, #0]
 800194c:	2b00      	cmp	r3, #0
 800194e:	d107      	bne.n	8001960 <DHT22_Service+0x37c>
    {
      Buzzer_Trigger(BUZZER_BEEP_DURATION_MS);
 8001950:	f640 10c4 	movw	r0, #2500	@ 0x9c4
 8001954:	f7fe ff46 	bl	80007e4 <Buzzer_Trigger>
      buzzer_mold_alarm_latched = 1U;
 8001958:	4b43      	ldr	r3, [pc, #268]	@ (8001a68 <DHT22_Service+0x484>)
 800195a:	2201      	movs	r2, #1
 800195c:	701a      	strb	r2, [r3, #0]
 800195e:	e008      	b.n	8001972 <DHT22_Service+0x38e>
    }
    else if ((mold_risk == 0U) && (mold_risk_predicted == 0U))
 8001960:	7cfb      	ldrb	r3, [r7, #19]
 8001962:	2b00      	cmp	r3, #0
 8001964:	d105      	bne.n	8001972 <DHT22_Service+0x38e>
 8001966:	7c7b      	ldrb	r3, [r7, #17]
 8001968:	2b00      	cmp	r3, #0
 800196a:	d102      	bne.n	8001972 <DHT22_Service+0x38e>
    {
      buzzer_mold_alarm_latched = 0U;
 800196c:	4b3e      	ldr	r3, [pc, #248]	@ (8001a68 <DHT22_Service+0x484>)
 800196e:	2200      	movs	r2, #0
 8001970:	701a      	strb	r2, [r3, #0]
    }

    if (((frost_risk != 0U) || (frost_risk_predicted != 0U)) && (buzzer_frost_alarm_latched == 0U))
 8001972:	7cbb      	ldrb	r3, [r7, #18]
 8001974:	2b00      	cmp	r3, #0
 8001976:	d102      	bne.n	800197e <DHT22_Service+0x39a>
 8001978:	7c3b      	ldrb	r3, [r7, #16]
 800197a:	2b00      	cmp	r3, #0
 800197c:	d00b      	beq.n	8001996 <DHT22_Service+0x3b2>
 800197e:	4b3b      	ldr	r3, [pc, #236]	@ (8001a6c <DHT22_Service+0x488>)
 8001980:	781b      	ldrb	r3, [r3, #0]
 8001982:	2b00      	cmp	r3, #0
 8001984:	d107      	bne.n	8001996 <DHT22_Service+0x3b2>
    {
      Buzzer_Trigger(BUZZER_BEEP_DURATION_MS);
 8001986:	f640 10c4 	movw	r0, #2500	@ 0x9c4
 800198a:	f7fe ff2b 	bl	80007e4 <Buzzer_Trigger>
      buzzer_frost_alarm_latched = 1U;
 800198e:	4b37      	ldr	r3, [pc, #220]	@ (8001a6c <DHT22_Service+0x488>)
 8001990:	2201      	movs	r2, #1
 8001992:	701a      	strb	r2, [r3, #0]
 8001994:	e008      	b.n	80019a8 <DHT22_Service+0x3c4>
    }
    else if ((frost_risk == 0U) && (frost_risk_predicted == 0U))
 8001996:	7cbb      	ldrb	r3, [r7, #18]
 8001998:	2b00      	cmp	r3, #0
 800199a:	d105      	bne.n	80019a8 <DHT22_Service+0x3c4>
 800199c:	7c3b      	ldrb	r3, [r7, #16]
 800199e:	2b00      	cmp	r3, #0
 80019a0:	d102      	bne.n	80019a8 <DHT22_Service+0x3c4>
    {
      buzzer_frost_alarm_latched = 0U;
 80019a2:	4b32      	ldr	r3, [pc, #200]	@ (8001a6c <DHT22_Service+0x488>)
 80019a4:	2200      	movs	r2, #0
 80019a6:	701a      	strb	r2, [r3, #0]
    }

    if ((mold_risk != 0U) || (mold_risk_predicted != 0U))
 80019a8:	7cfb      	ldrb	r3, [r7, #19]
 80019aa:	2b00      	cmp	r3, #0
 80019ac:	d102      	bne.n	80019b4 <DHT22_Service+0x3d0>
 80019ae:	7c7b      	ldrb	r3, [r7, #17]
 80019b0:	2b00      	cmp	r3, #0
 80019b2:	d002      	beq.n	80019ba <DHT22_Service+0x3d6>
    {
      Stepper_Start();
 80019b4:	f7fe fe96 	bl	80006e4 <Stepper_Start>
 80019b8:	e001      	b.n	80019be <DHT22_Service+0x3da>
    }
    else
    {
      Stepper_Stop();
 80019ba:	f7fe fec5 	bl	8000748 <Stepper_Stop>
    }

    FrostRelay_Set((uint8_t)((frost_risk != 0U) || (frost_risk_predicted != 0U)));
 80019be:	7cbb      	ldrb	r3, [r7, #18]
 80019c0:	2b00      	cmp	r3, #0
 80019c2:	d102      	bne.n	80019ca <DHT22_Service+0x3e6>
 80019c4:	7c3b      	ldrb	r3, [r7, #16]
 80019c6:	2b00      	cmp	r3, #0
 80019c8:	d001      	beq.n	80019ce <DHT22_Service+0x3ea>
 80019ca:	2301      	movs	r3, #1
 80019cc:	e000      	b.n	80019d0 <DHT22_Service+0x3ec>
 80019ce:	2300      	movs	r3, #0
 80019d0:	b2db      	uxtb	r3, r3
 80019d2:	4618      	mov	r0, r3
 80019d4:	f7fe ffb8 	bl	8000948 <FrostRelay_Set>
    mold_alarm_active = (uint8_t)((mold_risk != 0U) || (mold_risk_predicted != 0U));
 80019d8:	7cfb      	ldrb	r3, [r7, #19]
 80019da:	2b00      	cmp	r3, #0
 80019dc:	d102      	bne.n	80019e4 <DHT22_Service+0x400>
 80019de:	7c7b      	ldrb	r3, [r7, #17]
 80019e0:	2b00      	cmp	r3, #0
 80019e2:	d001      	beq.n	80019e8 <DHT22_Service+0x404>
 80019e4:	2301      	movs	r3, #1
 80019e6:	e000      	b.n	80019ea <DHT22_Service+0x406>
 80019e8:	2300      	movs	r3, #0
 80019ea:	b2da      	uxtb	r2, r3
 80019ec:	4b20      	ldr	r3, [pc, #128]	@ (8001a70 <DHT22_Service+0x48c>)
 80019ee:	701a      	strb	r2, [r3, #0]
    frost_alarm_active = (uint8_t)((frost_risk != 0U) || (frost_risk_predicted != 0U));
 80019f0:	7cbb      	ldrb	r3, [r7, #18]
 80019f2:	2b00      	cmp	r3, #0
 80019f4:	d102      	bne.n	80019fc <DHT22_Service+0x418>
 80019f6:	7c3b      	ldrb	r3, [r7, #16]
 80019f8:	2b00      	cmp	r3, #0
 80019fa:	d001      	beq.n	8001a00 <DHT22_Service+0x41c>
 80019fc:	2301      	movs	r3, #1
 80019fe:	e000      	b.n	8001a02 <DHT22_Service+0x41e>
 8001a00:	2300      	movs	r3, #0
 8001a02:	b2da      	uxtb	r2, r3
 8001a04:	4b1b      	ldr	r3, [pc, #108]	@ (8001a74 <DHT22_Service+0x490>)
 8001a06:	701a      	strb	r2, [r3, #0]

    last_temperature_sample_c = temperature_c;
 8001a08:	68bb      	ldr	r3, [r7, #8]
 8001a0a:	4a1b      	ldr	r2, [pc, #108]	@ (8001a78 <DHT22_Service+0x494>)
 8001a0c:	6013      	str	r3, [r2, #0]
    last_humidity_sample_pct = humidity_pct;
 8001a0e:	687b      	ldr	r3, [r7, #4]
 8001a10:	4a1a      	ldr	r2, [pc, #104]	@ (8001a7c <DHT22_Service+0x498>)
 8001a12:	6013      	str	r3, [r2, #0]
    last_dht_trend_tick = now;
 8001a14:	4a1a      	ldr	r2, [pc, #104]	@ (8001a80 <DHT22_Service+0x49c>)
 8001a16:	68fb      	ldr	r3, [r7, #12]
 8001a18:	6013      	str	r3, [r2, #0]
    dht_trend_valid = 1U;
 8001a1a:	4b1a      	ldr	r3, [pc, #104]	@ (8001a84 <DHT22_Service+0x4a0>)
 8001a1c:	2201      	movs	r2, #1
 8001a1e:	701a      	strb	r2, [r3, #0]
 8001a20:	e01e      	b.n	8001a60 <DHT22_Service+0x47c>
  }
  else
  {
    g_dht_valid = 0U;
 8001a22:	4b19      	ldr	r3, [pc, #100]	@ (8001a88 <DHT22_Service+0x4a4>)
 8001a24:	2200      	movs	r2, #0
 8001a26:	701a      	strb	r2, [r3, #0]
    Stepper_Stop();
 8001a28:	f7fe fe8e 	bl	8000748 <Stepper_Stop>
    FrostRelay_Set(0U);
 8001a2c:	2000      	movs	r0, #0
 8001a2e:	f7fe ff8b 	bl	8000948 <FrostRelay_Set>
    mold_alarm_active = 0U;
 8001a32:	4b0f      	ldr	r3, [pc, #60]	@ (8001a70 <DHT22_Service+0x48c>)
 8001a34:	2200      	movs	r2, #0
 8001a36:	701a      	strb	r2, [r3, #0]
    frost_alarm_active = 0U;
 8001a38:	4b0e      	ldr	r3, [pc, #56]	@ (8001a74 <DHT22_Service+0x490>)
 8001a3a:	2200      	movs	r2, #0
 8001a3c:	701a      	strb	r2, [r3, #0]
    dht_trend_valid = 0U;
 8001a3e:	4b11      	ldr	r3, [pc, #68]	@ (8001a84 <DHT22_Service+0x4a0>)
 8001a40:	2200      	movs	r2, #0
 8001a42:	701a      	strb	r2, [r3, #0]
    buzzer_mold_alarm_latched = 0U;
 8001a44:	4b08      	ldr	r3, [pc, #32]	@ (8001a68 <DHT22_Service+0x484>)
 8001a46:	2200      	movs	r2, #0
 8001a48:	701a      	strb	r2, [r3, #0]
    buzzer_frost_alarm_latched = 0U;
 8001a4a:	4b08      	ldr	r3, [pc, #32]	@ (8001a6c <DHT22_Service+0x488>)
 8001a4c:	2200      	movs	r2, #0
 8001a4e:	701a      	strb	r2, [r3, #0]
    mold_trend_rise_streak = 0U;
 8001a50:	4b0e      	ldr	r3, [pc, #56]	@ (8001a8c <DHT22_Service+0x4a8>)
 8001a52:	2200      	movs	r2, #0
 8001a54:	701a      	strb	r2, [r3, #0]
    frost_trend_drop_streak = 0U;
 8001a56:	4b0e      	ldr	r3, [pc, #56]	@ (8001a90 <DHT22_Service+0x4ac>)
 8001a58:	2200      	movs	r2, #0
 8001a5a:	701a      	strb	r2, [r3, #0]
 8001a5c:	e000      	b.n	8001a60 <DHT22_Service+0x47c>
    return;
 8001a5e:	bf00      	nop
  }
}
 8001a60:	3720      	adds	r7, #32
 8001a62:	46bd      	mov	sp, r7
 8001a64:	bd80      	pop	{r7, pc}
 8001a66:	bf00      	nop
 8001a68:	200002a8 	.word	0x200002a8
 8001a6c:	200002a9 	.word	0x200002a9
 8001a70:	200002ab 	.word	0x200002ab
 8001a74:	200002ac 	.word	0x200002ac
 8001a78:	200002b0 	.word	0x200002b0
 8001a7c:	200002b4 	.word	0x200002b4
 8001a80:	200002b8 	.word	0x200002b8
 8001a84:	200002bc 	.word	0x200002bc
 8001a88:	200000d8 	.word	0x200000d8
 8001a8c:	200002bd 	.word	0x200002bd
 8001a90:	200002be 	.word	0x200002be

08001a94 <FlowSensor_Service>:

static void FlowSensor_Service(void)
{
 8001a94:	b580      	push	{r7, lr}
 8001a96:	b086      	sub	sp, #24
 8001a98:	af00      	add	r7, sp, #0
  uint32_t now = HAL_GetTick();
 8001a9a:	f001 ff9d 	bl	80039d8 <HAL_GetTick>
 8001a9e:	6138      	str	r0, [r7, #16]
  uint32_t elapsed_ms = now - flow_last_sample_tick;
 8001aa0:	4b43      	ldr	r3, [pc, #268]	@ (8001bb0 <FlowSensor_Service+0x11c>)
 8001aa2:	681b      	ldr	r3, [r3, #0]
 8001aa4:	693a      	ldr	r2, [r7, #16]
 8001aa6:	1ad3      	subs	r3, r2, r3
 8001aa8:	60fb      	str	r3, [r7, #12]
  uint32_t pulse_delta = 0U;
 8001aaa:	2300      	movs	r3, #0
 8001aac:	60bb      	str	r3, [r7, #8]
  float frequency_hz = 0.0f;
 8001aae:	f04f 0300 	mov.w	r3, #0
 8001ab2:	607b      	str	r3, [r7, #4]
  float flow_l_min = 0.0f;
 8001ab4:	f04f 0300 	mov.w	r3, #0
 8001ab8:	617b      	str	r3, [r7, #20]

  if (elapsed_ms < FLOW_SAMPLE_INTERVAL_MS)
 8001aba:	68fb      	ldr	r3, [r7, #12]
 8001abc:	f5b3 7f7a 	cmp.w	r3, #1000	@ 0x3e8
 8001ac0:	d372      	bcc.n	8001ba8 <FlowSensor_Service+0x114>
  {
    return;
  }

  pulse_delta = g_flow_pulse_count - flow_last_sample_pulses;
 8001ac2:	4b3c      	ldr	r3, [pc, #240]	@ (8001bb4 <FlowSensor_Service+0x120>)
 8001ac4:	681a      	ldr	r2, [r3, #0]
 8001ac6:	4b3c      	ldr	r3, [pc, #240]	@ (8001bb8 <FlowSensor_Service+0x124>)
 8001ac8:	681b      	ldr	r3, [r3, #0]
 8001aca:	1ad3      	subs	r3, r2, r3
 8001acc:	60bb      	str	r3, [r7, #8]
  frequency_hz = (pulse_delta * 1000.0f) / elapsed_ms;
 8001ace:	68bb      	ldr	r3, [r7, #8]
 8001ad0:	ee07 3a90 	vmov	s15, r3
 8001ad4:	eef8 7a67 	vcvt.f32.u32	s15, s15
 8001ad8:	ed9f 7a38 	vldr	s14, [pc, #224]	@ 8001bbc <FlowSensor_Service+0x128>
 8001adc:	ee67 6a87 	vmul.f32	s13, s15, s14
 8001ae0:	68fb      	ldr	r3, [r7, #12]
 8001ae2:	ee07 3a90 	vmov	s15, r3
 8001ae6:	eeb8 7a67 	vcvt.f32.u32	s14, s15
 8001aea:	eec6 7a87 	vdiv.f32	s15, s13, s14
 8001aee:	edc7 7a01 	vstr	s15, [r7, #4]

  if (pulse_delta == 0U)
 8001af2:	68bb      	ldr	r3, [r7, #8]
 8001af4:	2b00      	cmp	r3, #0
 8001af6:	d103      	bne.n	8001b00 <FlowSensor_Service+0x6c>
  {
    flow_l_min = 0.0f;
 8001af8:	f04f 0300 	mov.w	r3, #0
 8001afc:	617b      	str	r3, [r7, #20]
 8001afe:	e00b      	b.n	8001b18 <FlowSensor_Service+0x84>
  }
  else
  {
    flow_l_min = (frequency_hz + 3.0f) / 23.0f;
 8001b00:	edd7 7a01 	vldr	s15, [r7, #4]
 8001b04:	eeb0 7a08 	vmov.f32	s14, #8	@ 0x40400000  3.0
 8001b08:	ee37 7a87 	vadd.f32	s14, s15, s14
 8001b0c:	eef3 6a07 	vmov.f32	s13, #55	@ 0x41b80000  23.0
 8001b10:	eec7 7a26 	vdiv.f32	s15, s14, s13
 8001b14:	edc7 7a05 	vstr	s15, [r7, #20]
  }

  g_flow_frequency_hz = frequency_hz;
 8001b18:	4a29      	ldr	r2, [pc, #164]	@ (8001bc0 <FlowSensor_Service+0x12c>)
 8001b1a:	687b      	ldr	r3, [r7, #4]
 8001b1c:	6013      	str	r3, [r2, #0]
  g_flow_l_min = flow_l_min;
 8001b1e:	4a29      	ldr	r2, [pc, #164]	@ (8001bc4 <FlowSensor_Service+0x130>)
 8001b20:	697b      	ldr	r3, [r7, #20]
 8001b22:	6013      	str	r3, [r2, #0]
  g_flow_total_l = g_flow_pulse_count / 1380.0f;
 8001b24:	4b23      	ldr	r3, [pc, #140]	@ (8001bb4 <FlowSensor_Service+0x120>)
 8001b26:	681b      	ldr	r3, [r3, #0]
 8001b28:	ee07 3a90 	vmov	s15, r3
 8001b2c:	eeb8 7a67 	vcvt.f32.u32	s14, s15
 8001b30:	eddf 6a25 	vldr	s13, [pc, #148]	@ 8001bc8 <FlowSensor_Service+0x134>
 8001b34:	eec7 7a26 	vdiv.f32	s15, s14, s13
 8001b38:	4b24      	ldr	r3, [pc, #144]	@ (8001bcc <FlowSensor_Service+0x138>)
 8001b3a:	edc3 7a00 	vstr	s15, [r3]

  if (flow_reference_valid == 0U)
 8001b3e:	4b24      	ldr	r3, [pc, #144]	@ (8001bd0 <FlowSensor_Service+0x13c>)
 8001b40:	781b      	ldrb	r3, [r3, #0]
 8001b42:	2b00      	cmp	r3, #0
 8001b44:	d105      	bne.n	8001b52 <FlowSensor_Service+0xbe>
  {
    flow_reference_l_min = flow_l_min;
 8001b46:	4a23      	ldr	r2, [pc, #140]	@ (8001bd4 <FlowSensor_Service+0x140>)
 8001b48:	697b      	ldr	r3, [r7, #20]
 8001b4a:	6013      	str	r3, [r2, #0]
    flow_reference_valid = 1U;
 8001b4c:	4b20      	ldr	r3, [pc, #128]	@ (8001bd0 <FlowSensor_Service+0x13c>)
 8001b4e:	2201      	movs	r2, #1
 8001b50:	701a      	strb	r2, [r3, #0]
  }

  if ((flow_trend_valid != 0U) && (now > last_flow_trend_tick))
 8001b52:	4b21      	ldr	r3, [pc, #132]	@ (8001bd8 <FlowSensor_Service+0x144>)
 8001b54:	781b      	ldrb	r3, [r3, #0]
 8001b56:	2b00      	cmp	r3, #0
 8001b58:	d012      	beq.n	8001b80 <FlowSensor_Service+0xec>
 8001b5a:	4b20      	ldr	r3, [pc, #128]	@ (8001bdc <FlowSensor_Service+0x148>)
 8001b5c:	681b      	ldr	r3, [r3, #0]
 8001b5e:	693a      	ldr	r2, [r7, #16]
 8001b60:	429a      	cmp	r2, r3
 8001b62:	d90d      	bls.n	8001b80 <FlowSensor_Service+0xec>
  {
    flow_risk_predicted_state = PredictFlowRisk(flow_l_min, now - last_flow_trend_tick);
 8001b64:	4b1d      	ldr	r3, [pc, #116]	@ (8001bdc <FlowSensor_Service+0x148>)
 8001b66:	681b      	ldr	r3, [r3, #0]
 8001b68:	693a      	ldr	r2, [r7, #16]
 8001b6a:	1ad3      	subs	r3, r2, r3
 8001b6c:	4618      	mov	r0, r3
 8001b6e:	ed97 0a05 	vldr	s0, [r7, #20]
 8001b72:	f7ff f8cd 	bl	8000d10 <PredictFlowRisk>
 8001b76:	4603      	mov	r3, r0
 8001b78:	461a      	mov	r2, r3
 8001b7a:	4b19      	ldr	r3, [pc, #100]	@ (8001be0 <FlowSensor_Service+0x14c>)
 8001b7c:	701a      	strb	r2, [r3, #0]
 8001b7e:	e002      	b.n	8001b86 <FlowSensor_Service+0xf2>
  }
  else
  {
    flow_risk_predicted_state = 0U;
 8001b80:	4b17      	ldr	r3, [pc, #92]	@ (8001be0 <FlowSensor_Service+0x14c>)
 8001b82:	2200      	movs	r2, #0
 8001b84:	701a      	strb	r2, [r3, #0]
  }

  last_flow_sample_l_min = flow_l_min;
 8001b86:	4a17      	ldr	r2, [pc, #92]	@ (8001be4 <FlowSensor_Service+0x150>)
 8001b88:	697b      	ldr	r3, [r7, #20]
 8001b8a:	6013      	str	r3, [r2, #0]
  last_flow_trend_tick = now;
 8001b8c:	4a13      	ldr	r2, [pc, #76]	@ (8001bdc <FlowSensor_Service+0x148>)
 8001b8e:	693b      	ldr	r3, [r7, #16]
 8001b90:	6013      	str	r3, [r2, #0]
  flow_trend_valid = 1U;
 8001b92:	4b11      	ldr	r3, [pc, #68]	@ (8001bd8 <FlowSensor_Service+0x144>)
 8001b94:	2201      	movs	r2, #1
 8001b96:	701a      	strb	r2, [r3, #0]

  flow_last_sample_tick = now;
 8001b98:	4a05      	ldr	r2, [pc, #20]	@ (8001bb0 <FlowSensor_Service+0x11c>)
 8001b9a:	693b      	ldr	r3, [r7, #16]
 8001b9c:	6013      	str	r3, [r2, #0]
  flow_last_sample_pulses = g_flow_pulse_count;
 8001b9e:	4b05      	ldr	r3, [pc, #20]	@ (8001bb4 <FlowSensor_Service+0x120>)
 8001ba0:	681b      	ldr	r3, [r3, #0]
 8001ba2:	4a05      	ldr	r2, [pc, #20]	@ (8001bb8 <FlowSensor_Service+0x124>)
 8001ba4:	6013      	str	r3, [r2, #0]
 8001ba6:	e000      	b.n	8001baa <FlowSensor_Service+0x116>
    return;
 8001ba8:	bf00      	nop
}
 8001baa:	3718      	adds	r7, #24
 8001bac:	46bd      	mov	sp, r7
 8001bae:	bd80      	pop	{r7, pc}
 8001bb0:	200000dc 	.word	0x200000dc
 8001bb4:	200000d4 	.word	0x200000d4
 8001bb8:	200000e0 	.word	0x200000e0
 8001bbc:	447a0000 	.word	0x447a0000
 8001bc0:	200000d0 	.word	0x200000d0
 8001bc4:	200000c8 	.word	0x200000c8
 8001bc8:	44ac8000 	.word	0x44ac8000
 8001bcc:	200000cc 	.word	0x200000cc
 8001bd0:	20000108 	.word	0x20000108
 8001bd4:	20000104 	.word	0x20000104
 8001bd8:	200002c8 	.word	0x200002c8
 8001bdc:	200002c4 	.word	0x200002c4
 8001be0:	20000297 	.word	0x20000297
 8001be4:	200002c0 	.word	0x200002c0

08001be8 <BuildSensorPayload>:

static void BuildSensorPayload(char *buffer, size_t buffer_len)
{
 8001be8:	b5f0      	push	{r4, r5, r6, r7, lr}
 8001bea:	b091      	sub	sp, #68	@ 0x44
 8001bec:	af08      	add	r7, sp, #32
 8001bee:	60f8      	str	r0, [r7, #12]
 8001bf0:	60b9      	str	r1, [r7, #8]
  int32_t temperature_x10 = (int32_t)(g_temperature_c * 10.0f);
 8001bf2:	4b42      	ldr	r3, [pc, #264]	@ (8001cfc <BuildSensorPayload+0x114>)
 8001bf4:	edd3 7a00 	vldr	s15, [r3]
 8001bf8:	eeb2 7a04 	vmov.f32	s14, #36	@ 0x41200000  10.0
 8001bfc:	ee67 7a87 	vmul.f32	s15, s15, s14
 8001c00:	eefd 7ae7 	vcvt.s32.f32	s15, s15
 8001c04:	ee17 3a90 	vmov	r3, s15
 8001c08:	61fb      	str	r3, [r7, #28]
  uint32_t temperature_fraction = (uint32_t)abs((int)(temperature_x10 % 10));
 8001c0a:	69f9      	ldr	r1, [r7, #28]
 8001c0c:	4b3c      	ldr	r3, [pc, #240]	@ (8001d00 <BuildSensorPayload+0x118>)
 8001c0e:	fb83 2301 	smull	r2, r3, r3, r1
 8001c12:	109a      	asrs	r2, r3, #2
 8001c14:	17cb      	asrs	r3, r1, #31
 8001c16:	1ad2      	subs	r2, r2, r3
 8001c18:	4613      	mov	r3, r2
 8001c1a:	009b      	lsls	r3, r3, #2
 8001c1c:	4413      	add	r3, r2
 8001c1e:	005b      	lsls	r3, r3, #1
 8001c20:	1aca      	subs	r2, r1, r3
 8001c22:	ea82 73e2 	eor.w	r3, r2, r2, asr #31
 8001c26:	eba3 73e2 	sub.w	r3, r3, r2, asr #31
 8001c2a:	61bb      	str	r3, [r7, #24]
  uint32_t humidity_x10 = (uint32_t)(g_humidity_pct * 10.0f);
 8001c2c:	4b35      	ldr	r3, [pc, #212]	@ (8001d04 <BuildSensorPayload+0x11c>)
 8001c2e:	edd3 7a00 	vldr	s15, [r3]
 8001c32:	eeb2 7a04 	vmov.f32	s14, #36	@ 0x41200000  10.0
 8001c36:	ee67 7a87 	vmul.f32	s15, s15, s14
 8001c3a:	eefc 7ae7 	vcvt.u32.f32	s15, s15
 8001c3e:	ee17 3a90 	vmov	r3, s15
 8001c42:	617b      	str	r3, [r7, #20]
  uint32_t flow_x100 = (uint32_t)(g_flow_l_min * 100.0f);
 8001c44:	4b30      	ldr	r3, [pc, #192]	@ (8001d08 <BuildSensorPayload+0x120>)
 8001c46:	edd3 7a00 	vldr	s15, [r3]
 8001c4a:	ed9f 7a30 	vldr	s14, [pc, #192]	@ 8001d0c <BuildSensorPayload+0x124>
 8001c4e:	ee67 7a87 	vmul.f32	s15, s15, s14
 8001c52:	eefc 7ae7 	vcvt.u32.f32	s15, s15
 8001c56:	ee17 3a90 	vmov	r3, s15
 8001c5a:	613b      	str	r3, [r7, #16]

  snprintf(
 8001c5c:	69fb      	ldr	r3, [r7, #28]
 8001c5e:	4a28      	ldr	r2, [pc, #160]	@ (8001d00 <BuildSensorPayload+0x118>)
 8001c60:	fb82 1203 	smull	r1, r2, r2, r3
 8001c64:	1092      	asrs	r2, r2, #2
 8001c66:	17db      	asrs	r3, r3, #31
 8001c68:	1ad5      	subs	r5, r2, r3
 8001c6a:	697b      	ldr	r3, [r7, #20]
 8001c6c:	4a28      	ldr	r2, [pc, #160]	@ (8001d10 <BuildSensorPayload+0x128>)
 8001c6e:	fba2 2303 	umull	r2, r3, r2, r3
 8001c72:	08d8      	lsrs	r0, r3, #3
 8001c74:	6979      	ldr	r1, [r7, #20]
 8001c76:	4b26      	ldr	r3, [pc, #152]	@ (8001d10 <BuildSensorPayload+0x128>)
 8001c78:	fba3 2301 	umull	r2, r3, r3, r1
 8001c7c:	08da      	lsrs	r2, r3, #3
 8001c7e:	4613      	mov	r3, r2
 8001c80:	009b      	lsls	r3, r3, #2
 8001c82:	4413      	add	r3, r2
 8001c84:	005b      	lsls	r3, r3, #1
 8001c86:	1aca      	subs	r2, r1, r3
 8001c88:	693b      	ldr	r3, [r7, #16]
 8001c8a:	4922      	ldr	r1, [pc, #136]	@ (8001d14 <BuildSensorPayload+0x12c>)
 8001c8c:	fba1 1303 	umull	r1, r3, r1, r3
 8001c90:	095c      	lsrs	r4, r3, #5
 8001c92:	6939      	ldr	r1, [r7, #16]
 8001c94:	4b1f      	ldr	r3, [pc, #124]	@ (8001d14 <BuildSensorPayload+0x12c>)
 8001c96:	fba3 6301 	umull	r6, r3, r3, r1
 8001c9a:	095b      	lsrs	r3, r3, #5
 8001c9c:	2664      	movs	r6, #100	@ 0x64
 8001c9e:	fb06 f303 	mul.w	r3, r6, r3
 8001ca2:	1acb      	subs	r3, r1, r3
 8001ca4:	491c      	ldr	r1, [pc, #112]	@ (8001d18 <BuildSensorPayload+0x130>)
 8001ca6:	7809      	ldrb	r1, [r1, #0]
 8001ca8:	2900      	cmp	r1, #0
 8001caa:	bf14      	ite	ne
 8001cac:	2101      	movne	r1, #1
 8001cae:	2100      	moveq	r1, #0
 8001cb0:	b2c9      	uxtb	r1, r1
 8001cb2:	460e      	mov	r6, r1
 8001cb4:	4919      	ldr	r1, [pc, #100]	@ (8001d1c <BuildSensorPayload+0x134>)
 8001cb6:	7809      	ldrb	r1, [r1, #0]
 8001cb8:	2900      	cmp	r1, #0
 8001cba:	bf14      	ite	ne
 8001cbc:	2101      	movne	r1, #1
 8001cbe:	2100      	moveq	r1, #0
 8001cc0:	b2c9      	uxtb	r1, r1
 8001cc2:	6079      	str	r1, [r7, #4]
 8001cc4:	4916      	ldr	r1, [pc, #88]	@ (8001d20 <BuildSensorPayload+0x138>)
 8001cc6:	7809      	ldrb	r1, [r1, #0]
 8001cc8:	2900      	cmp	r1, #0
 8001cca:	bf14      	ite	ne
 8001ccc:	2101      	movne	r1, #1
 8001cce:	2100      	moveq	r1, #0
 8001cd0:	b2c9      	uxtb	r1, r1
 8001cd2:	9107      	str	r1, [sp, #28]
 8001cd4:	6879      	ldr	r1, [r7, #4]
 8001cd6:	9106      	str	r1, [sp, #24]
 8001cd8:	9605      	str	r6, [sp, #20]
 8001cda:	9304      	str	r3, [sp, #16]
 8001cdc:	9403      	str	r4, [sp, #12]
 8001cde:	9202      	str	r2, [sp, #8]
 8001ce0:	9001      	str	r0, [sp, #4]
 8001ce2:	69bb      	ldr	r3, [r7, #24]
 8001ce4:	9300      	str	r3, [sp, #0]
 8001ce6:	462b      	mov	r3, r5
 8001ce8:	4a0e      	ldr	r2, [pc, #56]	@ (8001d24 <BuildSensorPayload+0x13c>)
 8001cea:	68b9      	ldr	r1, [r7, #8]
 8001cec:	68f8      	ldr	r0, [r7, #12]
 8001cee:	f003 fad5 	bl	800529c <sniprintf>
      (unsigned long)(flow_x100 / 100U),
      (unsigned long)(flow_x100 % 100U),
      (unsigned int)(mold_alarm_active != 0U),
      (unsigned int)(frost_alarm_active != 0U),
      (unsigned int)(flow_alarm_active_state != 0U));
}
 8001cf2:	bf00      	nop
 8001cf4:	3724      	adds	r7, #36	@ 0x24
 8001cf6:	46bd      	mov	sp, r7
 8001cf8:	bdf0      	pop	{r4, r5, r6, r7, pc}
 8001cfa:	bf00      	nop
 8001cfc:	200000c0 	.word	0x200000c0
 8001d00:	66666667 	.word	0x66666667
 8001d04:	200000c4 	.word	0x200000c4
 8001d08:	200000c8 	.word	0x200000c8
 8001d0c:	42c80000 	.word	0x42c80000
 8001d10:	cccccccd 	.word	0xcccccccd
 8001d14:	51eb851f 	.word	0x51eb851f
 8001d18:	200002ab 	.word	0x200002ab
 8001d1c:	200002ac 	.word	0x200002ac
 8001d20:	200002ad 	.word	0x200002ad
 8001d24:	08005da0 	.word	0x08005da0

08001d28 <main>:
/**
  * @brief  The application entry point.
  * @retval int
  */
int main(void)
{
 8001d28:	b580      	push	{r7, lr}
 8001d2a:	af00      	add	r7, sp, #0
  /* USER CODE END 1 */

  /* MCU Configuration--------------------------------------------------------*/

  /* Reset of all peripherals, Initializes the Flash interface and the Systick. */
  HAL_Init();
 8001d2c:	f001 fdee 	bl	800390c <HAL_Init>
  /* USER CODE BEGIN Init */

  /* USER CODE END Init */

  /* Configure the system clock */
  SystemClock_Config();
 8001d30:	f000 f814 	bl	8001d5c <SystemClock_Config>
  /* USER CODE BEGIN SysInit */

  /* USER CODE END SysInit */

  /* Initialize all configured peripherals */
  MX_GPIO_Init();
 8001d34:	f000 f8a6 	bl	8001e84 <MX_GPIO_Init>
  MX_USART2_UART_Init();
 8001d38:	f000 f87a 	bl	8001e30 <MX_USART2_UART_Init>
  /* USER CODE BEGIN 2 */
  Sensors_Init();
 8001d3c:	f7fe fc36 	bl	80005ac <Sensors_Init>
  ServiceDelay(500U);
 8001d40:	f44f 70fa 	mov.w	r0, #500	@ 0x1f4
 8001d44:	f7ff fa9a 	bl	800127c <ServiceDelay>
  (void)ESP_InitModule();
 8001d48:	f7ff f920 	bl	8000f8c <ESP_InitModule>
  (void)ESP_EnsureTcpConnected();
 8001d4c:	f7ff f994 	bl	8001078 <ESP_EnsureTcpConnected>

  /* Infinite loop */
  /* USER CODE BEGIN WHILE */
  while (1)
  {
    Sensors_Service();
 8001d50:	f7fe fc50 	bl	80005f4 <Sensors_Service>
    Telemetry_Service();
 8001d54:	f7ff fa4a 	bl	80011ec <Telemetry_Service>
    Sensors_Service();
 8001d58:	bf00      	nop
 8001d5a:	e7f9      	b.n	8001d50 <main+0x28>

08001d5c <SystemClock_Config>:
/**
  * @brief System Clock Configuration
  * @retval None
  */
void SystemClock_Config(void)
{
 8001d5c:	b580      	push	{r7, lr}
 8001d5e:	b094      	sub	sp, #80	@ 0x50
 8001d60:	af00      	add	r7, sp, #0
  RCC_OscInitTypeDef RCC_OscInitStruct = {0};
 8001d62:	f107 0320 	add.w	r3, r7, #32
 8001d66:	2230      	movs	r2, #48	@ 0x30
 8001d68:	2100      	movs	r1, #0
 8001d6a:	4618      	mov	r0, r3
 8001d6c:	f003 fae6 	bl	800533c <memset>
  RCC_ClkInitTypeDef RCC_ClkInitStruct = {0};
 8001d70:	f107 030c 	add.w	r3, r7, #12
 8001d74:	2200      	movs	r2, #0
 8001d76:	601a      	str	r2, [r3, #0]
 8001d78:	605a      	str	r2, [r3, #4]
 8001d7a:	609a      	str	r2, [r3, #8]
 8001d7c:	60da      	str	r2, [r3, #12]
 8001d7e:	611a      	str	r2, [r3, #16]

  /** Configure the main internal regulator output voltage
  */
  __HAL_RCC_PWR_CLK_ENABLE();
 8001d80:	2300      	movs	r3, #0
 8001d82:	60bb      	str	r3, [r7, #8]
 8001d84:	4b28      	ldr	r3, [pc, #160]	@ (8001e28 <SystemClock_Config+0xcc>)
 8001d86:	6c1b      	ldr	r3, [r3, #64]	@ 0x40
 8001d88:	4a27      	ldr	r2, [pc, #156]	@ (8001e28 <SystemClock_Config+0xcc>)
 8001d8a:	f043 5380 	orr.w	r3, r3, #268435456	@ 0x10000000
 8001d8e:	6413      	str	r3, [r2, #64]	@ 0x40
 8001d90:	4b25      	ldr	r3, [pc, #148]	@ (8001e28 <SystemClock_Config+0xcc>)
 8001d92:	6c1b      	ldr	r3, [r3, #64]	@ 0x40
 8001d94:	f003 5380 	and.w	r3, r3, #268435456	@ 0x10000000
 8001d98:	60bb      	str	r3, [r7, #8]
 8001d9a:	68bb      	ldr	r3, [r7, #8]
  __HAL_PWR_VOLTAGESCALING_CONFIG(PWR_REGULATOR_VOLTAGE_SCALE1);
 8001d9c:	2300      	movs	r3, #0
 8001d9e:	607b      	str	r3, [r7, #4]
 8001da0:	4b22      	ldr	r3, [pc, #136]	@ (8001e2c <SystemClock_Config+0xd0>)
 8001da2:	681b      	ldr	r3, [r3, #0]
 8001da4:	4a21      	ldr	r2, [pc, #132]	@ (8001e2c <SystemClock_Config+0xd0>)
 8001da6:	f443 4380 	orr.w	r3, r3, #16384	@ 0x4000
 8001daa:	6013      	str	r3, [r2, #0]
 8001dac:	4b1f      	ldr	r3, [pc, #124]	@ (8001e2c <SystemClock_Config+0xd0>)
 8001dae:	681b      	ldr	r3, [r3, #0]
 8001db0:	f403 4380 	and.w	r3, r3, #16384	@ 0x4000
 8001db4:	607b      	str	r3, [r7, #4]
 8001db6:	687b      	ldr	r3, [r7, #4]

  /** Initializes the RCC Oscillators according to the specified parameters
  * in the RCC_OscInitTypeDef structure.
  */
  RCC_OscInitStruct.OscillatorType = RCC_OSCILLATORTYPE_HSE;
 8001db8:	2301      	movs	r3, #1
 8001dba:	623b      	str	r3, [r7, #32]
  RCC_OscInitStruct.HSEState = RCC_HSE_ON;
 8001dbc:	f44f 3380 	mov.w	r3, #65536	@ 0x10000
 8001dc0:	627b      	str	r3, [r7, #36]	@ 0x24
  RCC_OscInitStruct.PLL.PLLState = RCC_PLL_ON;
 8001dc2:	2302      	movs	r3, #2
 8001dc4:	63bb      	str	r3, [r7, #56]	@ 0x38
  RCC_OscInitStruct.PLL.PLLSource = RCC_PLLSOURCE_HSE;
 8001dc6:	f44f 0380 	mov.w	r3, #4194304	@ 0x400000
 8001dca:	63fb      	str	r3, [r7, #60]	@ 0x3c
  RCC_OscInitStruct.PLL.PLLM = 4;
 8001dcc:	2304      	movs	r3, #4
 8001dce:	643b      	str	r3, [r7, #64]	@ 0x40
  RCC_OscInitStruct.PLL.PLLN = 168;
 8001dd0:	23a8      	movs	r3, #168	@ 0xa8
 8001dd2:	647b      	str	r3, [r7, #68]	@ 0x44
  RCC_OscInitStruct.PLL.PLLP = RCC_PLLP_DIV2;
 8001dd4:	2302      	movs	r3, #2
 8001dd6:	64bb      	str	r3, [r7, #72]	@ 0x48
  RCC_OscInitStruct.PLL.PLLQ = 4;
 8001dd8:	2304      	movs	r3, #4
 8001dda:	64fb      	str	r3, [r7, #76]	@ 0x4c
  if (HAL_RCC_OscConfig(&RCC_OscInitStruct) != HAL_OK)
 8001ddc:	f107 0320 	add.w	r3, r7, #32
 8001de0:	4618      	mov	r0, r3
 8001de2:	f002 f921 	bl	8004028 <HAL_RCC_OscConfig>
 8001de6:	4603      	mov	r3, r0
 8001de8:	2b00      	cmp	r3, #0
 8001dea:	d001      	beq.n	8001df0 <SystemClock_Config+0x94>
  {
    Error_Handler();
 8001dec:	f000 f912 	bl	8002014 <Error_Handler>
  }

  /** Initializes the CPU, AHB and APB buses clocks
  */
  RCC_ClkInitStruct.ClockType = RCC_CLOCKTYPE_HCLK|RCC_CLOCKTYPE_SYSCLK
 8001df0:	230f      	movs	r3, #15
 8001df2:	60fb      	str	r3, [r7, #12]
                              |RCC_CLOCKTYPE_PCLK1|RCC_CLOCKTYPE_PCLK2;
  RCC_ClkInitStruct.SYSCLKSource = RCC_SYSCLKSOURCE_PLLCLK;
 8001df4:	2302      	movs	r3, #2
 8001df6:	613b      	str	r3, [r7, #16]
  RCC_ClkInitStruct.AHBCLKDivider = RCC_SYSCLK_DIV1;
 8001df8:	2300      	movs	r3, #0
 8001dfa:	617b      	str	r3, [r7, #20]
  RCC_ClkInitStruct.APB1CLKDivider = RCC_HCLK_DIV4;
 8001dfc:	f44f 53a0 	mov.w	r3, #5120	@ 0x1400
 8001e00:	61bb      	str	r3, [r7, #24]
  RCC_ClkInitStruct.APB2CLKDivider = RCC_HCLK_DIV2;
 8001e02:	f44f 5380 	mov.w	r3, #4096	@ 0x1000
 8001e06:	61fb      	str	r3, [r7, #28]

  if (HAL_RCC_ClockConfig(&RCC_ClkInitStruct, FLASH_LATENCY_5) != HAL_OK)
 8001e08:	f107 030c 	add.w	r3, r7, #12
 8001e0c:	2105      	movs	r1, #5
 8001e0e:	4618      	mov	r0, r3
 8001e10:	f002 fb82 	bl	8004518 <HAL_RCC_ClockConfig>
 8001e14:	4603      	mov	r3, r0
 8001e16:	2b00      	cmp	r3, #0
 8001e18:	d001      	beq.n	8001e1e <SystemClock_Config+0xc2>
  {
    Error_Handler();
 8001e1a:	f000 f8fb 	bl	8002014 <Error_Handler>
  }
}
 8001e1e:	bf00      	nop
 8001e20:	3750      	adds	r7, #80	@ 0x50
 8001e22:	46bd      	mov	sp, r7
 8001e24:	bd80      	pop	{r7, pc}
 8001e26:	bf00      	nop
 8001e28:	40023800 	.word	0x40023800
 8001e2c:	40007000 	.word	0x40007000

08001e30 <MX_USART2_UART_Init>:
  * @brief USART2 Initialization Function
  * @param None
  * @retval None
  */
static void MX_USART2_UART_Init(void)
{
 8001e30:	b580      	push	{r7, lr}
 8001e32:	af00      	add	r7, sp, #0
  /* USER CODE END USART2_Init 0 */

  /* USER CODE BEGIN USART2_Init 1 */

  /* USER CODE END USART2_Init 1 */
  huart2.Instance = USART2;
 8001e34:	4b11      	ldr	r3, [pc, #68]	@ (8001e7c <MX_USART2_UART_Init+0x4c>)
 8001e36:	4a12      	ldr	r2, [pc, #72]	@ (8001e80 <MX_USART2_UART_Init+0x50>)
 8001e38:	601a      	str	r2, [r3, #0]
  huart2.Init.BaudRate = 115200;
 8001e3a:	4b10      	ldr	r3, [pc, #64]	@ (8001e7c <MX_USART2_UART_Init+0x4c>)
 8001e3c:	f44f 32e1 	mov.w	r2, #115200	@ 0x1c200
 8001e40:	605a      	str	r2, [r3, #4]
  huart2.Init.WordLength = UART_WORDLENGTH_8B;
 8001e42:	4b0e      	ldr	r3, [pc, #56]	@ (8001e7c <MX_USART2_UART_Init+0x4c>)
 8001e44:	2200      	movs	r2, #0
 8001e46:	609a      	str	r2, [r3, #8]
  huart2.Init.StopBits = UART_STOPBITS_1;
 8001e48:	4b0c      	ldr	r3, [pc, #48]	@ (8001e7c <MX_USART2_UART_Init+0x4c>)
 8001e4a:	2200      	movs	r2, #0
 8001e4c:	60da      	str	r2, [r3, #12]
  huart2.Init.Parity = UART_PARITY_NONE;
 8001e4e:	4b0b      	ldr	r3, [pc, #44]	@ (8001e7c <MX_USART2_UART_Init+0x4c>)
 8001e50:	2200      	movs	r2, #0
 8001e52:	611a      	str	r2, [r3, #16]
  huart2.Init.Mode = UART_MODE_TX_RX;
 8001e54:	4b09      	ldr	r3, [pc, #36]	@ (8001e7c <MX_USART2_UART_Init+0x4c>)
 8001e56:	220c      	movs	r2, #12
 8001e58:	615a      	str	r2, [r3, #20]
  huart2.Init.HwFlowCtl = UART_HWCONTROL_NONE;
 8001e5a:	4b08      	ldr	r3, [pc, #32]	@ (8001e7c <MX_USART2_UART_Init+0x4c>)
 8001e5c:	2200      	movs	r2, #0
 8001e5e:	619a      	str	r2, [r3, #24]
  huart2.Init.OverSampling = UART_OVERSAMPLING_16;
 8001e60:	4b06      	ldr	r3, [pc, #24]	@ (8001e7c <MX_USART2_UART_Init+0x4c>)
 8001e62:	2200      	movs	r2, #0
 8001e64:	61da      	str	r2, [r3, #28]
  if (HAL_UART_Init(&huart2) != HAL_OK)
 8001e66:	4805      	ldr	r0, [pc, #20]	@ (8001e7c <MX_USART2_UART_Init+0x4c>)
 8001e68:	f002 fd76 	bl	8004958 <HAL_UART_Init>
 8001e6c:	4603      	mov	r3, r0
 8001e6e:	2b00      	cmp	r3, #0
 8001e70:	d001      	beq.n	8001e76 <MX_USART2_UART_Init+0x46>
  {
    Error_Handler();
 8001e72:	f000 f8cf 	bl	8002014 <Error_Handler>
  }
  /* USER CODE BEGIN USART2_Init 2 */

  /* USER CODE END USART2_Init 2 */

}
 8001e76:	bf00      	nop
 8001e78:	bd80      	pop	{r7, pc}
 8001e7a:	bf00      	nop
 8001e7c:	20000078 	.word	0x20000078
 8001e80:	40004400 	.word	0x40004400

08001e84 <MX_GPIO_Init>:
  * @brief GPIO Initialization Function
  * @param None
  * @retval None
  */
static void MX_GPIO_Init(void)
{
 8001e84:	b580      	push	{r7, lr}
 8001e86:	b088      	sub	sp, #32
 8001e88:	af00      	add	r7, sp, #0
  GPIO_InitTypeDef GPIO_InitStruct = {0};
 8001e8a:	f107 030c 	add.w	r3, r7, #12
 8001e8e:	2200      	movs	r2, #0
 8001e90:	601a      	str	r2, [r3, #0]
 8001e92:	605a      	str	r2, [r3, #4]
 8001e94:	609a      	str	r2, [r3, #8]
 8001e96:	60da      	str	r2, [r3, #12]
 8001e98:	611a      	str	r2, [r3, #16]
  /* USER CODE BEGIN MX_GPIO_Init_1 */

  /* USER CODE END MX_GPIO_Init_1 */

  /* GPIO Ports Clock Enable */
  __HAL_RCC_GPIOH_CLK_ENABLE();
 8001e9a:	2300      	movs	r3, #0
 8001e9c:	60bb      	str	r3, [r7, #8]
 8001e9e:	4b4f      	ldr	r3, [pc, #316]	@ (8001fdc <MX_GPIO_Init+0x158>)
 8001ea0:	6b1b      	ldr	r3, [r3, #48]	@ 0x30
 8001ea2:	4a4e      	ldr	r2, [pc, #312]	@ (8001fdc <MX_GPIO_Init+0x158>)
 8001ea4:	f043 0380 	orr.w	r3, r3, #128	@ 0x80
 8001ea8:	6313      	str	r3, [r2, #48]	@ 0x30
 8001eaa:	4b4c      	ldr	r3, [pc, #304]	@ (8001fdc <MX_GPIO_Init+0x158>)
 8001eac:	6b1b      	ldr	r3, [r3, #48]	@ 0x30
 8001eae:	f003 0380 	and.w	r3, r3, #128	@ 0x80
 8001eb2:	60bb      	str	r3, [r7, #8]
 8001eb4:	68bb      	ldr	r3, [r7, #8]
  __HAL_RCC_GPIOA_CLK_ENABLE();
 8001eb6:	2300      	movs	r3, #0
 8001eb8:	607b      	str	r3, [r7, #4]
 8001eba:	4b48      	ldr	r3, [pc, #288]	@ (8001fdc <MX_GPIO_Init+0x158>)
 8001ebc:	6b1b      	ldr	r3, [r3, #48]	@ 0x30
 8001ebe:	4a47      	ldr	r2, [pc, #284]	@ (8001fdc <MX_GPIO_Init+0x158>)
 8001ec0:	f043 0301 	orr.w	r3, r3, #1
 8001ec4:	6313      	str	r3, [r2, #48]	@ 0x30
 8001ec6:	4b45      	ldr	r3, [pc, #276]	@ (8001fdc <MX_GPIO_Init+0x158>)
 8001ec8:	6b1b      	ldr	r3, [r3, #48]	@ 0x30
 8001eca:	f003 0301 	and.w	r3, r3, #1
 8001ece:	607b      	str	r3, [r7, #4]
 8001ed0:	687b      	ldr	r3, [r7, #4]
  __HAL_RCC_GPIOB_CLK_ENABLE();
 8001ed2:	2300      	movs	r3, #0
 8001ed4:	603b      	str	r3, [r7, #0]
 8001ed6:	4b41      	ldr	r3, [pc, #260]	@ (8001fdc <MX_GPIO_Init+0x158>)
 8001ed8:	6b1b      	ldr	r3, [r3, #48]	@ 0x30
 8001eda:	4a40      	ldr	r2, [pc, #256]	@ (8001fdc <MX_GPIO_Init+0x158>)
 8001edc:	f043 0302 	orr.w	r3, r3, #2
 8001ee0:	6313      	str	r3, [r2, #48]	@ 0x30
 8001ee2:	4b3e      	ldr	r3, [pc, #248]	@ (8001fdc <MX_GPIO_Init+0x158>)
 8001ee4:	6b1b      	ldr	r3, [r3, #48]	@ 0x30
 8001ee6:	f003 0302 	and.w	r3, r3, #2
 8001eea:	603b      	str	r3, [r7, #0]
 8001eec:	683b      	ldr	r3, [r7, #0]

  HAL_GPIO_WritePin(FLOW_RELAY_GPIO_Port, FLOW_RELAY_Pin,
 8001eee:	2201      	movs	r2, #1
 8001ef0:	2102      	movs	r1, #2
 8001ef2:	483b      	ldr	r0, [pc, #236]	@ (8001fe0 <MX_GPIO_Init+0x15c>)
 8001ef4:	f002 f866 	bl	8003fc4 <HAL_GPIO_WritePin>
                    (FLOW_RELAY_ACTIVE_LEVEL == GPIO_PIN_SET) ? GPIO_PIN_RESET : GPIO_PIN_SET);
  HAL_GPIO_WritePin(FROST_RELAY_GPIO_Port, FROST_RELAY_Pin,
 8001ef8:	2201      	movs	r2, #1
 8001efa:	2120      	movs	r1, #32
 8001efc:	4838      	ldr	r0, [pc, #224]	@ (8001fe0 <MX_GPIO_Init+0x15c>)
 8001efe:	f002 f861 	bl	8003fc4 <HAL_GPIO_WritePin>
                    (FROST_RELAY_ACTIVE_LEVEL == GPIO_PIN_SET) ? GPIO_PIN_RESET : GPIO_PIN_SET);
  HAL_GPIO_WritePin(BUZZER_GPIO_Port, BUZZER_Pin,
 8001f02:	2200      	movs	r2, #0
 8001f04:	2102      	movs	r1, #2
 8001f06:	4837      	ldr	r0, [pc, #220]	@ (8001fe4 <MX_GPIO_Init+0x160>)
 8001f08:	f002 f85c 	bl	8003fc4 <HAL_GPIO_WritePin>
                    (BUZZER_ACTIVE_LEVEL == GPIO_PIN_SET) ? GPIO_PIN_RESET : GPIO_PIN_SET);

  /*Configure GPIO pin Output Level */
  HAL_GPIO_WritePin(GPIOB, GPIO_PIN_6|GPIO_PIN_7|GPIO_PIN_8|GPIO_PIN_9, GPIO_PIN_RESET);
 8001f0c:	2200      	movs	r2, #0
 8001f0e:	f44f 7170 	mov.w	r1, #960	@ 0x3c0
 8001f12:	4833      	ldr	r0, [pc, #204]	@ (8001fe0 <MX_GPIO_Init+0x15c>)
 8001f14:	f002 f856 	bl	8003fc4 <HAL_GPIO_WritePin>

  /*Configure GPIO pin : PA0 */
  GPIO_InitStruct.Pin = GPIO_PIN_0;
 8001f18:	2301      	movs	r3, #1
 8001f1a:	60fb      	str	r3, [r7, #12]
  GPIO_InitStruct.Mode = GPIO_MODE_IT_RISING;
 8001f1c:	f44f 1388 	mov.w	r3, #1114112	@ 0x110000
 8001f20:	613b      	str	r3, [r7, #16]
  GPIO_InitStruct.Pull = GPIO_PULLUP;
 8001f22:	2301      	movs	r3, #1
 8001f24:	617b      	str	r3, [r7, #20]
  HAL_GPIO_Init(GPIOA, &GPIO_InitStruct);
 8001f26:	f107 030c 	add.w	r3, r7, #12
 8001f2a:	4619      	mov	r1, r3
 8001f2c:	482d      	ldr	r0, [pc, #180]	@ (8001fe4 <MX_GPIO_Init+0x160>)
 8001f2e:	f001 fe95 	bl	8003c5c <HAL_GPIO_Init>

  /*Configure GPIO pin : PA1 */
  GPIO_InitStruct.Pin = GPIO_PIN_1;
 8001f32:	2302      	movs	r3, #2
 8001f34:	60fb      	str	r3, [r7, #12]
  GPIO_InitStruct.Mode = GPIO_MODE_OUTPUT_PP;
 8001f36:	2301      	movs	r3, #1
 8001f38:	613b      	str	r3, [r7, #16]
  GPIO_InitStruct.Pull = GPIO_NOPULL;
 8001f3a:	2300      	movs	r3, #0
 8001f3c:	617b      	str	r3, [r7, #20]
  GPIO_InitStruct.Speed = GPIO_SPEED_FREQ_LOW;
 8001f3e:	2300      	movs	r3, #0
 8001f40:	61bb      	str	r3, [r7, #24]
  HAL_GPIO_Init(GPIOA, &GPIO_InitStruct);
 8001f42:	f107 030c 	add.w	r3, r7, #12
 8001f46:	4619      	mov	r1, r3
 8001f48:	4826      	ldr	r0, [pc, #152]	@ (8001fe4 <MX_GPIO_Init+0x160>)
 8001f4a:	f001 fe87 	bl	8003c5c <HAL_GPIO_Init>

  /*Configure GPIO pin : PB0 */
  GPIO_InitStruct.Pin = GPIO_PIN_0;
 8001f4e:	2301      	movs	r3, #1
 8001f50:	60fb      	str	r3, [r7, #12]
  GPIO_InitStruct.Mode = GPIO_MODE_INPUT;
 8001f52:	2300      	movs	r3, #0
 8001f54:	613b      	str	r3, [r7, #16]
  GPIO_InitStruct.Pull = GPIO_NOPULL;
 8001f56:	2300      	movs	r3, #0
 8001f58:	617b      	str	r3, [r7, #20]
  HAL_GPIO_Init(GPIOB, &GPIO_InitStruct);
 8001f5a:	f107 030c 	add.w	r3, r7, #12
 8001f5e:	4619      	mov	r1, r3
 8001f60:	481f      	ldr	r0, [pc, #124]	@ (8001fe0 <MX_GPIO_Init+0x15c>)
 8001f62:	f001 fe7b 	bl	8003c5c <HAL_GPIO_Init>

  /*Configure GPIO pins : PB1 PB5 PB6 PB7
                           PB8 PB9 */
  GPIO_InitStruct.Pin = GPIO_PIN_1|GPIO_PIN_5|GPIO_PIN_6|GPIO_PIN_7
 8001f66:	f240 33e2 	movw	r3, #994	@ 0x3e2
 8001f6a:	60fb      	str	r3, [r7, #12]
                          |GPIO_PIN_8|GPIO_PIN_9;
  GPIO_InitStruct.Mode = GPIO_MODE_OUTPUT_PP;
 8001f6c:	2301      	movs	r3, #1
 8001f6e:	613b      	str	r3, [r7, #16]
  GPIO_InitStruct.Pull = GPIO_NOPULL;
 8001f70:	2300      	movs	r3, #0
 8001f72:	617b      	str	r3, [r7, #20]
  GPIO_InitStruct.Speed = GPIO_SPEED_FREQ_LOW;
 8001f74:	2300      	movs	r3, #0
 8001f76:	61bb      	str	r3, [r7, #24]
  HAL_GPIO_Init(GPIOB, &GPIO_InitStruct);
 8001f78:	f107 030c 	add.w	r3, r7, #12
 8001f7c:	4619      	mov	r1, r3
 8001f7e:	4818      	ldr	r0, [pc, #96]	@ (8001fe0 <MX_GPIO_Init+0x15c>)
 8001f80:	f001 fe6c 	bl	8003c5c <HAL_GPIO_Init>

  /* EXTI interrupt init*/
  HAL_NVIC_SetPriority(EXTI0_IRQn, 0, 0);
 8001f84:	2200      	movs	r2, #0
 8001f86:	2100      	movs	r1, #0
 8001f88:	2006      	movs	r0, #6
 8001f8a:	f001 fe30 	bl	8003bee <HAL_NVIC_SetPriority>
  HAL_NVIC_EnableIRQ(EXTI0_IRQn);
 8001f8e:	2006      	movs	r0, #6
 8001f90:	f001 fe49 	bl	8003c26 <HAL_NVIC_EnableIRQ>

  /* USER CODE BEGIN MX_GPIO_Init_2 */
  HAL_GPIO_WritePin(FLOW_RELAY_GPIO_Port, FLOW_RELAY_Pin,
 8001f94:	2201      	movs	r2, #1
 8001f96:	2102      	movs	r1, #2
 8001f98:	4811      	ldr	r0, [pc, #68]	@ (8001fe0 <MX_GPIO_Init+0x15c>)
 8001f9a:	f002 f813 	bl	8003fc4 <HAL_GPIO_WritePin>
                    (FLOW_RELAY_ACTIVE_LEVEL == GPIO_PIN_SET) ? GPIO_PIN_RESET : GPIO_PIN_SET);
  HAL_GPIO_WritePin(FROST_RELAY_GPIO_Port, FROST_RELAY_Pin,
 8001f9e:	2201      	movs	r2, #1
 8001fa0:	2120      	movs	r1, #32
 8001fa2:	480f      	ldr	r0, [pc, #60]	@ (8001fe0 <MX_GPIO_Init+0x15c>)
 8001fa4:	f002 f80e 	bl	8003fc4 <HAL_GPIO_WritePin>
                    (FROST_RELAY_ACTIVE_LEVEL == GPIO_PIN_SET) ? GPIO_PIN_RESET : GPIO_PIN_SET);
  GPIO_InitStruct.Pin = STEPPER_IN1_Pin | STEPPER_IN2_Pin | STEPPER_IN3_Pin | STEPPER_IN4_Pin;
 8001fa8:	f44f 7370 	mov.w	r3, #960	@ 0x3c0
 8001fac:	60fb      	str	r3, [r7, #12]
  GPIO_InitStruct.Mode = GPIO_MODE_OUTPUT_PP;
 8001fae:	2301      	movs	r3, #1
 8001fb0:	613b      	str	r3, [r7, #16]
  GPIO_InitStruct.Pull = GPIO_NOPULL;
 8001fb2:	2300      	movs	r3, #0
 8001fb4:	617b      	str	r3, [r7, #20]
  GPIO_InitStruct.Speed = GPIO_SPEED_FREQ_LOW;
 8001fb6:	2300      	movs	r3, #0
 8001fb8:	61bb      	str	r3, [r7, #24]
  HAL_GPIO_Init(GPIOB, &GPIO_InitStruct);
 8001fba:	f107 030c 	add.w	r3, r7, #12
 8001fbe:	4619      	mov	r1, r3
 8001fc0:	4807      	ldr	r0, [pc, #28]	@ (8001fe0 <MX_GPIO_Init+0x15c>)
 8001fc2:	f001 fe4b 	bl	8003c5c <HAL_GPIO_Init>

  HAL_GPIO_WritePin(GPIOB, STEPPER_IN1_Pin | STEPPER_IN2_Pin | STEPPER_IN3_Pin | STEPPER_IN4_Pin, GPIO_PIN_RESET);
 8001fc6:	2200      	movs	r2, #0
 8001fc8:	f44f 7170 	mov.w	r1, #960	@ 0x3c0
 8001fcc:	4804      	ldr	r0, [pc, #16]	@ (8001fe0 <MX_GPIO_Init+0x15c>)
 8001fce:	f001 fff9 	bl	8003fc4 <HAL_GPIO_WritePin>

  /* USER CODE END MX_GPIO_Init_2 */
}
 8001fd2:	bf00      	nop
 8001fd4:	3720      	adds	r7, #32
 8001fd6:	46bd      	mov	sp, r7
 8001fd8:	bd80      	pop	{r7, pc}
 8001fda:	bf00      	nop
 8001fdc:	40023800 	.word	0x40023800
 8001fe0:	40020400 	.word	0x40020400
 8001fe4:	40020000 	.word	0x40020000

08001fe8 <HAL_GPIO_EXTI_Callback>:

/* USER CODE BEGIN 4 */
void HAL_GPIO_EXTI_Callback(uint16_t GPIO_Pin)
{
 8001fe8:	b480      	push	{r7}
 8001fea:	b083      	sub	sp, #12
 8001fec:	af00      	add	r7, sp, #0
 8001fee:	4603      	mov	r3, r0
 8001ff0:	80fb      	strh	r3, [r7, #6]
  if (GPIO_Pin == FLOW_SENSOR_Pin)
 8001ff2:	88fb      	ldrh	r3, [r7, #6]
 8001ff4:	2b01      	cmp	r3, #1
 8001ff6:	d104      	bne.n	8002002 <HAL_GPIO_EXTI_Callback+0x1a>
  {
    g_flow_pulse_count++;
 8001ff8:	4b05      	ldr	r3, [pc, #20]	@ (8002010 <HAL_GPIO_EXTI_Callback+0x28>)
 8001ffa:	681b      	ldr	r3, [r3, #0]
 8001ffc:	3301      	adds	r3, #1
 8001ffe:	4a04      	ldr	r2, [pc, #16]	@ (8002010 <HAL_GPIO_EXTI_Callback+0x28>)
 8002000:	6013      	str	r3, [r2, #0]
  }
}
 8002002:	bf00      	nop
 8002004:	370c      	adds	r7, #12
 8002006:	46bd      	mov	sp, r7
 8002008:	f85d 7b04 	ldr.w	r7, [sp], #4
 800200c:	4770      	bx	lr
 800200e:	bf00      	nop
 8002010:	200000d4 	.word	0x200000d4

08002014 <Error_Handler>:
/**
  * @brief  This function is executed in case of error occurrence.
  * @retval None
  */
void Error_Handler(void)
{
 8002014:	b480      	push	{r7}
 8002016:	af00      	add	r7, sp, #0
  \details Disables IRQ interrupts by setting special-purpose register PRIMASK.
           Can only be executed in Privileged modes.
 */
__STATIC_FORCEINLINE void __disable_irq(void)
{
  __ASM volatile ("cpsid i" : : : "memory");
 8002018:	b672      	cpsid	i
}
 800201a:	bf00      	nop
  /* USER CODE BEGIN Error_Handler_Debug */
  /* User can add his own implementation to report the HAL error return state */
  __disable_irq();
  while (1)
 800201c:	bf00      	nop
 800201e:	e7fd      	b.n	800201c <Error_Handler+0x8>

08002020 <sha256_rotr>:
    0xA2BFE8A1UL, 0xA81A664BUL, 0xC24B8B70UL, 0xC76C51A3UL, 0xD192E819UL, 0xD6990624UL, 0xF40E3585UL, 0x106AA070UL,
    0x19A4C116UL, 0x1E376C08UL, 0x2748774CUL, 0x34B0BCB5UL, 0x391C0CB3UL, 0x4ED8AA4AUL, 0x5B9CCA4FUL, 0x682E6FF3UL,
    0x748F82EEUL, 0x78A5636FUL, 0x84C87814UL, 0x8CC70208UL, 0x90BEFFFAUL, 0xA4506CEBUL, 0xBEF9A3F7UL, 0xC67178F2UL};

static uint32_t sha256_rotr(uint32_t value, uint32_t bits)
{
 8002020:	b480      	push	{r7}
 8002022:	b083      	sub	sp, #12
 8002024:	af00      	add	r7, sp, #0
 8002026:	6078      	str	r0, [r7, #4]
 8002028:	6039      	str	r1, [r7, #0]
  return (value >> bits) | (value << (32U - bits));
 800202a:	687a      	ldr	r2, [r7, #4]
 800202c:	683b      	ldr	r3, [r7, #0]
 800202e:	fa62 f303 	ror.w	r3, r2, r3
}
 8002032:	4618      	mov	r0, r3
 8002034:	370c      	adds	r7, #12
 8002036:	46bd      	mov	sp, r7
 8002038:	f85d 7b04 	ldr.w	r7, [sp], #4
 800203c:	4770      	bx	lr

0800203e <aes_xtime>:

static uint8_t aes_xtime(uint8_t value)
{
 800203e:	b480      	push	{r7}
 8002040:	b083      	sub	sp, #12
 8002042:	af00      	add	r7, sp, #0
 8002044:	4603      	mov	r3, r0
 8002046:	71fb      	strb	r3, [r7, #7]
  return (uint8_t)((value << 1) ^ (((value >> 7) & 0x01U) * 0x1BU));
 8002048:	79fb      	ldrb	r3, [r7, #7]
 800204a:	005b      	lsls	r3, r3, #1
 800204c:	b2da      	uxtb	r2, r3
 800204e:	79fb      	ldrb	r3, [r7, #7]
 8002050:	09db      	lsrs	r3, r3, #7
 8002052:	b2db      	uxtb	r3, r3
 8002054:	4619      	mov	r1, r3
 8002056:	0049      	lsls	r1, r1, #1
 8002058:	440b      	add	r3, r1
 800205a:	4619      	mov	r1, r3
 800205c:	00c8      	lsls	r0, r1, #3
 800205e:	4619      	mov	r1, r3
 8002060:	4603      	mov	r3, r0
 8002062:	440b      	add	r3, r1
 8002064:	b2db      	uxtb	r3, r3
 8002066:	4053      	eors	r3, r2
 8002068:	b2db      	uxtb	r3, r3
}
 800206a:	4618      	mov	r0, r3
 800206c:	370c      	adds	r7, #12
 800206e:	46bd      	mov	sp, r7
 8002070:	f85d 7b04 	ldr.w	r7, [sp], #4
 8002074:	4770      	bx	lr
	...

08002078 <bytes_to_hex>:

static void bytes_to_hex(const uint8_t *input, size_t input_len, char *output)
{
 8002078:	b480      	push	{r7}
 800207a:	b087      	sub	sp, #28
 800207c:	af00      	add	r7, sp, #0
 800207e:	60f8      	str	r0, [r7, #12]
 8002080:	60b9      	str	r1, [r7, #8]
 8002082:	607a      	str	r2, [r7, #4]
  static const char hex_digits[] = "0123456789ABCDEF";

  for (size_t i = 0U; i < input_len; i++)
 8002084:	2300      	movs	r3, #0
 8002086:	617b      	str	r3, [r7, #20]
 8002088:	e01f      	b.n	80020ca <bytes_to_hex+0x52>
  {
    output[i * 2U] = hex_digits[(input[i] >> 4) & 0x0FU];
 800208a:	68fa      	ldr	r2, [r7, #12]
 800208c:	697b      	ldr	r3, [r7, #20]
 800208e:	4413      	add	r3, r2
 8002090:	781b      	ldrb	r3, [r3, #0]
 8002092:	091b      	lsrs	r3, r3, #4
 8002094:	b2db      	uxtb	r3, r3
 8002096:	f003 020f 	and.w	r2, r3, #15
 800209a:	697b      	ldr	r3, [r7, #20]
 800209c:	005b      	lsls	r3, r3, #1
 800209e:	6879      	ldr	r1, [r7, #4]
 80020a0:	440b      	add	r3, r1
 80020a2:	490f      	ldr	r1, [pc, #60]	@ (80020e0 <bytes_to_hex+0x68>)
 80020a4:	5c8a      	ldrb	r2, [r1, r2]
 80020a6:	701a      	strb	r2, [r3, #0]
    output[(i * 2U) + 1U] = hex_digits[input[i] & 0x0FU];
 80020a8:	68fa      	ldr	r2, [r7, #12]
 80020aa:	697b      	ldr	r3, [r7, #20]
 80020ac:	4413      	add	r3, r2
 80020ae:	781b      	ldrb	r3, [r3, #0]
 80020b0:	f003 020f 	and.w	r2, r3, #15
 80020b4:	697b      	ldr	r3, [r7, #20]
 80020b6:	005b      	lsls	r3, r3, #1
 80020b8:	3301      	adds	r3, #1
 80020ba:	6879      	ldr	r1, [r7, #4]
 80020bc:	440b      	add	r3, r1
 80020be:	4908      	ldr	r1, [pc, #32]	@ (80020e0 <bytes_to_hex+0x68>)
 80020c0:	5c8a      	ldrb	r2, [r1, r2]
 80020c2:	701a      	strb	r2, [r3, #0]
  for (size_t i = 0U; i < input_len; i++)
 80020c4:	697b      	ldr	r3, [r7, #20]
 80020c6:	3301      	adds	r3, #1
 80020c8:	617b      	str	r3, [r7, #20]
 80020ca:	697a      	ldr	r2, [r7, #20]
 80020cc:	68bb      	ldr	r3, [r7, #8]
 80020ce:	429a      	cmp	r2, r3
 80020d0:	d3db      	bcc.n	800208a <bytes_to_hex+0x12>
  }
}
 80020d2:	bf00      	nop
 80020d4:	bf00      	nop
 80020d6:	371c      	adds	r7, #28
 80020d8:	46bd      	mov	sp, r7
 80020da:	f85d 7b04 	ldr.w	r7, [sp], #4
 80020de:	4770      	bx	lr
 80020e0:	0800604c 	.word	0x0800604c

080020e4 <store_be32>:

static void store_be32(uint32_t value, uint8_t output[4])
{
 80020e4:	b480      	push	{r7}
 80020e6:	b083      	sub	sp, #12
 80020e8:	af00      	add	r7, sp, #0
 80020ea:	6078      	str	r0, [r7, #4]
 80020ec:	6039      	str	r1, [r7, #0]
  output[0] = (uint8_t)(value >> 24U);
 80020ee:	687b      	ldr	r3, [r7, #4]
 80020f0:	0e1b      	lsrs	r3, r3, #24
 80020f2:	b2da      	uxtb	r2, r3
 80020f4:	683b      	ldr	r3, [r7, #0]
 80020f6:	701a      	strb	r2, [r3, #0]
  output[1] = (uint8_t)(value >> 16U);
 80020f8:	687b      	ldr	r3, [r7, #4]
 80020fa:	0c1a      	lsrs	r2, r3, #16
 80020fc:	683b      	ldr	r3, [r7, #0]
 80020fe:	3301      	adds	r3, #1
 8002100:	b2d2      	uxtb	r2, r2
 8002102:	701a      	strb	r2, [r3, #0]
  output[2] = (uint8_t)(value >> 8U);
 8002104:	687b      	ldr	r3, [r7, #4]
 8002106:	0a1a      	lsrs	r2, r3, #8
 8002108:	683b      	ldr	r3, [r7, #0]
 800210a:	3302      	adds	r3, #2
 800210c:	b2d2      	uxtb	r2, r2
 800210e:	701a      	strb	r2, [r3, #0]
  output[3] = (uint8_t)value;
 8002110:	683b      	ldr	r3, [r7, #0]
 8002112:	3303      	adds	r3, #3
 8002114:	687a      	ldr	r2, [r7, #4]
 8002116:	b2d2      	uxtb	r2, r2
 8002118:	701a      	strb	r2, [r3, #0]
}
 800211a:	bf00      	nop
 800211c:	370c      	adds	r7, #12
 800211e:	46bd      	mov	sp, r7
 8002120:	f85d 7b04 	ldr.w	r7, [sp], #4
 8002124:	4770      	bx	lr

08002126 <secure_increment_counter>:

static void secure_increment_counter(uint8_t counter[AES128_BLOCK_SIZE])
{
 8002126:	b480      	push	{r7}
 8002128:	b085      	sub	sp, #20
 800212a:	af00      	add	r7, sp, #0
 800212c:	6078      	str	r0, [r7, #4]
  for (int32_t i = (int32_t)AES128_BLOCK_SIZE - 1; i >= 0; i--)
 800212e:	230f      	movs	r3, #15
 8002130:	60fb      	str	r3, [r7, #12]
 8002132:	e00f      	b.n	8002154 <secure_increment_counter+0x2e>
  {
    counter[i]++;
 8002134:	68fb      	ldr	r3, [r7, #12]
 8002136:	687a      	ldr	r2, [r7, #4]
 8002138:	4413      	add	r3, r2
 800213a:	781a      	ldrb	r2, [r3, #0]
 800213c:	3201      	adds	r2, #1
 800213e:	b2d2      	uxtb	r2, r2
 8002140:	701a      	strb	r2, [r3, #0]
    if (counter[i] != 0U)
 8002142:	68fb      	ldr	r3, [r7, #12]
 8002144:	687a      	ldr	r2, [r7, #4]
 8002146:	4413      	add	r3, r2
 8002148:	781b      	ldrb	r3, [r3, #0]
 800214a:	2b00      	cmp	r3, #0
 800214c:	d106      	bne.n	800215c <secure_increment_counter+0x36>
  for (int32_t i = (int32_t)AES128_BLOCK_SIZE - 1; i >= 0; i--)
 800214e:	68fb      	ldr	r3, [r7, #12]
 8002150:	3b01      	subs	r3, #1
 8002152:	60fb      	str	r3, [r7, #12]
 8002154:	68fb      	ldr	r3, [r7, #12]
 8002156:	2b00      	cmp	r3, #0
 8002158:	daec      	bge.n	8002134 <secure_increment_counter+0xe>
    {
      break;
    }
  }
}
 800215a:	e000      	b.n	800215e <secure_increment_counter+0x38>
      break;
 800215c:	bf00      	nop
}
 800215e:	bf00      	nop
 8002160:	3714      	adds	r7, #20
 8002162:	46bd      	mov	sp, r7
 8002164:	f85d 7b04 	ldr.w	r7, [sp], #4
 8002168:	4770      	bx	lr
	...

0800216c <aes_key_expansion>:

static void aes_key_expansion(aes128_ctx_t *ctx, const uint8_t key[16])
{
 800216c:	b580      	push	{r7, lr}
 800216e:	b088      	sub	sp, #32
 8002170:	af00      	add	r7, sp, #0
 8002172:	6078      	str	r0, [r7, #4]
 8002174:	6039      	str	r1, [r7, #0]
  uint32_t bytes_generated = 16U;
 8002176:	2310      	movs	r3, #16
 8002178:	61fb      	str	r3, [r7, #28]
  uint32_t rcon_index = 1U;
 800217a:	2301      	movs	r3, #1
 800217c:	61bb      	str	r3, [r7, #24]
  uint8_t temp[4];

  memcpy(ctx->round_keys, key, 16U);
 800217e:	687b      	ldr	r3, [r7, #4]
 8002180:	2210      	movs	r2, #16
 8002182:	6839      	ldr	r1, [r7, #0]
 8002184:	4618      	mov	r0, r3
 8002186:	f003 f935 	bl	80053f4 <memcpy>

  while (bytes_generated < sizeof(ctx->round_keys))
 800218a:	e053      	b.n	8002234 <aes_key_expansion+0xc8>
  {
    for (uint32_t i = 0U; i < 4U; i++)
 800218c:	2300      	movs	r3, #0
 800218e:	617b      	str	r3, [r7, #20]
 8002190:	e00e      	b.n	80021b0 <aes_key_expansion+0x44>
    {
      temp[i] = ctx->round_keys[bytes_generated - 4U + i];
 8002192:	69fa      	ldr	r2, [r7, #28]
 8002194:	697b      	ldr	r3, [r7, #20]
 8002196:	4413      	add	r3, r2
 8002198:	3b04      	subs	r3, #4
 800219a:	687a      	ldr	r2, [r7, #4]
 800219c:	5cd1      	ldrb	r1, [r2, r3]
 800219e:	f107 0208 	add.w	r2, r7, #8
 80021a2:	697b      	ldr	r3, [r7, #20]
 80021a4:	4413      	add	r3, r2
 80021a6:	460a      	mov	r2, r1
 80021a8:	701a      	strb	r2, [r3, #0]
    for (uint32_t i = 0U; i < 4U; i++)
 80021aa:	697b      	ldr	r3, [r7, #20]
 80021ac:	3301      	adds	r3, #1
 80021ae:	617b      	str	r3, [r7, #20]
 80021b0:	697b      	ldr	r3, [r7, #20]
 80021b2:	2b03      	cmp	r3, #3
 80021b4:	d9ed      	bls.n	8002192 <aes_key_expansion+0x26>
    }

    if ((bytes_generated % 16U) == 0U)
 80021b6:	69fb      	ldr	r3, [r7, #28]
 80021b8:	f003 030f 	and.w	r3, r3, #15
 80021bc:	2b00      	cmp	r3, #0
 80021be:	d11d      	bne.n	80021fc <aes_key_expansion+0x90>
    {
      uint8_t swap = temp[0];
 80021c0:	7a3b      	ldrb	r3, [r7, #8]
 80021c2:	73fb      	strb	r3, [r7, #15]
      temp[0] = s_aes_sbox[temp[1]];
 80021c4:	7a7b      	ldrb	r3, [r7, #9]
 80021c6:	461a      	mov	r2, r3
 80021c8:	4b1e      	ldr	r3, [pc, #120]	@ (8002244 <aes_key_expansion+0xd8>)
 80021ca:	5c9b      	ldrb	r3, [r3, r2]
 80021cc:	723b      	strb	r3, [r7, #8]
      temp[1] = s_aes_sbox[temp[2]];
 80021ce:	7abb      	ldrb	r3, [r7, #10]
 80021d0:	461a      	mov	r2, r3
 80021d2:	4b1c      	ldr	r3, [pc, #112]	@ (8002244 <aes_key_expansion+0xd8>)
 80021d4:	5c9b      	ldrb	r3, [r3, r2]
 80021d6:	727b      	strb	r3, [r7, #9]
      temp[2] = s_aes_sbox[temp[3]];
 80021d8:	7afb      	ldrb	r3, [r7, #11]
 80021da:	461a      	mov	r2, r3
 80021dc:	4b19      	ldr	r3, [pc, #100]	@ (8002244 <aes_key_expansion+0xd8>)
 80021de:	5c9b      	ldrb	r3, [r3, r2]
 80021e0:	72bb      	strb	r3, [r7, #10]
      temp[3] = s_aes_sbox[swap];
 80021e2:	7bfb      	ldrb	r3, [r7, #15]
 80021e4:	4a17      	ldr	r2, [pc, #92]	@ (8002244 <aes_key_expansion+0xd8>)
 80021e6:	5cd3      	ldrb	r3, [r2, r3]
 80021e8:	72fb      	strb	r3, [r7, #11]
      temp[0] ^= s_aes_rcon[rcon_index++];
 80021ea:	69bb      	ldr	r3, [r7, #24]
 80021ec:	1c5a      	adds	r2, r3, #1
 80021ee:	61ba      	str	r2, [r7, #24]
 80021f0:	4a15      	ldr	r2, [pc, #84]	@ (8002248 <aes_key_expansion+0xdc>)
 80021f2:	5cd2      	ldrb	r2, [r2, r3]
 80021f4:	7a3b      	ldrb	r3, [r7, #8]
 80021f6:	4053      	eors	r3, r2
 80021f8:	b2db      	uxtb	r3, r3
 80021fa:	723b      	strb	r3, [r7, #8]
    }

    for (uint32_t i = 0U; i < 4U; i++)
 80021fc:	2300      	movs	r3, #0
 80021fe:	613b      	str	r3, [r7, #16]
 8002200:	e015      	b.n	800222e <aes_key_expansion+0xc2>
    {
      ctx->round_keys[bytes_generated] = ctx->round_keys[bytes_generated - 16U] ^ temp[i];
 8002202:	69fb      	ldr	r3, [r7, #28]
 8002204:	3b10      	subs	r3, #16
 8002206:	687a      	ldr	r2, [r7, #4]
 8002208:	5cd2      	ldrb	r2, [r2, r3]
 800220a:	f107 0108 	add.w	r1, r7, #8
 800220e:	693b      	ldr	r3, [r7, #16]
 8002210:	440b      	add	r3, r1
 8002212:	781b      	ldrb	r3, [r3, #0]
 8002214:	4053      	eors	r3, r2
 8002216:	b2d9      	uxtb	r1, r3
 8002218:	687a      	ldr	r2, [r7, #4]
 800221a:	69fb      	ldr	r3, [r7, #28]
 800221c:	4413      	add	r3, r2
 800221e:	460a      	mov	r2, r1
 8002220:	701a      	strb	r2, [r3, #0]
      bytes_generated++;
 8002222:	69fb      	ldr	r3, [r7, #28]
 8002224:	3301      	adds	r3, #1
 8002226:	61fb      	str	r3, [r7, #28]
    for (uint32_t i = 0U; i < 4U; i++)
 8002228:	693b      	ldr	r3, [r7, #16]
 800222a:	3301      	adds	r3, #1
 800222c:	613b      	str	r3, [r7, #16]
 800222e:	693b      	ldr	r3, [r7, #16]
 8002230:	2b03      	cmp	r3, #3
 8002232:	d9e6      	bls.n	8002202 <aes_key_expansion+0x96>
  while (bytes_generated < sizeof(ctx->round_keys))
 8002234:	69fb      	ldr	r3, [r7, #28]
 8002236:	2baf      	cmp	r3, #175	@ 0xaf
 8002238:	d9a8      	bls.n	800218c <aes_key_expansion+0x20>
    }
  }
}
 800223a:	bf00      	nop
 800223c:	bf00      	nop
 800223e:	3720      	adds	r7, #32
 8002240:	46bd      	mov	sp, r7
 8002242:	bd80      	pop	{r7, pc}
 8002244:	08005e40 	.word	0x08005e40
 8002248:	08005f40 	.word	0x08005f40

0800224c <aes_add_round_key>:

static void aes_add_round_key(uint8_t state[16], const uint8_t *round_key)
{
 800224c:	b480      	push	{r7}
 800224e:	b085      	sub	sp, #20
 8002250:	af00      	add	r7, sp, #0
 8002252:	6078      	str	r0, [r7, #4]
 8002254:	6039      	str	r1, [r7, #0]
  for (uint32_t i = 0U; i < 16U; i++)
 8002256:	2300      	movs	r3, #0
 8002258:	60fb      	str	r3, [r7, #12]
 800225a:	e010      	b.n	800227e <aes_add_round_key+0x32>
  {
    state[i] ^= round_key[i];
 800225c:	687a      	ldr	r2, [r7, #4]
 800225e:	68fb      	ldr	r3, [r7, #12]
 8002260:	4413      	add	r3, r2
 8002262:	7819      	ldrb	r1, [r3, #0]
 8002264:	683a      	ldr	r2, [r7, #0]
 8002266:	68fb      	ldr	r3, [r7, #12]
 8002268:	4413      	add	r3, r2
 800226a:	781a      	ldrb	r2, [r3, #0]
 800226c:	6878      	ldr	r0, [r7, #4]
 800226e:	68fb      	ldr	r3, [r7, #12]
 8002270:	4403      	add	r3, r0
 8002272:	404a      	eors	r2, r1
 8002274:	b2d2      	uxtb	r2, r2
 8002276:	701a      	strb	r2, [r3, #0]
  for (uint32_t i = 0U; i < 16U; i++)
 8002278:	68fb      	ldr	r3, [r7, #12]
 800227a:	3301      	adds	r3, #1
 800227c:	60fb      	str	r3, [r7, #12]
 800227e:	68fb      	ldr	r3, [r7, #12]
 8002280:	2b0f      	cmp	r3, #15
 8002282:	d9eb      	bls.n	800225c <aes_add_round_key+0x10>
  }
}
 8002284:	bf00      	nop
 8002286:	bf00      	nop
 8002288:	3714      	adds	r7, #20
 800228a:	46bd      	mov	sp, r7
 800228c:	f85d 7b04 	ldr.w	r7, [sp], #4
 8002290:	4770      	bx	lr
	...

08002294 <aes_sub_bytes>:

static void aes_sub_bytes(uint8_t state[16])
{
 8002294:	b480      	push	{r7}
 8002296:	b085      	sub	sp, #20
 8002298:	af00      	add	r7, sp, #0
 800229a:	6078      	str	r0, [r7, #4]
  for (uint32_t i = 0U; i < 16U; i++)
 800229c:	2300      	movs	r3, #0
 800229e:	60fb      	str	r3, [r7, #12]
 80022a0:	e00d      	b.n	80022be <aes_sub_bytes+0x2a>
  {
    state[i] = s_aes_sbox[state[i]];
 80022a2:	687a      	ldr	r2, [r7, #4]
 80022a4:	68fb      	ldr	r3, [r7, #12]
 80022a6:	4413      	add	r3, r2
 80022a8:	781b      	ldrb	r3, [r3, #0]
 80022aa:	4619      	mov	r1, r3
 80022ac:	687a      	ldr	r2, [r7, #4]
 80022ae:	68fb      	ldr	r3, [r7, #12]
 80022b0:	4413      	add	r3, r2
 80022b2:	4a08      	ldr	r2, [pc, #32]	@ (80022d4 <aes_sub_bytes+0x40>)
 80022b4:	5c52      	ldrb	r2, [r2, r1]
 80022b6:	701a      	strb	r2, [r3, #0]
  for (uint32_t i = 0U; i < 16U; i++)
 80022b8:	68fb      	ldr	r3, [r7, #12]
 80022ba:	3301      	adds	r3, #1
 80022bc:	60fb      	str	r3, [r7, #12]
 80022be:	68fb      	ldr	r3, [r7, #12]
 80022c0:	2b0f      	cmp	r3, #15
 80022c2:	d9ee      	bls.n	80022a2 <aes_sub_bytes+0xe>
  }
}
 80022c4:	bf00      	nop
 80022c6:	bf00      	nop
 80022c8:	3714      	adds	r7, #20
 80022ca:	46bd      	mov	sp, r7
 80022cc:	f85d 7b04 	ldr.w	r7, [sp], #4
 80022d0:	4770      	bx	lr
 80022d2:	bf00      	nop
 80022d4:	08005e40 	.word	0x08005e40

080022d8 <aes_shift_rows>:

static void aes_shift_rows(uint8_t state[16])
{
 80022d8:	b480      	push	{r7}
 80022da:	b085      	sub	sp, #20
 80022dc:	af00      	add	r7, sp, #0
 80022de:	6078      	str	r0, [r7, #4]
  uint8_t temp = 0U;
 80022e0:	2300      	movs	r3, #0
 80022e2:	73fb      	strb	r3, [r7, #15]

  temp = state[1];
 80022e4:	687b      	ldr	r3, [r7, #4]
 80022e6:	785b      	ldrb	r3, [r3, #1]
 80022e8:	73fb      	strb	r3, [r7, #15]
  state[1] = state[5];
 80022ea:	687b      	ldr	r3, [r7, #4]
 80022ec:	3301      	adds	r3, #1
 80022ee:	687a      	ldr	r2, [r7, #4]
 80022f0:	7952      	ldrb	r2, [r2, #5]
 80022f2:	701a      	strb	r2, [r3, #0]
  state[5] = state[9];
 80022f4:	687b      	ldr	r3, [r7, #4]
 80022f6:	3305      	adds	r3, #5
 80022f8:	687a      	ldr	r2, [r7, #4]
 80022fa:	7a52      	ldrb	r2, [r2, #9]
 80022fc:	701a      	strb	r2, [r3, #0]
  state[9] = state[13];
 80022fe:	687b      	ldr	r3, [r7, #4]
 8002300:	3309      	adds	r3, #9
 8002302:	687a      	ldr	r2, [r7, #4]
 8002304:	7b52      	ldrb	r2, [r2, #13]
 8002306:	701a      	strb	r2, [r3, #0]
  state[13] = temp;
 8002308:	687b      	ldr	r3, [r7, #4]
 800230a:	330d      	adds	r3, #13
 800230c:	7bfa      	ldrb	r2, [r7, #15]
 800230e:	701a      	strb	r2, [r3, #0]

  temp = state[2];
 8002310:	687b      	ldr	r3, [r7, #4]
 8002312:	789b      	ldrb	r3, [r3, #2]
 8002314:	73fb      	strb	r3, [r7, #15]
  state[2] = state[10];
 8002316:	687b      	ldr	r3, [r7, #4]
 8002318:	3302      	adds	r3, #2
 800231a:	687a      	ldr	r2, [r7, #4]
 800231c:	7a92      	ldrb	r2, [r2, #10]
 800231e:	701a      	strb	r2, [r3, #0]
  state[10] = temp;
 8002320:	687b      	ldr	r3, [r7, #4]
 8002322:	330a      	adds	r3, #10
 8002324:	7bfa      	ldrb	r2, [r7, #15]
 8002326:	701a      	strb	r2, [r3, #0]
  temp = state[6];
 8002328:	687b      	ldr	r3, [r7, #4]
 800232a:	799b      	ldrb	r3, [r3, #6]
 800232c:	73fb      	strb	r3, [r7, #15]
  state[6] = state[14];
 800232e:	687b      	ldr	r3, [r7, #4]
 8002330:	3306      	adds	r3, #6
 8002332:	687a      	ldr	r2, [r7, #4]
 8002334:	7b92      	ldrb	r2, [r2, #14]
 8002336:	701a      	strb	r2, [r3, #0]
  state[14] = temp;
 8002338:	687b      	ldr	r3, [r7, #4]
 800233a:	330e      	adds	r3, #14
 800233c:	7bfa      	ldrb	r2, [r7, #15]
 800233e:	701a      	strb	r2, [r3, #0]

  temp = state[15];
 8002340:	687b      	ldr	r3, [r7, #4]
 8002342:	7bdb      	ldrb	r3, [r3, #15]
 8002344:	73fb      	strb	r3, [r7, #15]
  state[15] = state[11];
 8002346:	687b      	ldr	r3, [r7, #4]
 8002348:	330f      	adds	r3, #15
 800234a:	687a      	ldr	r2, [r7, #4]
 800234c:	7ad2      	ldrb	r2, [r2, #11]
 800234e:	701a      	strb	r2, [r3, #0]
  state[11] = state[7];
 8002350:	687b      	ldr	r3, [r7, #4]
 8002352:	330b      	adds	r3, #11
 8002354:	687a      	ldr	r2, [r7, #4]
 8002356:	79d2      	ldrb	r2, [r2, #7]
 8002358:	701a      	strb	r2, [r3, #0]
  state[7] = state[3];
 800235a:	687b      	ldr	r3, [r7, #4]
 800235c:	3307      	adds	r3, #7
 800235e:	687a      	ldr	r2, [r7, #4]
 8002360:	78d2      	ldrb	r2, [r2, #3]
 8002362:	701a      	strb	r2, [r3, #0]
  state[3] = temp;
 8002364:	687b      	ldr	r3, [r7, #4]
 8002366:	3303      	adds	r3, #3
 8002368:	7bfa      	ldrb	r2, [r7, #15]
 800236a:	701a      	strb	r2, [r3, #0]
}
 800236c:	bf00      	nop
 800236e:	3714      	adds	r7, #20
 8002370:	46bd      	mov	sp, r7
 8002372:	f85d 7b04 	ldr.w	r7, [sp], #4
 8002376:	4770      	bx	lr

08002378 <aes_mix_columns>:

static void aes_mix_columns(uint8_t state[16])
{
 8002378:	b580      	push	{r7, lr}
 800237a:	b086      	sub	sp, #24
 800237c:	af00      	add	r7, sp, #0
 800237e:	6078      	str	r0, [r7, #4]
  for (uint32_t i = 0U; i < 16U; i += 4U)
 8002380:	2300      	movs	r3, #0
 8002382:	617b      	str	r3, [r7, #20]
 8002384:	e091      	b.n	80024aa <aes_mix_columns+0x132>
  {
    uint8_t a0 = state[i];
 8002386:	687a      	ldr	r2, [r7, #4]
 8002388:	697b      	ldr	r3, [r7, #20]
 800238a:	4413      	add	r3, r2
 800238c:	781b      	ldrb	r3, [r3, #0]
 800238e:	74fb      	strb	r3, [r7, #19]
    uint8_t a1 = state[i + 1U];
 8002390:	697b      	ldr	r3, [r7, #20]
 8002392:	3301      	adds	r3, #1
 8002394:	687a      	ldr	r2, [r7, #4]
 8002396:	4413      	add	r3, r2
 8002398:	781b      	ldrb	r3, [r3, #0]
 800239a:	74bb      	strb	r3, [r7, #18]
    uint8_t a2 = state[i + 2U];
 800239c:	697b      	ldr	r3, [r7, #20]
 800239e:	3302      	adds	r3, #2
 80023a0:	687a      	ldr	r2, [r7, #4]
 80023a2:	4413      	add	r3, r2
 80023a4:	781b      	ldrb	r3, [r3, #0]
 80023a6:	747b      	strb	r3, [r7, #17]
    uint8_t a3 = state[i + 3U];
 80023a8:	697b      	ldr	r3, [r7, #20]
 80023aa:	3303      	adds	r3, #3
 80023ac:	687a      	ldr	r2, [r7, #4]
 80023ae:	4413      	add	r3, r2
 80023b0:	781b      	ldrb	r3, [r3, #0]
 80023b2:	743b      	strb	r3, [r7, #16]
    uint8_t mix = a0 ^ a1 ^ a2 ^ a3;
 80023b4:	7cfa      	ldrb	r2, [r7, #19]
 80023b6:	7cbb      	ldrb	r3, [r7, #18]
 80023b8:	4053      	eors	r3, r2
 80023ba:	b2da      	uxtb	r2, r3
 80023bc:	7c7b      	ldrb	r3, [r7, #17]
 80023be:	4053      	eors	r3, r2
 80023c0:	b2da      	uxtb	r2, r3
 80023c2:	7c3b      	ldrb	r3, [r7, #16]
 80023c4:	4053      	eors	r3, r2
 80023c6:	73fb      	strb	r3, [r7, #15]

    state[i] ^= mix ^ aes_xtime((uint8_t)(a0 ^ a1));
 80023c8:	7cfa      	ldrb	r2, [r7, #19]
 80023ca:	7cbb      	ldrb	r3, [r7, #18]
 80023cc:	4053      	eors	r3, r2
 80023ce:	b2db      	uxtb	r3, r3
 80023d0:	4618      	mov	r0, r3
 80023d2:	f7ff fe34 	bl	800203e <aes_xtime>
 80023d6:	4603      	mov	r3, r0
 80023d8:	461a      	mov	r2, r3
 80023da:	7bfb      	ldrb	r3, [r7, #15]
 80023dc:	4053      	eors	r3, r2
 80023de:	b2db      	uxtb	r3, r3
 80023e0:	4619      	mov	r1, r3
 80023e2:	687a      	ldr	r2, [r7, #4]
 80023e4:	697b      	ldr	r3, [r7, #20]
 80023e6:	4413      	add	r3, r2
 80023e8:	781b      	ldrb	r3, [r3, #0]
 80023ea:	b25a      	sxtb	r2, r3
 80023ec:	b24b      	sxtb	r3, r1
 80023ee:	4053      	eors	r3, r2
 80023f0:	b259      	sxtb	r1, r3
 80023f2:	687a      	ldr	r2, [r7, #4]
 80023f4:	697b      	ldr	r3, [r7, #20]
 80023f6:	4413      	add	r3, r2
 80023f8:	b2ca      	uxtb	r2, r1
 80023fa:	701a      	strb	r2, [r3, #0]
    state[i + 1U] ^= mix ^ aes_xtime((uint8_t)(a1 ^ a2));
 80023fc:	7cba      	ldrb	r2, [r7, #18]
 80023fe:	7c7b      	ldrb	r3, [r7, #17]
 8002400:	4053      	eors	r3, r2
 8002402:	b2db      	uxtb	r3, r3
 8002404:	4618      	mov	r0, r3
 8002406:	f7ff fe1a 	bl	800203e <aes_xtime>
 800240a:	4603      	mov	r3, r0
 800240c:	461a      	mov	r2, r3
 800240e:	7bfb      	ldrb	r3, [r7, #15]
 8002410:	4053      	eors	r3, r2
 8002412:	b2db      	uxtb	r3, r3
 8002414:	4619      	mov	r1, r3
 8002416:	697b      	ldr	r3, [r7, #20]
 8002418:	3301      	adds	r3, #1
 800241a:	687a      	ldr	r2, [r7, #4]
 800241c:	4413      	add	r3, r2
 800241e:	781b      	ldrb	r3, [r3, #0]
 8002420:	b25a      	sxtb	r2, r3
 8002422:	b24b      	sxtb	r3, r1
 8002424:	4053      	eors	r3, r2
 8002426:	b259      	sxtb	r1, r3
 8002428:	697b      	ldr	r3, [r7, #20]
 800242a:	3301      	adds	r3, #1
 800242c:	687a      	ldr	r2, [r7, #4]
 800242e:	4413      	add	r3, r2
 8002430:	b2ca      	uxtb	r2, r1
 8002432:	701a      	strb	r2, [r3, #0]
    state[i + 2U] ^= mix ^ aes_xtime((uint8_t)(a2 ^ a3));
 8002434:	7c7a      	ldrb	r2, [r7, #17]
 8002436:	7c3b      	ldrb	r3, [r7, #16]
 8002438:	4053      	eors	r3, r2
 800243a:	b2db      	uxtb	r3, r3
 800243c:	4618      	mov	r0, r3
 800243e:	f7ff fdfe 	bl	800203e <aes_xtime>
 8002442:	4603      	mov	r3, r0
 8002444:	461a      	mov	r2, r3
 8002446:	7bfb      	ldrb	r3, [r7, #15]
 8002448:	4053      	eors	r3, r2
 800244a:	b2db      	uxtb	r3, r3
 800244c:	4619      	mov	r1, r3
 800244e:	697b      	ldr	r3, [r7, #20]
 8002450:	3302      	adds	r3, #2
 8002452:	687a      	ldr	r2, [r7, #4]
 8002454:	4413      	add	r3, r2
 8002456:	781b      	ldrb	r3, [r3, #0]
 8002458:	b25a      	sxtb	r2, r3
 800245a:	b24b      	sxtb	r3, r1
 800245c:	4053      	eors	r3, r2
 800245e:	b259      	sxtb	r1, r3
 8002460:	697b      	ldr	r3, [r7, #20]
 8002462:	3302      	adds	r3, #2
 8002464:	687a      	ldr	r2, [r7, #4]
 8002466:	4413      	add	r3, r2
 8002468:	b2ca      	uxtb	r2, r1
 800246a:	701a      	strb	r2, [r3, #0]
    state[i + 3U] ^= mix ^ aes_xtime((uint8_t)(a3 ^ a0));
 800246c:	7c3a      	ldrb	r2, [r7, #16]
 800246e:	7cfb      	ldrb	r3, [r7, #19]
 8002470:	4053      	eors	r3, r2
 8002472:	b2db      	uxtb	r3, r3
 8002474:	4618      	mov	r0, r3
 8002476:	f7ff fde2 	bl	800203e <aes_xtime>
 800247a:	4603      	mov	r3, r0
 800247c:	461a      	mov	r2, r3
 800247e:	7bfb      	ldrb	r3, [r7, #15]
 8002480:	4053      	eors	r3, r2
 8002482:	b2db      	uxtb	r3, r3
 8002484:	4619      	mov	r1, r3
 8002486:	697b      	ldr	r3, [r7, #20]
 8002488:	3303      	adds	r3, #3
 800248a:	687a      	ldr	r2, [r7, #4]
 800248c:	4413      	add	r3, r2
 800248e:	781b      	ldrb	r3, [r3, #0]
 8002490:	b25a      	sxtb	r2, r3
 8002492:	b24b      	sxtb	r3, r1
 8002494:	4053      	eors	r3, r2
 8002496:	b259      	sxtb	r1, r3
 8002498:	697b      	ldr	r3, [r7, #20]
 800249a:	3303      	adds	r3, #3
 800249c:	687a      	ldr	r2, [r7, #4]
 800249e:	4413      	add	r3, r2
 80024a0:	b2ca      	uxtb	r2, r1
 80024a2:	701a      	strb	r2, [r3, #0]
  for (uint32_t i = 0U; i < 16U; i += 4U)
 80024a4:	697b      	ldr	r3, [r7, #20]
 80024a6:	3304      	adds	r3, #4
 80024a8:	617b      	str	r3, [r7, #20]
 80024aa:	697b      	ldr	r3, [r7, #20]
 80024ac:	2b0f      	cmp	r3, #15
 80024ae:	f67f af6a 	bls.w	8002386 <aes_mix_columns+0xe>
  }
}
 80024b2:	bf00      	nop
 80024b4:	bf00      	nop
 80024b6:	3718      	adds	r7, #24
 80024b8:	46bd      	mov	sp, r7
 80024ba:	bd80      	pop	{r7, pc}

080024bc <aes_encrypt_block>:

static void aes_encrypt_block(const aes128_ctx_t *ctx, const uint8_t input[16], uint8_t output[16])
{
 80024bc:	b5b0      	push	{r4, r5, r7, lr}
 80024be:	b08a      	sub	sp, #40	@ 0x28
 80024c0:	af00      	add	r7, sp, #0
 80024c2:	60f8      	str	r0, [r7, #12]
 80024c4:	60b9      	str	r1, [r7, #8]
 80024c6:	607a      	str	r2, [r7, #4]
  uint8_t state[16];

  memcpy(state, input, sizeof(state));
 80024c8:	68bb      	ldr	r3, [r7, #8]
 80024ca:	f107 0414 	add.w	r4, r7, #20
 80024ce:	6818      	ldr	r0, [r3, #0]
 80024d0:	6859      	ldr	r1, [r3, #4]
 80024d2:	689a      	ldr	r2, [r3, #8]
 80024d4:	68db      	ldr	r3, [r3, #12]
 80024d6:	c40f      	stmia	r4!, {r0, r1, r2, r3}
  aes_add_round_key(state, ctx->round_keys);
 80024d8:	68fa      	ldr	r2, [r7, #12]
 80024da:	f107 0314 	add.w	r3, r7, #20
 80024de:	4611      	mov	r1, r2
 80024e0:	4618      	mov	r0, r3
 80024e2:	f7ff feb3 	bl	800224c <aes_add_round_key>

  for (uint32_t round = 1U; round < 10U; round++)
 80024e6:	2301      	movs	r3, #1
 80024e8:	627b      	str	r3, [r7, #36]	@ 0x24
 80024ea:	e01b      	b.n	8002524 <aes_encrypt_block+0x68>
  {
    aes_sub_bytes(state);
 80024ec:	f107 0314 	add.w	r3, r7, #20
 80024f0:	4618      	mov	r0, r3
 80024f2:	f7ff fecf 	bl	8002294 <aes_sub_bytes>
    aes_shift_rows(state);
 80024f6:	f107 0314 	add.w	r3, r7, #20
 80024fa:	4618      	mov	r0, r3
 80024fc:	f7ff feec 	bl	80022d8 <aes_shift_rows>
    aes_mix_columns(state);
 8002500:	f107 0314 	add.w	r3, r7, #20
 8002504:	4618      	mov	r0, r3
 8002506:	f7ff ff37 	bl	8002378 <aes_mix_columns>
    aes_add_round_key(state, &ctx->round_keys[round * 16U]);
 800250a:	6a7b      	ldr	r3, [r7, #36]	@ 0x24
 800250c:	011b      	lsls	r3, r3, #4
 800250e:	68fa      	ldr	r2, [r7, #12]
 8002510:	441a      	add	r2, r3
 8002512:	f107 0314 	add.w	r3, r7, #20
 8002516:	4611      	mov	r1, r2
 8002518:	4618      	mov	r0, r3
 800251a:	f7ff fe97 	bl	800224c <aes_add_round_key>
  for (uint32_t round = 1U; round < 10U; round++)
 800251e:	6a7b      	ldr	r3, [r7, #36]	@ 0x24
 8002520:	3301      	adds	r3, #1
 8002522:	627b      	str	r3, [r7, #36]	@ 0x24
 8002524:	6a7b      	ldr	r3, [r7, #36]	@ 0x24
 8002526:	2b09      	cmp	r3, #9
 8002528:	d9e0      	bls.n	80024ec <aes_encrypt_block+0x30>
  }

  aes_sub_bytes(state);
 800252a:	f107 0314 	add.w	r3, r7, #20
 800252e:	4618      	mov	r0, r3
 8002530:	f7ff feb0 	bl	8002294 <aes_sub_bytes>
  aes_shift_rows(state);
 8002534:	f107 0314 	add.w	r3, r7, #20
 8002538:	4618      	mov	r0, r3
 800253a:	f7ff fecd 	bl	80022d8 <aes_shift_rows>
  aes_add_round_key(state, &ctx->round_keys[160U]);
 800253e:	68fb      	ldr	r3, [r7, #12]
 8002540:	f103 02a0 	add.w	r2, r3, #160	@ 0xa0
 8002544:	f107 0314 	add.w	r3, r7, #20
 8002548:	4611      	mov	r1, r2
 800254a:	4618      	mov	r0, r3
 800254c:	f7ff fe7e 	bl	800224c <aes_add_round_key>
  memcpy(output, state, sizeof(state));
 8002550:	687b      	ldr	r3, [r7, #4]
 8002552:	461d      	mov	r5, r3
 8002554:	f107 0414 	add.w	r4, r7, #20
 8002558:	cc0f      	ldmia	r4!, {r0, r1, r2, r3}
 800255a:	6028      	str	r0, [r5, #0]
 800255c:	6069      	str	r1, [r5, #4]
 800255e:	60aa      	str	r2, [r5, #8]
 8002560:	60eb      	str	r3, [r5, #12]
}
 8002562:	bf00      	nop
 8002564:	3728      	adds	r7, #40	@ 0x28
 8002566:	46bd      	mov	sp, r7
 8002568:	bdb0      	pop	{r4, r5, r7, pc}

0800256a <aes_ctr_crypt>:
    const aes128_ctx_t *ctx,
    const uint8_t iv[16],
    const uint8_t *input,
    uint8_t *output,
    size_t length)
{
 800256a:	b590      	push	{r4, r7, lr}
 800256c:	b08f      	sub	sp, #60	@ 0x3c
 800256e:	af00      	add	r7, sp, #0
 8002570:	60f8      	str	r0, [r7, #12]
 8002572:	60b9      	str	r1, [r7, #8]
 8002574:	607a      	str	r2, [r7, #4]
 8002576:	603b      	str	r3, [r7, #0]
  uint8_t counter[16];
  uint8_t stream_block[16];
  size_t offset = 0U;
 8002578:	2300      	movs	r3, #0
 800257a:	637b      	str	r3, [r7, #52]	@ 0x34

  memcpy(counter, iv, sizeof(counter));
 800257c:	68bb      	ldr	r3, [r7, #8]
 800257e:	f107 0420 	add.w	r4, r7, #32
 8002582:	6818      	ldr	r0, [r3, #0]
 8002584:	6859      	ldr	r1, [r3, #4]
 8002586:	689a      	ldr	r2, [r3, #8]
 8002588:	68db      	ldr	r3, [r3, #12]
 800258a:	c40f      	stmia	r4!, {r0, r1, r2, r3}

  while (offset < length)
 800258c:	e02b      	b.n	80025e6 <aes_ctr_crypt+0x7c>
  {
    aes_encrypt_block(ctx, counter, stream_block);
 800258e:	f107 0210 	add.w	r2, r7, #16
 8002592:	f107 0320 	add.w	r3, r7, #32
 8002596:	4619      	mov	r1, r3
 8002598:	68f8      	ldr	r0, [r7, #12]
 800259a:	f7ff ff8f 	bl	80024bc <aes_encrypt_block>

    for (size_t i = 0U; (i < AES128_BLOCK_SIZE) && (offset < length); i++, offset++)
 800259e:	2300      	movs	r3, #0
 80025a0:	633b      	str	r3, [r7, #48]	@ 0x30
 80025a2:	e014      	b.n	80025ce <aes_ctr_crypt+0x64>
    {
      output[offset] = input[offset] ^ stream_block[i];
 80025a4:	687a      	ldr	r2, [r7, #4]
 80025a6:	6b7b      	ldr	r3, [r7, #52]	@ 0x34
 80025a8:	4413      	add	r3, r2
 80025aa:	7819      	ldrb	r1, [r3, #0]
 80025ac:	f107 0210 	add.w	r2, r7, #16
 80025b0:	6b3b      	ldr	r3, [r7, #48]	@ 0x30
 80025b2:	4413      	add	r3, r2
 80025b4:	781a      	ldrb	r2, [r3, #0]
 80025b6:	6838      	ldr	r0, [r7, #0]
 80025b8:	6b7b      	ldr	r3, [r7, #52]	@ 0x34
 80025ba:	4403      	add	r3, r0
 80025bc:	404a      	eors	r2, r1
 80025be:	b2d2      	uxtb	r2, r2
 80025c0:	701a      	strb	r2, [r3, #0]
    for (size_t i = 0U; (i < AES128_BLOCK_SIZE) && (offset < length); i++, offset++)
 80025c2:	6b3b      	ldr	r3, [r7, #48]	@ 0x30
 80025c4:	3301      	adds	r3, #1
 80025c6:	633b      	str	r3, [r7, #48]	@ 0x30
 80025c8:	6b7b      	ldr	r3, [r7, #52]	@ 0x34
 80025ca:	3301      	adds	r3, #1
 80025cc:	637b      	str	r3, [r7, #52]	@ 0x34
 80025ce:	6b3b      	ldr	r3, [r7, #48]	@ 0x30
 80025d0:	2b0f      	cmp	r3, #15
 80025d2:	d803      	bhi.n	80025dc <aes_ctr_crypt+0x72>
 80025d4:	6b7a      	ldr	r2, [r7, #52]	@ 0x34
 80025d6:	6cbb      	ldr	r3, [r7, #72]	@ 0x48
 80025d8:	429a      	cmp	r2, r3
 80025da:	d3e3      	bcc.n	80025a4 <aes_ctr_crypt+0x3a>
    }

    secure_increment_counter(counter);
 80025dc:	f107 0320 	add.w	r3, r7, #32
 80025e0:	4618      	mov	r0, r3
 80025e2:	f7ff fda0 	bl	8002126 <secure_increment_counter>
  while (offset < length)
 80025e6:	6b7a      	ldr	r2, [r7, #52]	@ 0x34
 80025e8:	6cbb      	ldr	r3, [r7, #72]	@ 0x48
 80025ea:	429a      	cmp	r2, r3
 80025ec:	d3cf      	bcc.n	800258e <aes_ctr_crypt+0x24>
  }
}
 80025ee:	bf00      	nop
 80025f0:	bf00      	nop
 80025f2:	373c      	adds	r7, #60	@ 0x3c
 80025f4:	46bd      	mov	sp, r7
 80025f6:	bd90      	pop	{r4, r7, pc}

080025f8 <sha256_transform>:

static void sha256_transform(sha256_ctx_t *ctx, const uint8_t data[64])
{
 80025f8:	b590      	push	{r4, r7, lr}
 80025fa:	b0d7      	sub	sp, #348	@ 0x15c
 80025fc:	af00      	add	r7, sp, #0
 80025fe:	f507 73ac 	add.w	r3, r7, #344	@ 0x158
 8002602:	f5a3 73aa 	sub.w	r3, r3, #340	@ 0x154
 8002606:	6018      	str	r0, [r3, #0]
 8002608:	f507 73ac 	add.w	r3, r7, #344	@ 0x158
 800260c:	f5a3 73ac 	sub.w	r3, r3, #344	@ 0x158
 8002610:	6019      	str	r1, [r3, #0]
  uint32_t w[64];
  uint32_t a = ctx->state[0];
 8002612:	f507 73ac 	add.w	r3, r7, #344	@ 0x158
 8002616:	f5a3 73aa 	sub.w	r3, r3, #340	@ 0x154
 800261a:	681b      	ldr	r3, [r3, #0]
 800261c:	681b      	ldr	r3, [r3, #0]
 800261e:	f8c7 3154 	str.w	r3, [r7, #340]	@ 0x154
  uint32_t b = ctx->state[1];
 8002622:	f507 73ac 	add.w	r3, r7, #344	@ 0x158
 8002626:	f5a3 73aa 	sub.w	r3, r3, #340	@ 0x154
 800262a:	681b      	ldr	r3, [r3, #0]
 800262c:	685b      	ldr	r3, [r3, #4]
 800262e:	f8c7 3150 	str.w	r3, [r7, #336]	@ 0x150
  uint32_t c = ctx->state[2];
 8002632:	f507 73ac 	add.w	r3, r7, #344	@ 0x158
 8002636:	f5a3 73aa 	sub.w	r3, r3, #340	@ 0x154
 800263a:	681b      	ldr	r3, [r3, #0]
 800263c:	689b      	ldr	r3, [r3, #8]
 800263e:	f8c7 314c 	str.w	r3, [r7, #332]	@ 0x14c
  uint32_t d = ctx->state[3];
 8002642:	f507 73ac 	add.w	r3, r7, #344	@ 0x158
 8002646:	f5a3 73aa 	sub.w	r3, r3, #340	@ 0x154
 800264a:	681b      	ldr	r3, [r3, #0]
 800264c:	68db      	ldr	r3, [r3, #12]
 800264e:	f8c7 3148 	str.w	r3, [r7, #328]	@ 0x148
  uint32_t e = ctx->state[4];
 8002652:	f507 73ac 	add.w	r3, r7, #344	@ 0x158
 8002656:	f5a3 73aa 	sub.w	r3, r3, #340	@ 0x154
 800265a:	681b      	ldr	r3, [r3, #0]
 800265c:	691b      	ldr	r3, [r3, #16]
 800265e:	f8c7 3144 	str.w	r3, [r7, #324]	@ 0x144
  uint32_t f = ctx->state[5];
 8002662:	f507 73ac 	add.w	r3, r7, #344	@ 0x158
 8002666:	f5a3 73aa 	sub.w	r3, r3, #340	@ 0x154
 800266a:	681b      	ldr	r3, [r3, #0]
 800266c:	695b      	ldr	r3, [r3, #20]
 800266e:	f8c7 3140 	str.w	r3, [r7, #320]	@ 0x140
  uint32_t g = ctx->state[6];
 8002672:	f507 73ac 	add.w	r3, r7, #344	@ 0x158
 8002676:	f5a3 73aa 	sub.w	r3, r3, #340	@ 0x154
 800267a:	681b      	ldr	r3, [r3, #0]
 800267c:	699b      	ldr	r3, [r3, #24]
 800267e:	f8c7 313c 	str.w	r3, [r7, #316]	@ 0x13c
  uint32_t h = ctx->state[7];
 8002682:	f507 73ac 	add.w	r3, r7, #344	@ 0x158
 8002686:	f5a3 73aa 	sub.w	r3, r3, #340	@ 0x154
 800268a:	681b      	ldr	r3, [r3, #0]
 800268c:	69db      	ldr	r3, [r3, #28]
 800268e:	f8c7 3138 	str.w	r3, [r7, #312]	@ 0x138

  for (uint32_t i = 0U; i < 16U; i++)
 8002692:	2300      	movs	r3, #0
 8002694:	f8c7 3134 	str.w	r3, [r7, #308]	@ 0x134
 8002698:	e03e      	b.n	8002718 <sha256_transform+0x120>
  {
    w[i] = ((uint32_t)data[i * 4U] << 24U) |
 800269a:	f8d7 3134 	ldr.w	r3, [r7, #308]	@ 0x134
 800269e:	009b      	lsls	r3, r3, #2
 80026a0:	f507 72ac 	add.w	r2, r7, #344	@ 0x158
 80026a4:	f5a2 72ac 	sub.w	r2, r2, #344	@ 0x158
 80026a8:	6812      	ldr	r2, [r2, #0]
 80026aa:	4413      	add	r3, r2
 80026ac:	781b      	ldrb	r3, [r3, #0]
 80026ae:	061a      	lsls	r2, r3, #24
           ((uint32_t)data[(i * 4U) + 1U] << 16U) |
 80026b0:	f8d7 3134 	ldr.w	r3, [r7, #308]	@ 0x134
 80026b4:	009b      	lsls	r3, r3, #2
 80026b6:	3301      	adds	r3, #1
 80026b8:	f507 71ac 	add.w	r1, r7, #344	@ 0x158
 80026bc:	f5a1 71ac 	sub.w	r1, r1, #344	@ 0x158
 80026c0:	6809      	ldr	r1, [r1, #0]
 80026c2:	440b      	add	r3, r1
 80026c4:	781b      	ldrb	r3, [r3, #0]
 80026c6:	041b      	lsls	r3, r3, #16
    w[i] = ((uint32_t)data[i * 4U] << 24U) |
 80026c8:	431a      	orrs	r2, r3
           ((uint32_t)data[(i * 4U) + 2U] << 8U) |
 80026ca:	f8d7 3134 	ldr.w	r3, [r7, #308]	@ 0x134
 80026ce:	009b      	lsls	r3, r3, #2
 80026d0:	3302      	adds	r3, #2
 80026d2:	f507 71ac 	add.w	r1, r7, #344	@ 0x158
 80026d6:	f5a1 71ac 	sub.w	r1, r1, #344	@ 0x158
 80026da:	6809      	ldr	r1, [r1, #0]
 80026dc:	440b      	add	r3, r1
 80026de:	781b      	ldrb	r3, [r3, #0]
 80026e0:	021b      	lsls	r3, r3, #8
           ((uint32_t)data[(i * 4U) + 1U] << 16U) |
 80026e2:	4313      	orrs	r3, r2
           (uint32_t)data[(i * 4U) + 3U];
 80026e4:	f8d7 2134 	ldr.w	r2, [r7, #308]	@ 0x134
 80026e8:	0092      	lsls	r2, r2, #2
 80026ea:	3203      	adds	r2, #3
 80026ec:	f507 71ac 	add.w	r1, r7, #344	@ 0x158
 80026f0:	f5a1 71ac 	sub.w	r1, r1, #344	@ 0x158
 80026f4:	6809      	ldr	r1, [r1, #0]
 80026f6:	440a      	add	r2, r1
 80026f8:	7812      	ldrb	r2, [r2, #0]
           ((uint32_t)data[(i * 4U) + 2U] << 8U) |
 80026fa:	ea43 0102 	orr.w	r1, r3, r2
    w[i] = ((uint32_t)data[i * 4U] << 24U) |
 80026fe:	f507 73ac 	add.w	r3, r7, #344	@ 0x158
 8002702:	f5a3 73a6 	sub.w	r3, r3, #332	@ 0x14c
 8002706:	f8d7 2134 	ldr.w	r2, [r7, #308]	@ 0x134
 800270a:	f843 1022 	str.w	r1, [r3, r2, lsl #2]
  for (uint32_t i = 0U; i < 16U; i++)
 800270e:	f8d7 3134 	ldr.w	r3, [r7, #308]	@ 0x134
 8002712:	3301      	adds	r3, #1
 8002714:	f8c7 3134 	str.w	r3, [r7, #308]	@ 0x134
 8002718:	f8d7 3134 	ldr.w	r3, [r7, #308]	@ 0x134
 800271c:	2b0f      	cmp	r3, #15
 800271e:	d9bc      	bls.n	800269a <sha256_transform+0xa2>
  }

  for (uint32_t i = 16U; i < 64U; i++)
 8002720:	2310      	movs	r3, #16
 8002722:	f8c7 3130 	str.w	r3, [r7, #304]	@ 0x130
 8002726:	e07f      	b.n	8002828 <sha256_transform+0x230>
  {
    uint32_t s0 = sha256_rotr(w[i - 15U], 7U) ^ sha256_rotr(w[i - 15U], 18U) ^ (w[i - 15U] >> 3U);
 8002728:	f8d7 3130 	ldr.w	r3, [r7, #304]	@ 0x130
 800272c:	f1a3 020f 	sub.w	r2, r3, #15
 8002730:	f507 73ac 	add.w	r3, r7, #344	@ 0x158
 8002734:	f5a3 73a6 	sub.w	r3, r3, #332	@ 0x14c
 8002738:	f853 3022 	ldr.w	r3, [r3, r2, lsl #2]
 800273c:	2107      	movs	r1, #7
 800273e:	4618      	mov	r0, r3
 8002740:	f7ff fc6e 	bl	8002020 <sha256_rotr>
 8002744:	4604      	mov	r4, r0
 8002746:	f8d7 3130 	ldr.w	r3, [r7, #304]	@ 0x130
 800274a:	f1a3 020f 	sub.w	r2, r3, #15
 800274e:	f507 73ac 	add.w	r3, r7, #344	@ 0x158
 8002752:	f5a3 73a6 	sub.w	r3, r3, #332	@ 0x14c
 8002756:	f853 3022 	ldr.w	r3, [r3, r2, lsl #2]
 800275a:	2112      	movs	r1, #18
 800275c:	4618      	mov	r0, r3
 800275e:	f7ff fc5f 	bl	8002020 <sha256_rotr>
 8002762:	4603      	mov	r3, r0
 8002764:	ea84 0203 	eor.w	r2, r4, r3
 8002768:	f8d7 3130 	ldr.w	r3, [r7, #304]	@ 0x130
 800276c:	f1a3 010f 	sub.w	r1, r3, #15
 8002770:	f507 73ac 	add.w	r3, r7, #344	@ 0x158
 8002774:	f5a3 73a6 	sub.w	r3, r3, #332	@ 0x14c
 8002778:	f853 3021 	ldr.w	r3, [r3, r1, lsl #2]
 800277c:	08db      	lsrs	r3, r3, #3
 800277e:	4053      	eors	r3, r2
 8002780:	f8c7 3110 	str.w	r3, [r7, #272]	@ 0x110
    uint32_t s1 = sha256_rotr(w[i - 2U], 17U) ^ sha256_rotr(w[i - 2U], 19U) ^ (w[i - 2U] >> 10U);
 8002784:	f8d7 3130 	ldr.w	r3, [r7, #304]	@ 0x130
 8002788:	1e9a      	subs	r2, r3, #2
 800278a:	f507 73ac 	add.w	r3, r7, #344	@ 0x158
 800278e:	f5a3 73a6 	sub.w	r3, r3, #332	@ 0x14c
 8002792:	f853 3022 	ldr.w	r3, [r3, r2, lsl #2]
 8002796:	2111      	movs	r1, #17
 8002798:	4618      	mov	r0, r3
 800279a:	f7ff fc41 	bl	8002020 <sha256_rotr>
 800279e:	4604      	mov	r4, r0
 80027a0:	f8d7 3130 	ldr.w	r3, [r7, #304]	@ 0x130
 80027a4:	1e9a      	subs	r2, r3, #2
 80027a6:	f507 73ac 	add.w	r3, r7, #344	@ 0x158
 80027aa:	f5a3 73a6 	sub.w	r3, r3, #332	@ 0x14c
 80027ae:	f853 3022 	ldr.w	r3, [r3, r2, lsl #2]
 80027b2:	2113      	movs	r1, #19
 80027b4:	4618      	mov	r0, r3
 80027b6:	f7ff fc33 	bl	8002020 <sha256_rotr>
 80027ba:	4603      	mov	r3, r0
 80027bc:	ea84 0203 	eor.w	r2, r4, r3
 80027c0:	f8d7 3130 	ldr.w	r3, [r7, #304]	@ 0x130
 80027c4:	1e99      	subs	r1, r3, #2
 80027c6:	f507 73ac 	add.w	r3, r7, #344	@ 0x158
 80027ca:	f5a3 73a6 	sub.w	r3, r3, #332	@ 0x14c
 80027ce:	f853 3021 	ldr.w	r3, [r3, r1, lsl #2]
 80027d2:	0a9b      	lsrs	r3, r3, #10
 80027d4:	4053      	eors	r3, r2
 80027d6:	f8c7 310c 	str.w	r3, [r7, #268]	@ 0x10c
    w[i] = w[i - 16U] + s0 + w[i - 7U] + s1;
 80027da:	f8d7 3130 	ldr.w	r3, [r7, #304]	@ 0x130
 80027de:	f1a3 0210 	sub.w	r2, r3, #16
 80027e2:	f507 73ac 	add.w	r3, r7, #344	@ 0x158
 80027e6:	f5a3 73a6 	sub.w	r3, r3, #332	@ 0x14c
 80027ea:	f853 2022 	ldr.w	r2, [r3, r2, lsl #2]
 80027ee:	f8d7 3110 	ldr.w	r3, [r7, #272]	@ 0x110
 80027f2:	441a      	add	r2, r3
 80027f4:	f8d7 3130 	ldr.w	r3, [r7, #304]	@ 0x130
 80027f8:	1fd9      	subs	r1, r3, #7
 80027fa:	f507 73ac 	add.w	r3, r7, #344	@ 0x158
 80027fe:	f5a3 73a6 	sub.w	r3, r3, #332	@ 0x14c
 8002802:	f853 3021 	ldr.w	r3, [r3, r1, lsl #2]
 8002806:	441a      	add	r2, r3
 8002808:	f8d7 310c 	ldr.w	r3, [r7, #268]	@ 0x10c
 800280c:	18d1      	adds	r1, r2, r3
 800280e:	f507 73ac 	add.w	r3, r7, #344	@ 0x158
 8002812:	f5a3 73a6 	sub.w	r3, r3, #332	@ 0x14c
 8002816:	f8d7 2130 	ldr.w	r2, [r7, #304]	@ 0x130
 800281a:	f843 1022 	str.w	r1, [r3, r2, lsl #2]
  for (uint32_t i = 16U; i < 64U; i++)
 800281e:	f8d7 3130 	ldr.w	r3, [r7, #304]	@ 0x130
 8002822:	3301      	adds	r3, #1
 8002824:	f8c7 3130 	str.w	r3, [r7, #304]	@ 0x130
 8002828:	f8d7 3130 	ldr.w	r3, [r7, #304]	@ 0x130
 800282c:	2b3f      	cmp	r3, #63	@ 0x3f
 800282e:	f67f af7b 	bls.w	8002728 <sha256_transform+0x130>
  }

  for (uint32_t i = 0U; i < 64U; i++)
 8002832:	2300      	movs	r3, #0
 8002834:	f8c7 312c 	str.w	r3, [r7, #300]	@ 0x12c
 8002838:	e094      	b.n	8002964 <sha256_transform+0x36c>
  {
    uint32_t s1 = sha256_rotr(e, 6U) ^ sha256_rotr(e, 11U) ^ sha256_rotr(e, 25U);
 800283a:	2106      	movs	r1, #6
 800283c:	f8d7 0144 	ldr.w	r0, [r7, #324]	@ 0x144
 8002840:	f7ff fbee 	bl	8002020 <sha256_rotr>
 8002844:	4604      	mov	r4, r0
 8002846:	210b      	movs	r1, #11
 8002848:	f8d7 0144 	ldr.w	r0, [r7, #324]	@ 0x144
 800284c:	f7ff fbe8 	bl	8002020 <sha256_rotr>
 8002850:	4603      	mov	r3, r0
 8002852:	405c      	eors	r4, r3
 8002854:	2119      	movs	r1, #25
 8002856:	f8d7 0144 	ldr.w	r0, [r7, #324]	@ 0x144
 800285a:	f7ff fbe1 	bl	8002020 <sha256_rotr>
 800285e:	4603      	mov	r3, r0
 8002860:	4063      	eors	r3, r4
 8002862:	f8c7 3128 	str.w	r3, [r7, #296]	@ 0x128
    uint32_t ch = (e & f) ^ ((~e) & g);
 8002866:	f8d7 2144 	ldr.w	r2, [r7, #324]	@ 0x144
 800286a:	f8d7 3140 	ldr.w	r3, [r7, #320]	@ 0x140
 800286e:	401a      	ands	r2, r3
 8002870:	f8d7 3144 	ldr.w	r3, [r7, #324]	@ 0x144
 8002874:	43d9      	mvns	r1, r3
 8002876:	f8d7 313c 	ldr.w	r3, [r7, #316]	@ 0x13c
 800287a:	400b      	ands	r3, r1
 800287c:	4053      	eors	r3, r2
 800287e:	f8c7 3124 	str.w	r3, [r7, #292]	@ 0x124
    uint32_t temp1 = h + s1 + ch + s_sha256_k[i] + w[i];
 8002882:	f8d7 2138 	ldr.w	r2, [r7, #312]	@ 0x138
 8002886:	f8d7 3128 	ldr.w	r3, [r7, #296]	@ 0x128
 800288a:	441a      	add	r2, r3
 800288c:	f8d7 3124 	ldr.w	r3, [r7, #292]	@ 0x124
 8002890:	441a      	add	r2, r3
 8002892:	4975      	ldr	r1, [pc, #468]	@ (8002a68 <sha256_transform+0x470>)
 8002894:	f8d7 312c 	ldr.w	r3, [r7, #300]	@ 0x12c
 8002898:	f851 3023 	ldr.w	r3, [r1, r3, lsl #2]
 800289c:	441a      	add	r2, r3
 800289e:	f507 73ac 	add.w	r3, r7, #344	@ 0x158
 80028a2:	f5a3 73a6 	sub.w	r3, r3, #332	@ 0x14c
 80028a6:	f8d7 112c 	ldr.w	r1, [r7, #300]	@ 0x12c
 80028aa:	f853 3021 	ldr.w	r3, [r3, r1, lsl #2]
 80028ae:	4413      	add	r3, r2
 80028b0:	f8c7 3120 	str.w	r3, [r7, #288]	@ 0x120
    uint32_t s0 = sha256_rotr(a, 2U) ^ sha256_rotr(a, 13U) ^ sha256_rotr(a, 22U);
 80028b4:	2102      	movs	r1, #2
 80028b6:	f8d7 0154 	ldr.w	r0, [r7, #340]	@ 0x154
 80028ba:	f7ff fbb1 	bl	8002020 <sha256_rotr>
 80028be:	4604      	mov	r4, r0
 80028c0:	210d      	movs	r1, #13
 80028c2:	f8d7 0154 	ldr.w	r0, [r7, #340]	@ 0x154
 80028c6:	f7ff fbab 	bl	8002020 <sha256_rotr>
 80028ca:	4603      	mov	r3, r0
 80028cc:	405c      	eors	r4, r3
 80028ce:	2116      	movs	r1, #22
 80028d0:	f8d7 0154 	ldr.w	r0, [r7, #340]	@ 0x154
 80028d4:	f7ff fba4 	bl	8002020 <sha256_rotr>
 80028d8:	4603      	mov	r3, r0
 80028da:	4063      	eors	r3, r4
 80028dc:	f8c7 311c 	str.w	r3, [r7, #284]	@ 0x11c
    uint32_t maj = (a & b) ^ (a & c) ^ (b & c);
 80028e0:	f8d7 2150 	ldr.w	r2, [r7, #336]	@ 0x150
 80028e4:	f8d7 314c 	ldr.w	r3, [r7, #332]	@ 0x14c
 80028e8:	405a      	eors	r2, r3
 80028ea:	f8d7 3154 	ldr.w	r3, [r7, #340]	@ 0x154
 80028ee:	401a      	ands	r2, r3
 80028f0:	f8d7 1150 	ldr.w	r1, [r7, #336]	@ 0x150
 80028f4:	f8d7 314c 	ldr.w	r3, [r7, #332]	@ 0x14c
 80028f8:	400b      	ands	r3, r1
 80028fa:	4053      	eors	r3, r2
 80028fc:	f8c7 3118 	str.w	r3, [r7, #280]	@ 0x118
    uint32_t temp2 = s0 + maj;
 8002900:	f8d7 211c 	ldr.w	r2, [r7, #284]	@ 0x11c
 8002904:	f8d7 3118 	ldr.w	r3, [r7, #280]	@ 0x118
 8002908:	4413      	add	r3, r2
 800290a:	f8c7 3114 	str.w	r3, [r7, #276]	@ 0x114

    h = g;
 800290e:	f8d7 313c 	ldr.w	r3, [r7, #316]	@ 0x13c
 8002912:	f8c7 3138 	str.w	r3, [r7, #312]	@ 0x138
    g = f;
 8002916:	f8d7 3140 	ldr.w	r3, [r7, #320]	@ 0x140
 800291a:	f8c7 313c 	str.w	r3, [r7, #316]	@ 0x13c
    f = e;
 800291e:	f8d7 3144 	ldr.w	r3, [r7, #324]	@ 0x144
 8002922:	f8c7 3140 	str.w	r3, [r7, #320]	@ 0x140
    e = d + temp1;
 8002926:	f8d7 2148 	ldr.w	r2, [r7, #328]	@ 0x148
 800292a:	f8d7 3120 	ldr.w	r3, [r7, #288]	@ 0x120
 800292e:	4413      	add	r3, r2
 8002930:	f8c7 3144 	str.w	r3, [r7, #324]	@ 0x144
    d = c;
 8002934:	f8d7 314c 	ldr.w	r3, [r7, #332]	@ 0x14c
 8002938:	f8c7 3148 	str.w	r3, [r7, #328]	@ 0x148
    c = b;
 800293c:	f8d7 3150 	ldr.w	r3, [r7, #336]	@ 0x150
 8002940:	f8c7 314c 	str.w	r3, [r7, #332]	@ 0x14c
    b = a;
 8002944:	f8d7 3154 	ldr.w	r3, [r7, #340]	@ 0x154
 8002948:	f8c7 3150 	str.w	r3, [r7, #336]	@ 0x150
    a = temp1 + temp2;
 800294c:	f8d7 2120 	ldr.w	r2, [r7, #288]	@ 0x120
 8002950:	f8d7 3114 	ldr.w	r3, [r7, #276]	@ 0x114
 8002954:	4413      	add	r3, r2
 8002956:	f8c7 3154 	str.w	r3, [r7, #340]	@ 0x154
  for (uint32_t i = 0U; i < 64U; i++)
 800295a:	f8d7 312c 	ldr.w	r3, [r7, #300]	@ 0x12c
 800295e:	3301      	adds	r3, #1
 8002960:	f8c7 312c 	str.w	r3, [r7, #300]	@ 0x12c
 8002964:	f8d7 312c 	ldr.w	r3, [r7, #300]	@ 0x12c
 8002968:	2b3f      	cmp	r3, #63	@ 0x3f
 800296a:	f67f af66 	bls.w	800283a <sha256_transform+0x242>
  }

  ctx->state[0] += a;
 800296e:	f507 73ac 	add.w	r3, r7, #344	@ 0x158
 8002972:	f5a3 73aa 	sub.w	r3, r3, #340	@ 0x154
 8002976:	681b      	ldr	r3, [r3, #0]
 8002978:	681a      	ldr	r2, [r3, #0]
 800297a:	f8d7 3154 	ldr.w	r3, [r7, #340]	@ 0x154
 800297e:	441a      	add	r2, r3
 8002980:	f507 73ac 	add.w	r3, r7, #344	@ 0x158
 8002984:	f5a3 73aa 	sub.w	r3, r3, #340	@ 0x154
 8002988:	681b      	ldr	r3, [r3, #0]
 800298a:	601a      	str	r2, [r3, #0]
  ctx->state[1] += b;
 800298c:	f507 73ac 	add.w	r3, r7, #344	@ 0x158
 8002990:	f5a3 73aa 	sub.w	r3, r3, #340	@ 0x154
 8002994:	681b      	ldr	r3, [r3, #0]
 8002996:	685a      	ldr	r2, [r3, #4]
 8002998:	f8d7 3150 	ldr.w	r3, [r7, #336]	@ 0x150
 800299c:	441a      	add	r2, r3
 800299e:	f507 73ac 	add.w	r3, r7, #344	@ 0x158
 80029a2:	f5a3 73aa 	sub.w	r3, r3, #340	@ 0x154
 80029a6:	681b      	ldr	r3, [r3, #0]
 80029a8:	605a      	str	r2, [r3, #4]
  ctx->state[2] += c;
 80029aa:	f507 73ac 	add.w	r3, r7, #344	@ 0x158
 80029ae:	f5a3 73aa 	sub.w	r3, r3, #340	@ 0x154
 80029b2:	681b      	ldr	r3, [r3, #0]
 80029b4:	689a      	ldr	r2, [r3, #8]
 80029b6:	f8d7 314c 	ldr.w	r3, [r7, #332]	@ 0x14c
 80029ba:	441a      	add	r2, r3
 80029bc:	f507 73ac 	add.w	r3, r7, #344	@ 0x158
 80029c0:	f5a3 73aa 	sub.w	r3, r3, #340	@ 0x154
 80029c4:	681b      	ldr	r3, [r3, #0]
 80029c6:	609a      	str	r2, [r3, #8]
  ctx->state[3] += d;
 80029c8:	f507 73ac 	add.w	r3, r7, #344	@ 0x158
 80029cc:	f5a3 73aa 	sub.w	r3, r3, #340	@ 0x154
 80029d0:	681b      	ldr	r3, [r3, #0]
 80029d2:	68da      	ldr	r2, [r3, #12]
 80029d4:	f8d7 3148 	ldr.w	r3, [r7, #328]	@ 0x148
 80029d8:	441a      	add	r2, r3
 80029da:	f507 73ac 	add.w	r3, r7, #344	@ 0x158
 80029de:	f5a3 73aa 	sub.w	r3, r3, #340	@ 0x154
 80029e2:	681b      	ldr	r3, [r3, #0]
 80029e4:	60da      	str	r2, [r3, #12]
  ctx->state[4] += e;
 80029e6:	f507 73ac 	add.w	r3, r7, #344	@ 0x158
 80029ea:	f5a3 73aa 	sub.w	r3, r3, #340	@ 0x154
 80029ee:	681b      	ldr	r3, [r3, #0]
 80029f0:	691a      	ldr	r2, [r3, #16]
 80029f2:	f8d7 3144 	ldr.w	r3, [r7, #324]	@ 0x144
 80029f6:	441a      	add	r2, r3
 80029f8:	f507 73ac 	add.w	r3, r7, #344	@ 0x158
 80029fc:	f5a3 73aa 	sub.w	r3, r3, #340	@ 0x154
 8002a00:	681b      	ldr	r3, [r3, #0]
 8002a02:	611a      	str	r2, [r3, #16]
  ctx->state[5] += f;
 8002a04:	f507 73ac 	add.w	r3, r7, #344	@ 0x158
 8002a08:	f5a3 73aa 	sub.w	r3, r3, #340	@ 0x154
 8002a0c:	681b      	ldr	r3, [r3, #0]
 8002a0e:	695a      	ldr	r2, [r3, #20]
 8002a10:	f8d7 3140 	ldr.w	r3, [r7, #320]	@ 0x140
 8002a14:	441a      	add	r2, r3
 8002a16:	f507 73ac 	add.w	r3, r7, #344	@ 0x158
 8002a1a:	f5a3 73aa 	sub.w	r3, r3, #340	@ 0x154
 8002a1e:	681b      	ldr	r3, [r3, #0]
 8002a20:	615a      	str	r2, [r3, #20]
  ctx->state[6] += g;
 8002a22:	f507 73ac 	add.w	r3, r7, #344	@ 0x158
 8002a26:	f5a3 73aa 	sub.w	r3, r3, #340	@ 0x154
 8002a2a:	681b      	ldr	r3, [r3, #0]
 8002a2c:	699a      	ldr	r2, [r3, #24]
 8002a2e:	f8d7 313c 	ldr.w	r3, [r7, #316]	@ 0x13c
 8002a32:	441a      	add	r2, r3
 8002a34:	f507 73ac 	add.w	r3, r7, #344	@ 0x158
 8002a38:	f5a3 73aa 	sub.w	r3, r3, #340	@ 0x154
 8002a3c:	681b      	ldr	r3, [r3, #0]
 8002a3e:	619a      	str	r2, [r3, #24]
  ctx->state[7] += h;
 8002a40:	f507 73ac 	add.w	r3, r7, #344	@ 0x158
 8002a44:	f5a3 73aa 	sub.w	r3, r3, #340	@ 0x154
 8002a48:	681b      	ldr	r3, [r3, #0]
 8002a4a:	69da      	ldr	r2, [r3, #28]
 8002a4c:	f8d7 3138 	ldr.w	r3, [r7, #312]	@ 0x138
 8002a50:	441a      	add	r2, r3
 8002a52:	f507 73ac 	add.w	r3, r7, #344	@ 0x158
 8002a56:	f5a3 73aa 	sub.w	r3, r3, #340	@ 0x154
 8002a5a:	681b      	ldr	r3, [r3, #0]
 8002a5c:	61da      	str	r2, [r3, #28]
}
 8002a5e:	bf00      	nop
 8002a60:	f507 77ae 	add.w	r7, r7, #348	@ 0x15c
 8002a64:	46bd      	mov	sp, r7
 8002a66:	bd90      	pop	{r4, r7, pc}
 8002a68:	08005f4c 	.word	0x08005f4c

08002a6c <sha256_init>:

static void sha256_init(sha256_ctx_t *ctx)
{
 8002a6c:	b480      	push	{r7}
 8002a6e:	b083      	sub	sp, #12
 8002a70:	af00      	add	r7, sp, #0
 8002a72:	6078      	str	r0, [r7, #4]
  ctx->data_len = 0U;
 8002a74:	687b      	ldr	r3, [r7, #4]
 8002a76:	2200      	movs	r2, #0
 8002a78:	669a      	str	r2, [r3, #104]	@ 0x68
  ctx->bit_length = 0U;
 8002a7a:	6879      	ldr	r1, [r7, #4]
 8002a7c:	f04f 0200 	mov.w	r2, #0
 8002a80:	f04f 0300 	mov.w	r3, #0
 8002a84:	e9c1 2308 	strd	r2, r3, [r1, #32]
  ctx->state[0] = 0x6A09E667UL;
 8002a88:	687b      	ldr	r3, [r7, #4]
 8002a8a:	4a0e      	ldr	r2, [pc, #56]	@ (8002ac4 <sha256_init+0x58>)
 8002a8c:	601a      	str	r2, [r3, #0]
  ctx->state[1] = 0xBB67AE85UL;
 8002a8e:	687b      	ldr	r3, [r7, #4]
 8002a90:	4a0d      	ldr	r2, [pc, #52]	@ (8002ac8 <sha256_init+0x5c>)
 8002a92:	605a      	str	r2, [r3, #4]
  ctx->state[2] = 0x3C6EF372UL;
 8002a94:	687b      	ldr	r3, [r7, #4]
 8002a96:	4a0d      	ldr	r2, [pc, #52]	@ (8002acc <sha256_init+0x60>)
 8002a98:	609a      	str	r2, [r3, #8]
  ctx->state[3] = 0xA54FF53AUL;
 8002a9a:	687b      	ldr	r3, [r7, #4]
 8002a9c:	4a0c      	ldr	r2, [pc, #48]	@ (8002ad0 <sha256_init+0x64>)
 8002a9e:	60da      	str	r2, [r3, #12]
  ctx->state[4] = 0x510E527FUL;
 8002aa0:	687b      	ldr	r3, [r7, #4]
 8002aa2:	4a0c      	ldr	r2, [pc, #48]	@ (8002ad4 <sha256_init+0x68>)
 8002aa4:	611a      	str	r2, [r3, #16]
  ctx->state[5] = 0x9B05688CUL;
 8002aa6:	687b      	ldr	r3, [r7, #4]
 8002aa8:	4a0b      	ldr	r2, [pc, #44]	@ (8002ad8 <sha256_init+0x6c>)
 8002aaa:	615a      	str	r2, [r3, #20]
  ctx->state[6] = 0x1F83D9ABUL;
 8002aac:	687b      	ldr	r3, [r7, #4]
 8002aae:	4a0b      	ldr	r2, [pc, #44]	@ (8002adc <sha256_init+0x70>)
 8002ab0:	619a      	str	r2, [r3, #24]
  ctx->state[7] = 0x5BE0CD19UL;
 8002ab2:	687b      	ldr	r3, [r7, #4]
 8002ab4:	4a0a      	ldr	r2, [pc, #40]	@ (8002ae0 <sha256_init+0x74>)
 8002ab6:	61da      	str	r2, [r3, #28]
}
 8002ab8:	bf00      	nop
 8002aba:	370c      	adds	r7, #12
 8002abc:	46bd      	mov	sp, r7
 8002abe:	f85d 7b04 	ldr.w	r7, [sp], #4
 8002ac2:	4770      	bx	lr
 8002ac4:	6a09e667 	.word	0x6a09e667
 8002ac8:	bb67ae85 	.word	0xbb67ae85
 8002acc:	3c6ef372 	.word	0x3c6ef372
 8002ad0:	a54ff53a 	.word	0xa54ff53a
 8002ad4:	510e527f 	.word	0x510e527f
 8002ad8:	9b05688c 	.word	0x9b05688c
 8002adc:	1f83d9ab 	.word	0x1f83d9ab
 8002ae0:	5be0cd19 	.word	0x5be0cd19

08002ae4 <sha256_update>:

static void sha256_update(sha256_ctx_t *ctx, const uint8_t *data, size_t len)
{
 8002ae4:	b5b0      	push	{r4, r5, r7, lr}
 8002ae6:	b086      	sub	sp, #24
 8002ae8:	af00      	add	r7, sp, #0
 8002aea:	60f8      	str	r0, [r7, #12]
 8002aec:	60b9      	str	r1, [r7, #8]
 8002aee:	607a      	str	r2, [r7, #4]
  for (size_t i = 0U; i < len; i++)
 8002af0:	2300      	movs	r3, #0
 8002af2:	617b      	str	r3, [r7, #20]
 8002af4:	e027      	b.n	8002b46 <sha256_update+0x62>
  {
    ctx->data[ctx->data_len++] = data[i];
 8002af6:	68ba      	ldr	r2, [r7, #8]
 8002af8:	697b      	ldr	r3, [r7, #20]
 8002afa:	441a      	add	r2, r3
 8002afc:	68fb      	ldr	r3, [r7, #12]
 8002afe:	6e9b      	ldr	r3, [r3, #104]	@ 0x68
 8002b00:	1c58      	adds	r0, r3, #1
 8002b02:	68f9      	ldr	r1, [r7, #12]
 8002b04:	6688      	str	r0, [r1, #104]	@ 0x68
 8002b06:	7811      	ldrb	r1, [r2, #0]
 8002b08:	68fa      	ldr	r2, [r7, #12]
 8002b0a:	4413      	add	r3, r2
 8002b0c:	460a      	mov	r2, r1
 8002b0e:	f883 2028 	strb.w	r2, [r3, #40]	@ 0x28
    if (ctx->data_len == 64U)
 8002b12:	68fb      	ldr	r3, [r7, #12]
 8002b14:	6e9b      	ldr	r3, [r3, #104]	@ 0x68
 8002b16:	2b40      	cmp	r3, #64	@ 0x40
 8002b18:	d112      	bne.n	8002b40 <sha256_update+0x5c>
    {
      sha256_transform(ctx, ctx->data);
 8002b1a:	68fb      	ldr	r3, [r7, #12]
 8002b1c:	3328      	adds	r3, #40	@ 0x28
 8002b1e:	4619      	mov	r1, r3
 8002b20:	68f8      	ldr	r0, [r7, #12]
 8002b22:	f7ff fd69 	bl	80025f8 <sha256_transform>
      ctx->bit_length += 512U;
 8002b26:	68fb      	ldr	r3, [r7, #12]
 8002b28:	e9d3 2308 	ldrd	r2, r3, [r3, #32]
 8002b2c:	f512 7400 	adds.w	r4, r2, #512	@ 0x200
 8002b30:	f143 0500 	adc.w	r5, r3, #0
 8002b34:	68fb      	ldr	r3, [r7, #12]
 8002b36:	e9c3 4508 	strd	r4, r5, [r3, #32]
      ctx->data_len = 0U;
 8002b3a:	68fb      	ldr	r3, [r7, #12]
 8002b3c:	2200      	movs	r2, #0
 8002b3e:	669a      	str	r2, [r3, #104]	@ 0x68
  for (size_t i = 0U; i < len; i++)
 8002b40:	697b      	ldr	r3, [r7, #20]
 8002b42:	3301      	adds	r3, #1
 8002b44:	617b      	str	r3, [r7, #20]
 8002b46:	697a      	ldr	r2, [r7, #20]
 8002b48:	687b      	ldr	r3, [r7, #4]
 8002b4a:	429a      	cmp	r2, r3
 8002b4c:	d3d3      	bcc.n	8002af6 <sha256_update+0x12>
    }
  }
}
 8002b4e:	bf00      	nop
 8002b50:	bf00      	nop
 8002b52:	3718      	adds	r7, #24
 8002b54:	46bd      	mov	sp, r7
 8002b56:	bdb0      	pop	{r4, r5, r7, pc}

08002b58 <sha256_final>:

static void sha256_final(sha256_ctx_t *ctx, uint8_t hash[32])
{
 8002b58:	e92d 43b0 	stmdb	sp!, {r4, r5, r7, r8, r9, lr}
 8002b5c:	b084      	sub	sp, #16
 8002b5e:	af00      	add	r7, sp, #0
 8002b60:	6078      	str	r0, [r7, #4]
 8002b62:	6039      	str	r1, [r7, #0]
  uint32_t i = ctx->data_len;
 8002b64:	687b      	ldr	r3, [r7, #4]
 8002b66:	6e9b      	ldr	r3, [r3, #104]	@ 0x68
 8002b68:	60fb      	str	r3, [r7, #12]

  ctx->data[i++] = 0x80U;
 8002b6a:	68fb      	ldr	r3, [r7, #12]
 8002b6c:	1c5a      	adds	r2, r3, #1
 8002b6e:	60fa      	str	r2, [r7, #12]
 8002b70:	687a      	ldr	r2, [r7, #4]
 8002b72:	4413      	add	r3, r2
 8002b74:	2280      	movs	r2, #128	@ 0x80
 8002b76:	f883 2028 	strb.w	r2, [r3, #40]	@ 0x28

  if (i > 56U)
 8002b7a:	68fb      	ldr	r3, [r7, #12]
 8002b7c:	2b38      	cmp	r3, #56	@ 0x38
 8002b7e:	d91c      	bls.n	8002bba <sha256_final+0x62>
  {
    while (i < 64U)
 8002b80:	e007      	b.n	8002b92 <sha256_final+0x3a>
    {
      ctx->data[i++] = 0x00U;
 8002b82:	68fb      	ldr	r3, [r7, #12]
 8002b84:	1c5a      	adds	r2, r3, #1
 8002b86:	60fa      	str	r2, [r7, #12]
 8002b88:	687a      	ldr	r2, [r7, #4]
 8002b8a:	4413      	add	r3, r2
 8002b8c:	2200      	movs	r2, #0
 8002b8e:	f883 2028 	strb.w	r2, [r3, #40]	@ 0x28
    while (i < 64U)
 8002b92:	68fb      	ldr	r3, [r7, #12]
 8002b94:	2b3f      	cmp	r3, #63	@ 0x3f
 8002b96:	d9f4      	bls.n	8002b82 <sha256_final+0x2a>
    }

    sha256_transform(ctx, ctx->data);
 8002b98:	687b      	ldr	r3, [r7, #4]
 8002b9a:	3328      	adds	r3, #40	@ 0x28
 8002b9c:	4619      	mov	r1, r3
 8002b9e:	6878      	ldr	r0, [r7, #4]
 8002ba0:	f7ff fd2a 	bl	80025f8 <sha256_transform>
    i = 0U;
 8002ba4:	2300      	movs	r3, #0
 8002ba6:	60fb      	str	r3, [r7, #12]
  }

  while (i < 56U)
 8002ba8:	e007      	b.n	8002bba <sha256_final+0x62>
  {
    ctx->data[i++] = 0x00U;
 8002baa:	68fb      	ldr	r3, [r7, #12]
 8002bac:	1c5a      	adds	r2, r3, #1
 8002bae:	60fa      	str	r2, [r7, #12]
 8002bb0:	687a      	ldr	r2, [r7, #4]
 8002bb2:	4413      	add	r3, r2
 8002bb4:	2200      	movs	r2, #0
 8002bb6:	f883 2028 	strb.w	r2, [r3, #40]	@ 0x28
  while (i < 56U)
 8002bba:	68fb      	ldr	r3, [r7, #12]
 8002bbc:	2b37      	cmp	r3, #55	@ 0x37
 8002bbe:	d9f4      	bls.n	8002baa <sha256_final+0x52>
  }

  ctx->bit_length += (uint64_t)ctx->data_len * 8ULL;
 8002bc0:	687b      	ldr	r3, [r7, #4]
 8002bc2:	e9d3 0108 	ldrd	r0, r1, [r3, #32]
 8002bc6:	687b      	ldr	r3, [r7, #4]
 8002bc8:	6e9b      	ldr	r3, [r3, #104]	@ 0x68
 8002bca:	2200      	movs	r2, #0
 8002bcc:	461c      	mov	r4, r3
 8002bce:	4615      	mov	r5, r2
 8002bd0:	f04f 0200 	mov.w	r2, #0
 8002bd4:	f04f 0300 	mov.w	r3, #0
 8002bd8:	00eb      	lsls	r3, r5, #3
 8002bda:	ea43 7354 	orr.w	r3, r3, r4, lsr #29
 8002bde:	00e2      	lsls	r2, r4, #3
 8002be0:	eb10 0802 	adds.w	r8, r0, r2
 8002be4:	eb41 0903 	adc.w	r9, r1, r3
 8002be8:	687b      	ldr	r3, [r7, #4]
 8002bea:	e9c3 8908 	strd	r8, r9, [r3, #32]
  ctx->data[63] = (uint8_t)(ctx->bit_length);
 8002bee:	687b      	ldr	r3, [r7, #4]
 8002bf0:	e9d3 2308 	ldrd	r2, r3, [r3, #32]
 8002bf4:	b2d2      	uxtb	r2, r2
 8002bf6:	687b      	ldr	r3, [r7, #4]
 8002bf8:	f883 2067 	strb.w	r2, [r3, #103]	@ 0x67
  ctx->data[62] = (uint8_t)(ctx->bit_length >> 8);
 8002bfc:	687b      	ldr	r3, [r7, #4]
 8002bfe:	e9d3 0108 	ldrd	r0, r1, [r3, #32]
 8002c02:	f04f 0200 	mov.w	r2, #0
 8002c06:	f04f 0300 	mov.w	r3, #0
 8002c0a:	0a02      	lsrs	r2, r0, #8
 8002c0c:	ea42 6201 	orr.w	r2, r2, r1, lsl #24
 8002c10:	0a0b      	lsrs	r3, r1, #8
 8002c12:	b2d2      	uxtb	r2, r2
 8002c14:	687b      	ldr	r3, [r7, #4]
 8002c16:	f883 2066 	strb.w	r2, [r3, #102]	@ 0x66
  ctx->data[61] = (uint8_t)(ctx->bit_length >> 16);
 8002c1a:	687b      	ldr	r3, [r7, #4]
 8002c1c:	e9d3 0108 	ldrd	r0, r1, [r3, #32]
 8002c20:	f04f 0200 	mov.w	r2, #0
 8002c24:	f04f 0300 	mov.w	r3, #0
 8002c28:	0c02      	lsrs	r2, r0, #16
 8002c2a:	ea42 4201 	orr.w	r2, r2, r1, lsl #16
 8002c2e:	0c0b      	lsrs	r3, r1, #16
 8002c30:	b2d2      	uxtb	r2, r2
 8002c32:	687b      	ldr	r3, [r7, #4]
 8002c34:	f883 2065 	strb.w	r2, [r3, #101]	@ 0x65
  ctx->data[60] = (uint8_t)(ctx->bit_length >> 24);
 8002c38:	687b      	ldr	r3, [r7, #4]
 8002c3a:	e9d3 0108 	ldrd	r0, r1, [r3, #32]
 8002c3e:	f04f 0200 	mov.w	r2, #0
 8002c42:	f04f 0300 	mov.w	r3, #0
 8002c46:	0e02      	lsrs	r2, r0, #24
 8002c48:	ea42 2201 	orr.w	r2, r2, r1, lsl #8
 8002c4c:	0e0b      	lsrs	r3, r1, #24
 8002c4e:	b2d2      	uxtb	r2, r2
 8002c50:	687b      	ldr	r3, [r7, #4]
 8002c52:	f883 2064 	strb.w	r2, [r3, #100]	@ 0x64
  ctx->data[59] = (uint8_t)(ctx->bit_length >> 32);
 8002c56:	687b      	ldr	r3, [r7, #4]
 8002c58:	e9d3 0108 	ldrd	r0, r1, [r3, #32]
 8002c5c:	f04f 0200 	mov.w	r2, #0
 8002c60:	f04f 0300 	mov.w	r3, #0
 8002c64:	000a      	movs	r2, r1
 8002c66:	2300      	movs	r3, #0
 8002c68:	b2d2      	uxtb	r2, r2
 8002c6a:	687b      	ldr	r3, [r7, #4]
 8002c6c:	f883 2063 	strb.w	r2, [r3, #99]	@ 0x63
  ctx->data[58] = (uint8_t)(ctx->bit_length >> 40);
 8002c70:	687b      	ldr	r3, [r7, #4]
 8002c72:	e9d3 0108 	ldrd	r0, r1, [r3, #32]
 8002c76:	f04f 0200 	mov.w	r2, #0
 8002c7a:	f04f 0300 	mov.w	r3, #0
 8002c7e:	0a0a      	lsrs	r2, r1, #8
 8002c80:	2300      	movs	r3, #0
 8002c82:	b2d2      	uxtb	r2, r2
 8002c84:	687b      	ldr	r3, [r7, #4]
 8002c86:	f883 2062 	strb.w	r2, [r3, #98]	@ 0x62
  ctx->data[57] = (uint8_t)(ctx->bit_length >> 48);
 8002c8a:	687b      	ldr	r3, [r7, #4]
 8002c8c:	e9d3 0108 	ldrd	r0, r1, [r3, #32]
 8002c90:	f04f 0200 	mov.w	r2, #0
 8002c94:	f04f 0300 	mov.w	r3, #0
 8002c98:	0c0a      	lsrs	r2, r1, #16
 8002c9a:	2300      	movs	r3, #0
 8002c9c:	b2d2      	uxtb	r2, r2
 8002c9e:	687b      	ldr	r3, [r7, #4]
 8002ca0:	f883 2061 	strb.w	r2, [r3, #97]	@ 0x61
  ctx->data[56] = (uint8_t)(ctx->bit_length >> 56);
 8002ca4:	687b      	ldr	r3, [r7, #4]
 8002ca6:	e9d3 0108 	ldrd	r0, r1, [r3, #32]
 8002caa:	f04f 0200 	mov.w	r2, #0
 8002cae:	f04f 0300 	mov.w	r3, #0
 8002cb2:	0e0a      	lsrs	r2, r1, #24
 8002cb4:	2300      	movs	r3, #0
 8002cb6:	b2d2      	uxtb	r2, r2
 8002cb8:	687b      	ldr	r3, [r7, #4]
 8002cba:	f883 2060 	strb.w	r2, [r3, #96]	@ 0x60
  sha256_transform(ctx, ctx->data);
 8002cbe:	687b      	ldr	r3, [r7, #4]
 8002cc0:	3328      	adds	r3, #40	@ 0x28
 8002cc2:	4619      	mov	r1, r3
 8002cc4:	6878      	ldr	r0, [r7, #4]
 8002cc6:	f7ff fc97 	bl	80025f8 <sha256_transform>

  for (i = 0U; i < 4U; i++)
 8002cca:	2300      	movs	r3, #0
 8002ccc:	60fb      	str	r3, [r7, #12]
 8002cce:	e071      	b.n	8002db4 <sha256_final+0x25c>
  {
    hash[i] = (uint8_t)(ctx->state[0] >> (24U - (i * 8U)));
 8002cd0:	687b      	ldr	r3, [r7, #4]
 8002cd2:	681a      	ldr	r2, [r3, #0]
 8002cd4:	68fb      	ldr	r3, [r7, #12]
 8002cd6:	f1c3 0303 	rsb	r3, r3, #3
 8002cda:	00db      	lsls	r3, r3, #3
 8002cdc:	fa22 f103 	lsr.w	r1, r2, r3
 8002ce0:	683a      	ldr	r2, [r7, #0]
 8002ce2:	68fb      	ldr	r3, [r7, #12]
 8002ce4:	4413      	add	r3, r2
 8002ce6:	b2ca      	uxtb	r2, r1
 8002ce8:	701a      	strb	r2, [r3, #0]
    hash[i + 4U] = (uint8_t)(ctx->state[1] >> (24U - (i * 8U)));
 8002cea:	687b      	ldr	r3, [r7, #4]
 8002cec:	685a      	ldr	r2, [r3, #4]
 8002cee:	68fb      	ldr	r3, [r7, #12]
 8002cf0:	f1c3 0303 	rsb	r3, r3, #3
 8002cf4:	00db      	lsls	r3, r3, #3
 8002cf6:	fa22 f103 	lsr.w	r1, r2, r3
 8002cfa:	68fb      	ldr	r3, [r7, #12]
 8002cfc:	3304      	adds	r3, #4
 8002cfe:	683a      	ldr	r2, [r7, #0]
 8002d00:	4413      	add	r3, r2
 8002d02:	b2ca      	uxtb	r2, r1
 8002d04:	701a      	strb	r2, [r3, #0]
    hash[i + 8U] = (uint8_t)(ctx->state[2] >> (24U - (i * 8U)));
 8002d06:	687b      	ldr	r3, [r7, #4]
 8002d08:	689a      	ldr	r2, [r3, #8]
 8002d0a:	68fb      	ldr	r3, [r7, #12]
 8002d0c:	f1c3 0303 	rsb	r3, r3, #3
 8002d10:	00db      	lsls	r3, r3, #3
 8002d12:	fa22 f103 	lsr.w	r1, r2, r3
 8002d16:	68fb      	ldr	r3, [r7, #12]
 8002d18:	3308      	adds	r3, #8
 8002d1a:	683a      	ldr	r2, [r7, #0]
 8002d1c:	4413      	add	r3, r2
 8002d1e:	b2ca      	uxtb	r2, r1
 8002d20:	701a      	strb	r2, [r3, #0]
    hash[i + 12U] = (uint8_t)(ctx->state[3] >> (24U - (i * 8U)));
 8002d22:	687b      	ldr	r3, [r7, #4]
 8002d24:	68da      	ldr	r2, [r3, #12]
 8002d26:	68fb      	ldr	r3, [r7, #12]
 8002d28:	f1c3 0303 	rsb	r3, r3, #3
 8002d2c:	00db      	lsls	r3, r3, #3
 8002d2e:	fa22 f103 	lsr.w	r1, r2, r3
 8002d32:	68fb      	ldr	r3, [r7, #12]
 8002d34:	330c      	adds	r3, #12
 8002d36:	683a      	ldr	r2, [r7, #0]
 8002d38:	4413      	add	r3, r2
 8002d3a:	b2ca      	uxtb	r2, r1
 8002d3c:	701a      	strb	r2, [r3, #0]
    hash[i + 16U] = (uint8_t)(ctx->state[4] >> (24U - (i * 8U)));
 8002d3e:	687b      	ldr	r3, [r7, #4]
 8002d40:	691a      	ldr	r2, [r3, #16]
 8002d42:	68fb      	ldr	r3, [r7, #12]
 8002d44:	f1c3 0303 	rsb	r3, r3, #3
 8002d48:	00db      	lsls	r3, r3, #3
 8002d4a:	fa22 f103 	lsr.w	r1, r2, r3
 8002d4e:	68fb      	ldr	r3, [r7, #12]
 8002d50:	3310      	adds	r3, #16
 8002d52:	683a      	ldr	r2, [r7, #0]
 8002d54:	4413      	add	r3, r2
 8002d56:	b2ca      	uxtb	r2, r1
 8002d58:	701a      	strb	r2, [r3, #0]
    hash[i + 20U] = (uint8_t)(ctx->state[5] >> (24U - (i * 8U)));
 8002d5a:	687b      	ldr	r3, [r7, #4]
 8002d5c:	695a      	ldr	r2, [r3, #20]
 8002d5e:	68fb      	ldr	r3, [r7, #12]
 8002d60:	f1c3 0303 	rsb	r3, r3, #3
 8002d64:	00db      	lsls	r3, r3, #3
 8002d66:	fa22 f103 	lsr.w	r1, r2, r3
 8002d6a:	68fb      	ldr	r3, [r7, #12]
 8002d6c:	3314      	adds	r3, #20
 8002d6e:	683a      	ldr	r2, [r7, #0]
 8002d70:	4413      	add	r3, r2
 8002d72:	b2ca      	uxtb	r2, r1
 8002d74:	701a      	strb	r2, [r3, #0]
    hash[i + 24U] = (uint8_t)(ctx->state[6] >> (24U - (i * 8U)));
 8002d76:	687b      	ldr	r3, [r7, #4]
 8002d78:	699a      	ldr	r2, [r3, #24]
 8002d7a:	68fb      	ldr	r3, [r7, #12]
 8002d7c:	f1c3 0303 	rsb	r3, r3, #3
 8002d80:	00db      	lsls	r3, r3, #3
 8002d82:	fa22 f103 	lsr.w	r1, r2, r3
 8002d86:	68fb      	ldr	r3, [r7, #12]
 8002d88:	3318      	adds	r3, #24
 8002d8a:	683a      	ldr	r2, [r7, #0]
 8002d8c:	4413      	add	r3, r2
 8002d8e:	b2ca      	uxtb	r2, r1
 8002d90:	701a      	strb	r2, [r3, #0]
    hash[i + 28U] = (uint8_t)(ctx->state[7] >> (24U - (i * 8U)));
 8002d92:	687b      	ldr	r3, [r7, #4]
 8002d94:	69da      	ldr	r2, [r3, #28]
 8002d96:	68fb      	ldr	r3, [r7, #12]
 8002d98:	f1c3 0303 	rsb	r3, r3, #3
 8002d9c:	00db      	lsls	r3, r3, #3
 8002d9e:	fa22 f103 	lsr.w	r1, r2, r3
 8002da2:	68fb      	ldr	r3, [r7, #12]
 8002da4:	331c      	adds	r3, #28
 8002da6:	683a      	ldr	r2, [r7, #0]
 8002da8:	4413      	add	r3, r2
 8002daa:	b2ca      	uxtb	r2, r1
 8002dac:	701a      	strb	r2, [r3, #0]
  for (i = 0U; i < 4U; i++)
 8002dae:	68fb      	ldr	r3, [r7, #12]
 8002db0:	3301      	adds	r3, #1
 8002db2:	60fb      	str	r3, [r7, #12]
 8002db4:	68fb      	ldr	r3, [r7, #12]
 8002db6:	2b03      	cmp	r3, #3
 8002db8:	d98a      	bls.n	8002cd0 <sha256_final+0x178>
  }
}
 8002dba:	bf00      	nop
 8002dbc:	bf00      	nop
 8002dbe:	3710      	adds	r7, #16
 8002dc0:	46bd      	mov	sp, r7
 8002dc2:	e8bd 83b0 	ldmia.w	sp!, {r4, r5, r7, r8, r9, pc}

08002dc6 <sha256_hash>:

static void sha256_hash(const uint8_t *data, size_t len, uint8_t digest[32])
{
 8002dc6:	b580      	push	{r7, lr}
 8002dc8:	b0a0      	sub	sp, #128	@ 0x80
 8002dca:	af00      	add	r7, sp, #0
 8002dcc:	60f8      	str	r0, [r7, #12]
 8002dce:	60b9      	str	r1, [r7, #8]
 8002dd0:	607a      	str	r2, [r7, #4]
  sha256_ctx_t ctx;

  sha256_init(&ctx);
 8002dd2:	f107 0310 	add.w	r3, r7, #16
 8002dd6:	4618      	mov	r0, r3
 8002dd8:	f7ff fe48 	bl	8002a6c <sha256_init>
  sha256_update(&ctx, data, len);
 8002ddc:	f107 0310 	add.w	r3, r7, #16
 8002de0:	68ba      	ldr	r2, [r7, #8]
 8002de2:	68f9      	ldr	r1, [r7, #12]
 8002de4:	4618      	mov	r0, r3
 8002de6:	f7ff fe7d 	bl	8002ae4 <sha256_update>
  sha256_final(&ctx, digest);
 8002dea:	f107 0310 	add.w	r3, r7, #16
 8002dee:	6879      	ldr	r1, [r7, #4]
 8002df0:	4618      	mov	r0, r3
 8002df2:	f7ff feb1 	bl	8002b58 <sha256_final>
}
 8002df6:	bf00      	nop
 8002df8:	3780      	adds	r7, #128	@ 0x80
 8002dfa:	46bd      	mov	sp, r7
 8002dfc:	bd80      	pop	{r7, pc}

08002dfe <hmac_sha256>:
    const uint8_t *part1,
    size_t part1_len,
    const uint8_t *part2,
    size_t part2_len,
    uint8_t digest[32])
{
 8002dfe:	b5b0      	push	{r4, r5, r7, lr}
 8002e00:	b0e2      	sub	sp, #392	@ 0x188
 8002e02:	af00      	add	r7, sp, #0
 8002e04:	f507 74c4 	add.w	r4, r7, #392	@ 0x188
 8002e08:	f5a4 74be 	sub.w	r4, r4, #380	@ 0x17c
 8002e0c:	6020      	str	r0, [r4, #0]
 8002e0e:	f507 70c4 	add.w	r0, r7, #392	@ 0x188
 8002e12:	f5a0 70c0 	sub.w	r0, r0, #384	@ 0x180
 8002e16:	6001      	str	r1, [r0, #0]
 8002e18:	f507 71c4 	add.w	r1, r7, #392	@ 0x188
 8002e1c:	f5a1 71c2 	sub.w	r1, r1, #388	@ 0x184
 8002e20:	600a      	str	r2, [r1, #0]
 8002e22:	f507 72c4 	add.w	r2, r7, #392	@ 0x188
 8002e26:	f5a2 72c4 	sub.w	r2, r2, #392	@ 0x188
 8002e2a:	6013      	str	r3, [r2, #0]
  uint8_t ipad[SHA256_BLOCK_SIZE];
  uint8_t opad[SHA256_BLOCK_SIZE];
  uint8_t hashed_key[SHA256_DIGEST_SIZE];
  sha256_ctx_t ctx;

  memset(key_block, 0, sizeof(key_block));
 8002e2c:	f507 73a2 	add.w	r3, r7, #324	@ 0x144
 8002e30:	2240      	movs	r2, #64	@ 0x40
 8002e32:	2100      	movs	r1, #0
 8002e34:	4618      	mov	r0, r3
 8002e36:	f002 fa81 	bl	800533c <memset>

  if (key_len > SHA256_BLOCK_SIZE)
 8002e3a:	f507 73c4 	add.w	r3, r7, #392	@ 0x188
 8002e3e:	f5a3 73c0 	sub.w	r3, r3, #384	@ 0x180
 8002e42:	681b      	ldr	r3, [r3, #0]
 8002e44:	2b40      	cmp	r3, #64	@ 0x40
 8002e46:	d91b      	bls.n	8002e80 <hmac_sha256+0x82>
  {
    sha256_hash(key, key_len, hashed_key);
 8002e48:	f107 0284 	add.w	r2, r7, #132	@ 0x84
 8002e4c:	f507 73c4 	add.w	r3, r7, #392	@ 0x188
 8002e50:	f5a3 71c0 	sub.w	r1, r3, #384	@ 0x180
 8002e54:	f507 73c4 	add.w	r3, r7, #392	@ 0x188
 8002e58:	f5a3 73be 	sub.w	r3, r3, #380	@ 0x17c
 8002e5c:	6809      	ldr	r1, [r1, #0]
 8002e5e:	6818      	ldr	r0, [r3, #0]
 8002e60:	f7ff ffb1 	bl	8002dc6 <sha256_hash>
    memcpy(key_block, hashed_key, sizeof(hashed_key));
 8002e64:	f507 73c4 	add.w	r3, r7, #392	@ 0x188
 8002e68:	f5a3 7382 	sub.w	r3, r3, #260	@ 0x104
 8002e6c:	f507 74a2 	add.w	r4, r7, #324	@ 0x144
 8002e70:	461d      	mov	r5, r3
 8002e72:	cd0f      	ldmia	r5!, {r0, r1, r2, r3}
 8002e74:	c40f      	stmia	r4!, {r0, r1, r2, r3}
 8002e76:	e895 000f 	ldmia.w	r5, {r0, r1, r2, r3}
 8002e7a:	e884 000f 	stmia.w	r4, {r0, r1, r2, r3}
 8002e7e:	e00d      	b.n	8002e9c <hmac_sha256+0x9e>
  }
  else
  {
    memcpy(key_block, key, key_len);
 8002e80:	f507 73c4 	add.w	r3, r7, #392	@ 0x188
 8002e84:	f5a3 72c0 	sub.w	r2, r3, #384	@ 0x180
 8002e88:	f507 73c4 	add.w	r3, r7, #392	@ 0x188
 8002e8c:	f5a3 73be 	sub.w	r3, r3, #380	@ 0x17c
 8002e90:	f507 70a2 	add.w	r0, r7, #324	@ 0x144
 8002e94:	6812      	ldr	r2, [r2, #0]
 8002e96:	6819      	ldr	r1, [r3, #0]
 8002e98:	f002 faac 	bl	80053f4 <memcpy>
  }

  for (size_t i = 0U; i < SHA256_BLOCK_SIZE; i++)
 8002e9c:	2300      	movs	r3, #0
 8002e9e:	f8c7 3184 	str.w	r3, [r7, #388]	@ 0x184
 8002ea2:	e024      	b.n	8002eee <hmac_sha256+0xf0>
  {
    ipad[i] = key_block[i] ^ 0x36U;
 8002ea4:	f507 72a2 	add.w	r2, r7, #324	@ 0x144
 8002ea8:	f8d7 3184 	ldr.w	r3, [r7, #388]	@ 0x184
 8002eac:	4413      	add	r3, r2
 8002eae:	781b      	ldrb	r3, [r3, #0]
 8002eb0:	f083 0336 	eor.w	r3, r3, #54	@ 0x36
 8002eb4:	b2d9      	uxtb	r1, r3
 8002eb6:	f107 02e4 	add.w	r2, r7, #228	@ 0xe4
 8002eba:	f8d7 3184 	ldr.w	r3, [r7, #388]	@ 0x184
 8002ebe:	4413      	add	r3, r2
 8002ec0:	460a      	mov	r2, r1
 8002ec2:	701a      	strb	r2, [r3, #0]
    opad[i] = key_block[i] ^ 0x5CU;
 8002ec4:	f507 72a2 	add.w	r2, r7, #324	@ 0x144
 8002ec8:	f8d7 3184 	ldr.w	r3, [r7, #388]	@ 0x184
 8002ecc:	4413      	add	r3, r2
 8002ece:	781b      	ldrb	r3, [r3, #0]
 8002ed0:	f083 035c 	eor.w	r3, r3, #92	@ 0x5c
 8002ed4:	b2d9      	uxtb	r1, r3
 8002ed6:	f107 02a4 	add.w	r2, r7, #164	@ 0xa4
 8002eda:	f8d7 3184 	ldr.w	r3, [r7, #388]	@ 0x184
 8002ede:	4413      	add	r3, r2
 8002ee0:	460a      	mov	r2, r1
 8002ee2:	701a      	strb	r2, [r3, #0]
  for (size_t i = 0U; i < SHA256_BLOCK_SIZE; i++)
 8002ee4:	f8d7 3184 	ldr.w	r3, [r7, #388]	@ 0x184
 8002ee8:	3301      	adds	r3, #1
 8002eea:	f8c7 3184 	str.w	r3, [r7, #388]	@ 0x184
 8002eee:	f8d7 3184 	ldr.w	r3, [r7, #388]	@ 0x184
 8002ef2:	2b3f      	cmp	r3, #63	@ 0x3f
 8002ef4:	d9d6      	bls.n	8002ea4 <hmac_sha256+0xa6>
  }

  sha256_init(&ctx);
 8002ef6:	f107 0310 	add.w	r3, r7, #16
 8002efa:	4618      	mov	r0, r3
 8002efc:	f7ff fdb6 	bl	8002a6c <sha256_init>
  sha256_update(&ctx, ipad, sizeof(ipad));
 8002f00:	f107 01e4 	add.w	r1, r7, #228	@ 0xe4
 8002f04:	f107 0310 	add.w	r3, r7, #16
 8002f08:	2240      	movs	r2, #64	@ 0x40
 8002f0a:	4618      	mov	r0, r3
 8002f0c:	f7ff fdea 	bl	8002ae4 <sha256_update>
  sha256_update(&ctx, part1, part1_len);
 8002f10:	f507 73c4 	add.w	r3, r7, #392	@ 0x188
 8002f14:	f5a3 72c4 	sub.w	r2, r3, #392	@ 0x188
 8002f18:	f507 73c4 	add.w	r3, r7, #392	@ 0x188
 8002f1c:	f5a3 73c2 	sub.w	r3, r3, #388	@ 0x184
 8002f20:	f107 0010 	add.w	r0, r7, #16
 8002f24:	6812      	ldr	r2, [r2, #0]
 8002f26:	6819      	ldr	r1, [r3, #0]
 8002f28:	f7ff fddc 	bl	8002ae4 <sha256_update>
  sha256_update(&ctx, part2, part2_len);
 8002f2c:	f107 0310 	add.w	r3, r7, #16
 8002f30:	f8d7 219c 	ldr.w	r2, [r7, #412]	@ 0x19c
 8002f34:	f8d7 1198 	ldr.w	r1, [r7, #408]	@ 0x198
 8002f38:	4618      	mov	r0, r3
 8002f3a:	f7ff fdd3 	bl	8002ae4 <sha256_update>
  sha256_final(&ctx, inner_digest);
 8002f3e:	f507 7292 	add.w	r2, r7, #292	@ 0x124
 8002f42:	f107 0310 	add.w	r3, r7, #16
 8002f46:	4611      	mov	r1, r2
 8002f48:	4618      	mov	r0, r3
 8002f4a:	f7ff fe05 	bl	8002b58 <sha256_final>

  sha256_init(&ctx);
 8002f4e:	f107 0310 	add.w	r3, r7, #16
 8002f52:	4618      	mov	r0, r3
 8002f54:	f7ff fd8a 	bl	8002a6c <sha256_init>
  sha256_update(&ctx, opad, sizeof(opad));
 8002f58:	f107 01a4 	add.w	r1, r7, #164	@ 0xa4
 8002f5c:	f107 0310 	add.w	r3, r7, #16
 8002f60:	2240      	movs	r2, #64	@ 0x40
 8002f62:	4618      	mov	r0, r3
 8002f64:	f7ff fdbe 	bl	8002ae4 <sha256_update>
  sha256_update(&ctx, inner_digest, sizeof(inner_digest));
 8002f68:	f507 7192 	add.w	r1, r7, #292	@ 0x124
 8002f6c:	f107 0310 	add.w	r3, r7, #16
 8002f70:	2220      	movs	r2, #32
 8002f72:	4618      	mov	r0, r3
 8002f74:	f7ff fdb6 	bl	8002ae4 <sha256_update>
  sha256_final(&ctx, digest);
 8002f78:	f107 0310 	add.w	r3, r7, #16
 8002f7c:	f8d7 11a0 	ldr.w	r1, [r7, #416]	@ 0x1a0
 8002f80:	4618      	mov	r0, r3
 8002f82:	f7ff fde9 	bl	8002b58 <sha256_final>
}
 8002f86:	bf00      	nop
 8002f88:	f507 77c4 	add.w	r7, r7, #392	@ 0x188
 8002f8c:	46bd      	mov	sp, r7
 8002f8e:	bdb0      	pop	{r4, r5, r7, pc}

08002f90 <build_link_context_digest>:

static void build_link_context_digest(
    const char *sender_device_id,
    const char *receiver_device_id,
    uint8_t digest[32])
{
 8002f90:	b580      	push	{r7, lr}
 8002f92:	b0a0      	sub	sp, #128	@ 0x80
 8002f94:	af00      	add	r7, sp, #0
 8002f96:	60f8      	str	r0, [r7, #12]
 8002f98:	60b9      	str	r1, [r7, #8]
 8002f9a:	607a      	str	r2, [r7, #4]
  static const uint8_t context_label[] = "SECURE-LINK-CONTEXT";
  sha256_ctx_t ctx;

  sha256_init(&ctx);
 8002f9c:	f107 0310 	add.w	r3, r7, #16
 8002fa0:	4618      	mov	r0, r3
 8002fa2:	f7ff fd63 	bl	8002a6c <sha256_init>
  sha256_update(&ctx, context_label, sizeof(context_label) - 1U);
 8002fa6:	f107 0310 	add.w	r3, r7, #16
 8002faa:	2213      	movs	r2, #19
 8002fac:	4910      	ldr	r1, [pc, #64]	@ (8002ff0 <build_link_context_digest+0x60>)
 8002fae:	4618      	mov	r0, r3
 8002fb0:	f7ff fd98 	bl	8002ae4 <sha256_update>
  sha256_update(&ctx, (const uint8_t *)sender_device_id, strlen(sender_device_id));
 8002fb4:	68f8      	ldr	r0, [r7, #12]
 8002fb6:	f7fd f90b 	bl	80001d0 <strlen>
 8002fba:	4602      	mov	r2, r0
 8002fbc:	f107 0310 	add.w	r3, r7, #16
 8002fc0:	68f9      	ldr	r1, [r7, #12]
 8002fc2:	4618      	mov	r0, r3
 8002fc4:	f7ff fd8e 	bl	8002ae4 <sha256_update>
  sha256_update(&ctx, (const uint8_t *)receiver_device_id, strlen(receiver_device_id));
 8002fc8:	68b8      	ldr	r0, [r7, #8]
 8002fca:	f7fd f901 	bl	80001d0 <strlen>
 8002fce:	4602      	mov	r2, r0
 8002fd0:	f107 0310 	add.w	r3, r7, #16
 8002fd4:	68b9      	ldr	r1, [r7, #8]
 8002fd6:	4618      	mov	r0, r3
 8002fd8:	f7ff fd84 	bl	8002ae4 <sha256_update>
  sha256_final(&ctx, digest);
 8002fdc:	f107 0310 	add.w	r3, r7, #16
 8002fe0:	6879      	ldr	r1, [r7, #4]
 8002fe2:	4618      	mov	r0, r3
 8002fe4:	f7ff fdb8 	bl	8002b58 <sha256_final>
}
 8002fe8:	bf00      	nop
 8002fea:	3780      	adds	r7, #128	@ 0x80
 8002fec:	46bd      	mov	sp, r7
 8002fee:	bd80      	pop	{r7, pc}
 8002ff0:	08006060 	.word	0x08006060

08002ff4 <derive_keys>:
    const char *master_secret,
    const char *sender_device_id,
    const char *receiver_device_id,
    uint8_t aes_key[16],
    uint8_t hmac_key[32])
{
 8002ff4:	b580      	push	{r7, lr}
 8002ff6:	b0b2      	sub	sp, #200	@ 0xc8
 8002ff8:	af00      	add	r7, sp, #0
 8002ffa:	60f8      	str	r0, [r7, #12]
 8002ffc:	60b9      	str	r1, [r7, #8]
 8002ffe:	607a      	str	r2, [r7, #4]
 8003000:	603b      	str	r3, [r7, #0]
  static const uint8_t aes_label[] = "AES-128-CTR";
  static const uint8_t hmac_label[] = "HMAC-SHA256";
  uint8_t link_context_digest[32];
  uint8_t digest[32];
  sha256_ctx_t ctx;
  size_t secret_len = strlen(master_secret);
 8003002:	68f8      	ldr	r0, [r7, #12]
 8003004:	f7fd f8e4 	bl	80001d0 <strlen>
 8003008:	f8c7 00c4 	str.w	r0, [r7, #196]	@ 0xc4

  build_link_context_digest(sender_device_id, receiver_device_id, link_context_digest);
 800300c:	f107 03a4 	add.w	r3, r7, #164	@ 0xa4
 8003010:	461a      	mov	r2, r3
 8003012:	6879      	ldr	r1, [r7, #4]
 8003014:	68b8      	ldr	r0, [r7, #8]
 8003016:	f7ff ffbb 	bl	8002f90 <build_link_context_digest>

  sha256_init(&ctx);
 800301a:	f107 0310 	add.w	r3, r7, #16
 800301e:	4618      	mov	r0, r3
 8003020:	f7ff fd24 	bl	8002a6c <sha256_init>
  sha256_update(&ctx, aes_label, sizeof(aes_label) - 1U);
 8003024:	f107 0310 	add.w	r3, r7, #16
 8003028:	220b      	movs	r2, #11
 800302a:	4925      	ldr	r1, [pc, #148]	@ (80030c0 <derive_keys+0xcc>)
 800302c:	4618      	mov	r0, r3
 800302e:	f7ff fd59 	bl	8002ae4 <sha256_update>
  sha256_update(&ctx, link_context_digest, sizeof(link_context_digest));
 8003032:	f107 01a4 	add.w	r1, r7, #164	@ 0xa4
 8003036:	f107 0310 	add.w	r3, r7, #16
 800303a:	2220      	movs	r2, #32
 800303c:	4618      	mov	r0, r3
 800303e:	f7ff fd51 	bl	8002ae4 <sha256_update>
  sha256_update(&ctx, (const uint8_t *)master_secret, secret_len);
 8003042:	f107 0310 	add.w	r3, r7, #16
 8003046:	f8d7 20c4 	ldr.w	r2, [r7, #196]	@ 0xc4
 800304a:	68f9      	ldr	r1, [r7, #12]
 800304c:	4618      	mov	r0, r3
 800304e:	f7ff fd49 	bl	8002ae4 <sha256_update>
  sha256_final(&ctx, digest);
 8003052:	f107 0284 	add.w	r2, r7, #132	@ 0x84
 8003056:	f107 0310 	add.w	r3, r7, #16
 800305a:	4611      	mov	r1, r2
 800305c:	4618      	mov	r0, r3
 800305e:	f7ff fd7b 	bl	8002b58 <sha256_final>
  memcpy(aes_key, digest, 16U);
 8003062:	f107 0384 	add.w	r3, r7, #132	@ 0x84
 8003066:	2210      	movs	r2, #16
 8003068:	4619      	mov	r1, r3
 800306a:	6838      	ldr	r0, [r7, #0]
 800306c:	f002 f9c2 	bl	80053f4 <memcpy>

  sha256_init(&ctx);
 8003070:	f107 0310 	add.w	r3, r7, #16
 8003074:	4618      	mov	r0, r3
 8003076:	f7ff fcf9 	bl	8002a6c <sha256_init>
  sha256_update(&ctx, hmac_label, sizeof(hmac_label) - 1U);
 800307a:	f107 0310 	add.w	r3, r7, #16
 800307e:	220b      	movs	r2, #11
 8003080:	4910      	ldr	r1, [pc, #64]	@ (80030c4 <derive_keys+0xd0>)
 8003082:	4618      	mov	r0, r3
 8003084:	f7ff fd2e 	bl	8002ae4 <sha256_update>
  sha256_update(&ctx, link_context_digest, sizeof(link_context_digest));
 8003088:	f107 01a4 	add.w	r1, r7, #164	@ 0xa4
 800308c:	f107 0310 	add.w	r3, r7, #16
 8003090:	2220      	movs	r2, #32
 8003092:	4618      	mov	r0, r3
 8003094:	f7ff fd26 	bl	8002ae4 <sha256_update>
  sha256_update(&ctx, (const uint8_t *)master_secret, secret_len);
 8003098:	f107 0310 	add.w	r3, r7, #16
 800309c:	f8d7 20c4 	ldr.w	r2, [r7, #196]	@ 0xc4
 80030a0:	68f9      	ldr	r1, [r7, #12]
 80030a2:	4618      	mov	r0, r3
 80030a4:	f7ff fd1e 	bl	8002ae4 <sha256_update>
  sha256_final(&ctx, hmac_key);
 80030a8:	f107 0310 	add.w	r3, r7, #16
 80030ac:	f8d7 10d0 	ldr.w	r1, [r7, #208]	@ 0xd0
 80030b0:	4618      	mov	r0, r3
 80030b2:	f7ff fd51 	bl	8002b58 <sha256_final>
}
 80030b6:	bf00      	nop
 80030b8:	37c8      	adds	r7, #200	@ 0xc8
 80030ba:	46bd      	mov	sp, r7
 80030bc:	bd80      	pop	{r7, pc}
 80030be:	bf00      	nop
 80030c0:	08006074 	.word	0x08006074
 80030c4:	08006080 	.word	0x08006080

080030c8 <load_cached_key_material>:

static uint8_t load_cached_key_material(
    const char *master_secret,
    const char *sender_device_id,
    const char *receiver_device_id)
{
 80030c8:	b580      	push	{r7, lr}
 80030ca:	b08c      	sub	sp, #48	@ 0x30
 80030cc:	af02      	add	r7, sp, #8
 80030ce:	60f8      	str	r0, [r7, #12]
 80030d0:	60b9      	str	r1, [r7, #8]
 80030d2:	607a      	str	r2, [r7, #4]
  uint8_t aes_key[16];
  size_t secret_len = strlen(master_secret);
 80030d4:	68f8      	ldr	r0, [r7, #12]
 80030d6:	f7fd f87b 	bl	80001d0 <strlen>
 80030da:	6278      	str	r0, [r7, #36]	@ 0x24

  if ((s_cached_keys_valid != 0U) &&
 80030dc:	4b19      	ldr	r3, [pc, #100]	@ (8003144 <load_cached_key_material+0x7c>)
 80030de:	781b      	ldrb	r3, [r3, #0]
 80030e0:	2b00      	cmp	r3, #0
 80030e2:	d009      	beq.n	80030f8 <load_cached_key_material+0x30>
      (strncmp(s_cached_master_secret, master_secret, sizeof(s_cached_master_secret)) == 0))
 80030e4:	2260      	movs	r2, #96	@ 0x60
 80030e6:	68f9      	ldr	r1, [r7, #12]
 80030e8:	4817      	ldr	r0, [pc, #92]	@ (8003148 <load_cached_key_material+0x80>)
 80030ea:	f002 f92f 	bl	800534c <strncmp>
 80030ee:	4603      	mov	r3, r0
  if ((s_cached_keys_valid != 0U) &&
 80030f0:	2b00      	cmp	r3, #0
 80030f2:	d101      	bne.n	80030f8 <load_cached_key_material+0x30>
  {
    return 1U;
 80030f4:	2301      	movs	r3, #1
 80030f6:	e021      	b.n	800313c <load_cached_key_material+0x74>
  }

  if (secret_len >= sizeof(s_cached_master_secret))
 80030f8:	6a7b      	ldr	r3, [r7, #36]	@ 0x24
 80030fa:	2b5f      	cmp	r3, #95	@ 0x5f
 80030fc:	d901      	bls.n	8003102 <load_cached_key_material+0x3a>
  {
    return 0U;
 80030fe:	2300      	movs	r3, #0
 8003100:	e01c      	b.n	800313c <load_cached_key_material+0x74>
  }

  derive_keys(master_secret, sender_device_id, receiver_device_id, aes_key, s_cached_hmac_key);
 8003102:	f107 0314 	add.w	r3, r7, #20
 8003106:	4a11      	ldr	r2, [pc, #68]	@ (800314c <load_cached_key_material+0x84>)
 8003108:	9200      	str	r2, [sp, #0]
 800310a:	687a      	ldr	r2, [r7, #4]
 800310c:	68b9      	ldr	r1, [r7, #8]
 800310e:	68f8      	ldr	r0, [r7, #12]
 8003110:	f7ff ff70 	bl	8002ff4 <derive_keys>
  aes_key_expansion(&s_cached_aes_ctx, aes_key);
 8003114:	f107 0314 	add.w	r3, r7, #20
 8003118:	4619      	mov	r1, r3
 800311a:	480d      	ldr	r0, [pc, #52]	@ (8003150 <load_cached_key_material+0x88>)
 800311c:	f7ff f826 	bl	800216c <aes_key_expansion>
  memcpy(s_cached_master_secret, master_secret, secret_len + 1U);
 8003120:	6a7b      	ldr	r3, [r7, #36]	@ 0x24
 8003122:	3301      	adds	r3, #1
 8003124:	461a      	mov	r2, r3
 8003126:	68f9      	ldr	r1, [r7, #12]
 8003128:	4807      	ldr	r0, [pc, #28]	@ (8003148 <load_cached_key_material+0x80>)
 800312a:	f002 f963 	bl	80053f4 <memcpy>
  s_cached_keys_valid = 1U;
 800312e:	4b05      	ldr	r3, [pc, #20]	@ (8003144 <load_cached_key_material+0x7c>)
 8003130:	2201      	movs	r2, #1
 8003132:	701a      	strb	r2, [r3, #0]
  s_session_id_valid = 0U;
 8003134:	4b07      	ldr	r3, [pc, #28]	@ (8003154 <load_cached_key_material+0x8c>)
 8003136:	2200      	movs	r2, #0
 8003138:	701a      	strb	r2, [r3, #0]
  return 1U;
 800313a:	2301      	movs	r3, #1
}
 800313c:	4618      	mov	r0, r3
 800313e:	3728      	adds	r7, #40	@ 0x28
 8003140:	46bd      	mov	sp, r7
 8003142:	bd80      	pop	{r7, pc}
 8003144:	200002d0 	.word	0x200002d0
 8003148:	200002d4 	.word	0x200002d4
 800314c:	200003e4 	.word	0x200003e4
 8003150:	20000334 	.word	0x20000334
 8003154:	200002d1 	.word	0x200002d1

08003158 <ensure_session_id>:
static void ensure_session_id(
    const char *master_secret,
    const uint8_t *plaintext,
    size_t plaintext_len,
    uint8_t session_id[SECURE_TELEMETRY_SESSION_ID_SIZE])
{
 8003158:	b580      	push	{r7, lr}
 800315a:	b0aa      	sub	sp, #168	@ 0xa8
 800315c:	af00      	add	r7, sp, #0
 800315e:	60f8      	str	r0, [r7, #12]
 8003160:	60b9      	str	r1, [r7, #8]
 8003162:	607a      	str	r2, [r7, #4]
 8003164:	603b      	str	r3, [r7, #0]
  static const uint8_t session_label[] = "SECURE-SESSION";
  const uint8_t *uid = (const uint8_t *)UID_BASE;
 8003166:	4b40      	ldr	r3, [pc, #256]	@ (8003268 <ensure_session_id+0x110>)
 8003168:	f8c7 30a4 	str.w	r3, [r7, #164]	@ 0xa4
  uint8_t digest[32];
  uint8_t scratch[4];
  sha256_ctx_t ctx;

  if (s_session_id_valid != 0U)
 800316c:	4b3f      	ldr	r3, [pc, #252]	@ (800326c <ensure_session_id+0x114>)
 800316e:	781b      	ldrb	r3, [r3, #0]
 8003170:	2b00      	cmp	r3, #0
 8003172:	d007      	beq.n	8003184 <ensure_session_id+0x2c>
  {
    memcpy(session_id, s_session_id, SECURE_TELEMETRY_SESSION_ID_SIZE);
 8003174:	683b      	ldr	r3, [r7, #0]
 8003176:	493e      	ldr	r1, [pc, #248]	@ (8003270 <ensure_session_id+0x118>)
 8003178:	461a      	mov	r2, r3
 800317a:	460b      	mov	r3, r1
 800317c:	cb03      	ldmia	r3!, {r0, r1}
 800317e:	6010      	str	r0, [r2, #0]
 8003180:	6051      	str	r1, [r2, #4]
 8003182:	e06d      	b.n	8003260 <ensure_session_id+0x108>
    return;
  }

  sha256_init(&ctx);
 8003184:	f107 0310 	add.w	r3, r7, #16
 8003188:	4618      	mov	r0, r3
 800318a:	f7ff fc6f 	bl	8002a6c <sha256_init>
  sha256_update(&ctx, session_label, sizeof(session_label) - 1U);
 800318e:	f107 0310 	add.w	r3, r7, #16
 8003192:	220e      	movs	r2, #14
 8003194:	4937      	ldr	r1, [pc, #220]	@ (8003274 <ensure_session_id+0x11c>)
 8003196:	4618      	mov	r0, r3
 8003198:	f7ff fca4 	bl	8002ae4 <sha256_update>
  sha256_update(&ctx, (const uint8_t *)master_secret, strlen(master_secret));
 800319c:	68f8      	ldr	r0, [r7, #12]
 800319e:	f7fd f817 	bl	80001d0 <strlen>
 80031a2:	4602      	mov	r2, r0
 80031a4:	f107 0310 	add.w	r3, r7, #16
 80031a8:	68f9      	ldr	r1, [r7, #12]
 80031aa:	4618      	mov	r0, r3
 80031ac:	f7ff fc9a 	bl	8002ae4 <sha256_update>
  sha256_update(&ctx, (const uint8_t *)SECURE_LINK_SENDER_DEVICE_ID, strlen(SECURE_LINK_SENDER_DEVICE_ID));
 80031b0:	f107 0310 	add.w	r3, r7, #16
 80031b4:	220a      	movs	r2, #10
 80031b6:	4930      	ldr	r1, [pc, #192]	@ (8003278 <ensure_session_id+0x120>)
 80031b8:	4618      	mov	r0, r3
 80031ba:	f7ff fc93 	bl	8002ae4 <sha256_update>
  sha256_update(&ctx, (const uint8_t *)SECURE_LINK_RECEIVER_DEVICE_ID, strlen(SECURE_LINK_RECEIVER_DEVICE_ID));
 80031be:	f107 0310 	add.w	r3, r7, #16
 80031c2:	220a      	movs	r2, #10
 80031c4:	492d      	ldr	r1, [pc, #180]	@ (800327c <ensure_session_id+0x124>)
 80031c6:	4618      	mov	r0, r3
 80031c8:	f7ff fc8c 	bl	8002ae4 <sha256_update>
  sha256_update(&ctx, uid, 12U);
 80031cc:	f107 0310 	add.w	r3, r7, #16
 80031d0:	220c      	movs	r2, #12
 80031d2:	f8d7 10a4 	ldr.w	r1, [r7, #164]	@ 0xa4
 80031d6:	4618      	mov	r0, r3
 80031d8:	f7ff fc84 	bl	8002ae4 <sha256_update>

  store_be32(HAL_GetTick(), scratch);
 80031dc:	f000 fbfc 	bl	80039d8 <HAL_GetTick>
 80031e0:	4602      	mov	r2, r0
 80031e2:	f107 0380 	add.w	r3, r7, #128	@ 0x80
 80031e6:	4619      	mov	r1, r3
 80031e8:	4610      	mov	r0, r2
 80031ea:	f7fe ff7b 	bl	80020e4 <store_be32>
  sha256_update(&ctx, scratch, sizeof(scratch));
 80031ee:	f107 0180 	add.w	r1, r7, #128	@ 0x80
 80031f2:	f107 0310 	add.w	r3, r7, #16
 80031f6:	2204      	movs	r2, #4
 80031f8:	4618      	mov	r0, r3
 80031fa:	f7ff fc73 	bl	8002ae4 <sha256_update>

  store_be32(DWT->CYCCNT, scratch);
 80031fe:	4b20      	ldr	r3, [pc, #128]	@ (8003280 <ensure_session_id+0x128>)
 8003200:	685b      	ldr	r3, [r3, #4]
 8003202:	f107 0280 	add.w	r2, r7, #128	@ 0x80
 8003206:	4611      	mov	r1, r2
 8003208:	4618      	mov	r0, r3
 800320a:	f7fe ff6b 	bl	80020e4 <store_be32>
  sha256_update(&ctx, scratch, sizeof(scratch));
 800320e:	f107 0180 	add.w	r1, r7, #128	@ 0x80
 8003212:	f107 0310 	add.w	r3, r7, #16
 8003216:	2204      	movs	r2, #4
 8003218:	4618      	mov	r0, r3
 800321a:	f7ff fc63 	bl	8002ae4 <sha256_update>

  sha256_update(&ctx, plaintext, plaintext_len);
 800321e:	f107 0310 	add.w	r3, r7, #16
 8003222:	687a      	ldr	r2, [r7, #4]
 8003224:	68b9      	ldr	r1, [r7, #8]
 8003226:	4618      	mov	r0, r3
 8003228:	f7ff fc5c 	bl	8002ae4 <sha256_update>
  sha256_final(&ctx, digest);
 800322c:	f107 0284 	add.w	r2, r7, #132	@ 0x84
 8003230:	f107 0310 	add.w	r3, r7, #16
 8003234:	4611      	mov	r1, r2
 8003236:	4618      	mov	r0, r3
 8003238:	f7ff fc8e 	bl	8002b58 <sha256_final>

  memcpy(s_session_id, digest, SECURE_TELEMETRY_SESSION_ID_SIZE);
 800323c:	4b0c      	ldr	r3, [pc, #48]	@ (8003270 <ensure_session_id+0x118>)
 800323e:	461a      	mov	r2, r3
 8003240:	f107 0384 	add.w	r3, r7, #132	@ 0x84
 8003244:	e893 0003 	ldmia.w	r3, {r0, r1}
 8003248:	e882 0003 	stmia.w	r2, {r0, r1}
  memcpy(session_id, s_session_id, SECURE_TELEMETRY_SESSION_ID_SIZE);
 800324c:	683b      	ldr	r3, [r7, #0]
 800324e:	4908      	ldr	r1, [pc, #32]	@ (8003270 <ensure_session_id+0x118>)
 8003250:	461a      	mov	r2, r3
 8003252:	460b      	mov	r3, r1
 8003254:	cb03      	ldmia	r3!, {r0, r1}
 8003256:	6010      	str	r0, [r2, #0]
 8003258:	6051      	str	r1, [r2, #4]
  s_session_id_valid = 1U;
 800325a:	4b04      	ldr	r3, [pc, #16]	@ (800326c <ensure_session_id+0x114>)
 800325c:	2201      	movs	r2, #1
 800325e:	701a      	strb	r2, [r3, #0]
}
 8003260:	37a8      	adds	r7, #168	@ 0xa8
 8003262:	46bd      	mov	sp, r7
 8003264:	bd80      	pop	{r7, pc}
 8003266:	bf00      	nop
 8003268:	1fff7a10 	.word	0x1fff7a10
 800326c:	200002d1 	.word	0x200002d1
 8003270:	20000404 	.word	0x20000404
 8003274:	0800608c 	.word	0x0800608c
 8003278:	08005dfc 	.word	0x08005dfc
 800327c:	08005e08 	.word	0x08005e08
 8003280:	e0001000 	.word	0xe0001000

08003284 <build_iv>:
static void build_iv(
    const char *master_secret,
    const uint8_t session_id[SECURE_TELEMETRY_SESSION_ID_SIZE],
    uint32_t frame_counter,
    uint8_t iv[16])
{
 8003284:	b580      	push	{r7, lr}
 8003286:	b0aa      	sub	sp, #168	@ 0xa8
 8003288:	af00      	add	r7, sp, #0
 800328a:	60f8      	str	r0, [r7, #12]
 800328c:	60b9      	str	r1, [r7, #8]
 800328e:	607a      	str	r2, [r7, #4]
 8003290:	603b      	str	r3, [r7, #0]
  static const uint8_t iv_label[] = "SECURE-IV";
  const uint8_t *uid = (const uint8_t *)UID_BASE;
 8003292:	4b2b      	ldr	r3, [pc, #172]	@ (8003340 <build_iv+0xbc>)
 8003294:	f8c7 30a4 	str.w	r3, [r7, #164]	@ 0xa4
  uint8_t digest[32];
  uint8_t scratch[4];
  sha256_ctx_t ctx;

  sha256_init(&ctx);
 8003298:	f107 0310 	add.w	r3, r7, #16
 800329c:	4618      	mov	r0, r3
 800329e:	f7ff fbe5 	bl	8002a6c <sha256_init>
  sha256_update(&ctx, iv_label, sizeof(iv_label) - 1U);
 80032a2:	f107 0310 	add.w	r3, r7, #16
 80032a6:	2209      	movs	r2, #9
 80032a8:	4926      	ldr	r1, [pc, #152]	@ (8003344 <build_iv+0xc0>)
 80032aa:	4618      	mov	r0, r3
 80032ac:	f7ff fc1a 	bl	8002ae4 <sha256_update>
  sha256_update(&ctx, (const uint8_t *)master_secret, strlen(master_secret));
 80032b0:	68f8      	ldr	r0, [r7, #12]
 80032b2:	f7fc ff8d 	bl	80001d0 <strlen>
 80032b6:	4602      	mov	r2, r0
 80032b8:	f107 0310 	add.w	r3, r7, #16
 80032bc:	68f9      	ldr	r1, [r7, #12]
 80032be:	4618      	mov	r0, r3
 80032c0:	f7ff fc10 	bl	8002ae4 <sha256_update>
  sha256_update(&ctx, (const uint8_t *)SECURE_LINK_SENDER_DEVICE_ID, strlen(SECURE_LINK_SENDER_DEVICE_ID));
 80032c4:	f107 0310 	add.w	r3, r7, #16
 80032c8:	220a      	movs	r2, #10
 80032ca:	491f      	ldr	r1, [pc, #124]	@ (8003348 <build_iv+0xc4>)
 80032cc:	4618      	mov	r0, r3
 80032ce:	f7ff fc09 	bl	8002ae4 <sha256_update>
  sha256_update(&ctx, (const uint8_t *)SECURE_LINK_RECEIVER_DEVICE_ID, strlen(SECURE_LINK_RECEIVER_DEVICE_ID));
 80032d2:	f107 0310 	add.w	r3, r7, #16
 80032d6:	220a      	movs	r2, #10
 80032d8:	491c      	ldr	r1, [pc, #112]	@ (800334c <build_iv+0xc8>)
 80032da:	4618      	mov	r0, r3
 80032dc:	f7ff fc02 	bl	8002ae4 <sha256_update>
  sha256_update(&ctx, session_id, SECURE_TELEMETRY_SESSION_ID_SIZE);
 80032e0:	f107 0310 	add.w	r3, r7, #16
 80032e4:	2208      	movs	r2, #8
 80032e6:	68b9      	ldr	r1, [r7, #8]
 80032e8:	4618      	mov	r0, r3
 80032ea:	f7ff fbfb 	bl	8002ae4 <sha256_update>
  sha256_update(&ctx, uid, 12U);
 80032ee:	f107 0310 	add.w	r3, r7, #16
 80032f2:	220c      	movs	r2, #12
 80032f4:	f8d7 10a4 	ldr.w	r1, [r7, #164]	@ 0xa4
 80032f8:	4618      	mov	r0, r3
 80032fa:	f7ff fbf3 	bl	8002ae4 <sha256_update>
  store_be32(frame_counter, scratch);
 80032fe:	f107 0380 	add.w	r3, r7, #128	@ 0x80
 8003302:	4619      	mov	r1, r3
 8003304:	6878      	ldr	r0, [r7, #4]
 8003306:	f7fe feed 	bl	80020e4 <store_be32>
  sha256_update(&ctx, scratch, sizeof(scratch));
 800330a:	f107 0180 	add.w	r1, r7, #128	@ 0x80
 800330e:	f107 0310 	add.w	r3, r7, #16
 8003312:	2204      	movs	r2, #4
 8003314:	4618      	mov	r0, r3
 8003316:	f7ff fbe5 	bl	8002ae4 <sha256_update>
  sha256_final(&ctx, digest);
 800331a:	f107 0284 	add.w	r2, r7, #132	@ 0x84
 800331e:	f107 0310 	add.w	r3, r7, #16
 8003322:	4611      	mov	r1, r2
 8003324:	4618      	mov	r0, r3
 8003326:	f7ff fc17 	bl	8002b58 <sha256_final>

  memcpy(iv, digest, 16U);
 800332a:	f107 0384 	add.w	r3, r7, #132	@ 0x84
 800332e:	2210      	movs	r2, #16
 8003330:	4619      	mov	r1, r3
 8003332:	6838      	ldr	r0, [r7, #0]
 8003334:	f002 f85e 	bl	80053f4 <memcpy>
}
 8003338:	bf00      	nop
 800333a:	37a8      	adds	r7, #168	@ 0xa8
 800333c:	46bd      	mov	sp, r7
 800333e:	bd80      	pop	{r7, pc}
 8003340:	1fff7a10 	.word	0x1fff7a10
 8003344:	0800609c 	.word	0x0800609c
 8003348:	08005dfc 	.word	0x08005dfc
 800334c:	08005e08 	.word	0x08005e08

08003350 <SecureTelemetry_Encode>:
    const uint8_t *plaintext,
    size_t plaintext_len,
    const char *master_secret,
    char *ascii_packet,
    size_t ascii_packet_len)
{
 8003350:	b590      	push	{r4, r7, lr}
 8003352:	b0d5      	sub	sp, #340	@ 0x154
 8003354:	af04      	add	r7, sp, #16
 8003356:	f507 74a0 	add.w	r4, r7, #320	@ 0x140
 800335a:	f5a4 749a 	sub.w	r4, r4, #308	@ 0x134
 800335e:	6020      	str	r0, [r4, #0]
 8003360:	f507 70a0 	add.w	r0, r7, #320	@ 0x140
 8003364:	f5a0 709c 	sub.w	r0, r0, #312	@ 0x138
 8003368:	6001      	str	r1, [r0, #0]
 800336a:	f507 71a0 	add.w	r1, r7, #320	@ 0x140
 800336e:	f5a1 719e 	sub.w	r1, r1, #316	@ 0x13c
 8003372:	600a      	str	r2, [r1, #0]
 8003374:	f507 72a0 	add.w	r2, r7, #320	@ 0x140
 8003378:	f5a2 72a0 	sub.w	r2, r2, #320	@ 0x140
 800337c:	6013      	str	r3, [r2, #0]
      SECURE_TELEMETRY_SESSION_ID_SIZE +
      SECURE_TELEMETRY_FRAME_COUNTER_SIZE +
      SECURE_TELEMETRY_IV_SIZE +
      SECURE_TELEMETRY_MAX_PLAINTEXT_LEN];
  uint8_t tag[SHA256_DIGEST_SIZE];
  uint32_t frame_counter = 0U;
 800337e:	2300      	movs	r3, #0
 8003380:	f8c7 313c 	str.w	r3, [r7, #316]	@ 0x13c
  size_t required_len = 0U;
 8003384:	2300      	movs	r3, #0
 8003386:	f8c7 3138 	str.w	r3, [r7, #312]	@ 0x138
  char *cursor = ascii_packet;
 800338a:	f507 73a0 	add.w	r3, r7, #320	@ 0x140
 800338e:	f5a3 73a0 	sub.w	r3, r3, #320	@ 0x140
 8003392:	681b      	ldr	r3, [r3, #0]
 8003394:	f8c7 3134 	str.w	r3, [r7, #308]	@ 0x134

  if ((plaintext == NULL) || (master_secret == NULL) || (ascii_packet == NULL))
 8003398:	f507 73a0 	add.w	r3, r7, #320	@ 0x140
 800339c:	f5a3 739a 	sub.w	r3, r3, #308	@ 0x134
 80033a0:	681b      	ldr	r3, [r3, #0]
 80033a2:	2b00      	cmp	r3, #0
 80033a4:	d00d      	beq.n	80033c2 <SecureTelemetry_Encode+0x72>
 80033a6:	f507 73a0 	add.w	r3, r7, #320	@ 0x140
 80033aa:	f5a3 739e 	sub.w	r3, r3, #316	@ 0x13c
 80033ae:	681b      	ldr	r3, [r3, #0]
 80033b0:	2b00      	cmp	r3, #0
 80033b2:	d006      	beq.n	80033c2 <SecureTelemetry_Encode+0x72>
 80033b4:	f507 73a0 	add.w	r3, r7, #320	@ 0x140
 80033b8:	f5a3 73a0 	sub.w	r3, r3, #320	@ 0x140
 80033bc:	681b      	ldr	r3, [r3, #0]
 80033be:	2b00      	cmp	r3, #0
 80033c0:	d101      	bne.n	80033c6 <SecureTelemetry_Encode+0x76>
  {
    return 0U;
 80033c2:	2300      	movs	r3, #0
 80033c4:	e177      	b.n	80036b6 <SecureTelemetry_Encode+0x366>
  }

  if ((plaintext_len == 0U) || (plaintext_len > SECURE_TELEMETRY_MAX_PLAINTEXT_LEN))
 80033c6:	f507 73a0 	add.w	r3, r7, #320	@ 0x140
 80033ca:	f5a3 739c 	sub.w	r3, r3, #312	@ 0x138
 80033ce:	681b      	ldr	r3, [r3, #0]
 80033d0:	2b00      	cmp	r3, #0
 80033d2:	d006      	beq.n	80033e2 <SecureTelemetry_Encode+0x92>
 80033d4:	f507 73a0 	add.w	r3, r7, #320	@ 0x140
 80033d8:	f5a3 739c 	sub.w	r3, r3, #312	@ 0x138
 80033dc:	681b      	ldr	r3, [r3, #0]
 80033de:	2b64      	cmp	r3, #100	@ 0x64
 80033e0:	d901      	bls.n	80033e6 <SecureTelemetry_Encode+0x96>
  {
    return 0U;
 80033e2:	2300      	movs	r3, #0
 80033e4:	e167      	b.n	80036b6 <SecureTelemetry_Encode+0x366>
  }

  required_len = 104U + (plaintext_len * 2U);
 80033e6:	f507 73a0 	add.w	r3, r7, #320	@ 0x140
 80033ea:	f5a3 739c 	sub.w	r3, r3, #312	@ 0x138
 80033ee:	681b      	ldr	r3, [r3, #0]
 80033f0:	3334      	adds	r3, #52	@ 0x34
 80033f2:	005b      	lsls	r3, r3, #1
 80033f4:	f8c7 3138 	str.w	r3, [r7, #312]	@ 0x138
  if (ascii_packet_len < required_len)
 80033f8:	f8d7 2150 	ldr.w	r2, [r7, #336]	@ 0x150
 80033fc:	f8d7 3138 	ldr.w	r3, [r7, #312]	@ 0x138
 8003400:	429a      	cmp	r2, r3
 8003402:	d201      	bcs.n	8003408 <SecureTelemetry_Encode+0xb8>
  {
    return 0U;
 8003404:	2300      	movs	r3, #0
 8003406:	e156      	b.n	80036b6 <SecureTelemetry_Encode+0x366>
  }

  if (load_cached_key_material(
 8003408:	f507 73a0 	add.w	r3, r7, #320	@ 0x140
 800340c:	f5a3 739e 	sub.w	r3, r3, #316	@ 0x13c
 8003410:	4aab      	ldr	r2, [pc, #684]	@ (80036c0 <SecureTelemetry_Encode+0x370>)
 8003412:	49ac      	ldr	r1, [pc, #688]	@ (80036c4 <SecureTelemetry_Encode+0x374>)
 8003414:	6818      	ldr	r0, [r3, #0]
 8003416:	f7ff fe57 	bl	80030c8 <load_cached_key_material>
 800341a:	4603      	mov	r3, r0
 800341c:	2b00      	cmp	r3, #0
 800341e:	d101      	bne.n	8003424 <SecureTelemetry_Encode+0xd4>
          master_secret,
          SECURE_LINK_SENDER_DEVICE_ID,
          SECURE_LINK_RECEIVER_DEVICE_ID) == 0U)
  {
    return 0U;
 8003420:	2300      	movs	r3, #0
 8003422:	e148      	b.n	80036b6 <SecureTelemetry_Encode+0x366>
  }

  ensure_session_id(master_secret, plaintext, plaintext_len, session_id);
 8003424:	f507 7396 	add.w	r3, r7, #300	@ 0x12c
 8003428:	f507 72a0 	add.w	r2, r7, #320	@ 0x140
 800342c:	f5a2 729c 	sub.w	r2, r2, #312	@ 0x138
 8003430:	f507 71a0 	add.w	r1, r7, #320	@ 0x140
 8003434:	f5a1 719a 	sub.w	r1, r1, #308	@ 0x134
 8003438:	f507 70a0 	add.w	r0, r7, #320	@ 0x140
 800343c:	f5a0 709e 	sub.w	r0, r0, #316	@ 0x13c
 8003440:	6812      	ldr	r2, [r2, #0]
 8003442:	6809      	ldr	r1, [r1, #0]
 8003444:	6800      	ldr	r0, [r0, #0]
 8003446:	f7ff fe87 	bl	8003158 <ensure_session_id>

  s_secure_frame_counter++;
 800344a:	4b9f      	ldr	r3, [pc, #636]	@ (80036c8 <SecureTelemetry_Encode+0x378>)
 800344c:	681b      	ldr	r3, [r3, #0]
 800344e:	3301      	adds	r3, #1
 8003450:	4a9d      	ldr	r2, [pc, #628]	@ (80036c8 <SecureTelemetry_Encode+0x378>)
 8003452:	6013      	str	r3, [r2, #0]
  frame_counter = s_secure_frame_counter;
 8003454:	4b9c      	ldr	r3, [pc, #624]	@ (80036c8 <SecureTelemetry_Encode+0x378>)
 8003456:	681b      	ldr	r3, [r3, #0]
 8003458:	f8c7 313c 	str.w	r3, [r7, #316]	@ 0x13c
  store_be32(frame_counter, frame_counter_bytes);
 800345c:	f507 7394 	add.w	r3, r7, #296	@ 0x128
 8003460:	4619      	mov	r1, r3
 8003462:	f8d7 013c 	ldr.w	r0, [r7, #316]	@ 0x13c
 8003466:	f7fe fe3d 	bl	80020e4 <store_be32>

  build_iv(master_secret, session_id, frame_counter, iv);
 800346a:	f507 738c 	add.w	r3, r7, #280	@ 0x118
 800346e:	f507 7196 	add.w	r1, r7, #300	@ 0x12c
 8003472:	f507 72a0 	add.w	r2, r7, #320	@ 0x140
 8003476:	f5a2 709e 	sub.w	r0, r2, #316	@ 0x13c
 800347a:	f8d7 213c 	ldr.w	r2, [r7, #316]	@ 0x13c
 800347e:	6800      	ldr	r0, [r0, #0]
 8003480:	f7ff ff00 	bl	8003284 <build_iv>
  aes_ctr_crypt(&s_cached_aes_ctx, iv, plaintext, ciphertext, plaintext_len);
 8003484:	f107 00b4 	add.w	r0, r7, #180	@ 0xb4
 8003488:	f507 73a0 	add.w	r3, r7, #320	@ 0x140
 800348c:	f5a3 729a 	sub.w	r2, r3, #308	@ 0x134
 8003490:	f507 718c 	add.w	r1, r7, #280	@ 0x118
 8003494:	f507 73a0 	add.w	r3, r7, #320	@ 0x140
 8003498:	f5a3 739c 	sub.w	r3, r3, #312	@ 0x138
 800349c:	681b      	ldr	r3, [r3, #0]
 800349e:	9300      	str	r3, [sp, #0]
 80034a0:	4603      	mov	r3, r0
 80034a2:	6812      	ldr	r2, [r2, #0]
 80034a4:	4889      	ldr	r0, [pc, #548]	@ (80036cc <SecureTelemetry_Encode+0x37c>)
 80034a6:	f7ff f860 	bl	800256a <aes_ctr_crypt>

  memcpy(auth_buffer, session_id, sizeof(session_id));
 80034aa:	f507 73a0 	add.w	r3, r7, #320	@ 0x140
 80034ae:	f5a3 7386 	sub.w	r3, r3, #268	@ 0x10c
 80034b2:	461a      	mov	r2, r3
 80034b4:	f507 7396 	add.w	r3, r7, #300	@ 0x12c
 80034b8:	e893 0003 	ldmia.w	r3, {r0, r1}
 80034bc:	e882 0003 	stmia.w	r2, {r0, r1}
  memcpy(&auth_buffer[sizeof(session_id)], frame_counter_bytes, sizeof(frame_counter_bytes));
 80034c0:	f8d7 2128 	ldr.w	r2, [r7, #296]	@ 0x128
 80034c4:	f507 73a0 	add.w	r3, r7, #320	@ 0x140
 80034c8:	f5a3 7386 	sub.w	r3, r3, #268	@ 0x10c
 80034cc:	609a      	str	r2, [r3, #8]
  memcpy(&auth_buffer[sizeof(session_id) + sizeof(frame_counter_bytes)], iv, sizeof(iv));
 80034ce:	f507 73a0 	add.w	r3, r7, #320	@ 0x140
 80034d2:	f5a3 7386 	sub.w	r3, r3, #268	@ 0x10c
 80034d6:	f103 040c 	add.w	r4, r3, #12
 80034da:	f507 738c 	add.w	r3, r7, #280	@ 0x118
 80034de:	cb0f      	ldmia	r3, {r0, r1, r2, r3}
 80034e0:	e884 000f 	stmia.w	r4, {r0, r1, r2, r3}
  memcpy(&auth_buffer[sizeof(session_id) + sizeof(frame_counter_bytes) + sizeof(iv)], ciphertext, plaintext_len);
 80034e4:	f507 73a0 	add.w	r3, r7, #320	@ 0x140
 80034e8:	f5a3 739c 	sub.w	r3, r3, #312	@ 0x138
 80034ec:	f107 01b4 	add.w	r1, r7, #180	@ 0xb4
 80034f0:	f107 0234 	add.w	r2, r7, #52	@ 0x34
 80034f4:	f102 001c 	add.w	r0, r2, #28
 80034f8:	681a      	ldr	r2, [r3, #0]
 80034fa:	f001 ff7b 	bl	80053f4 <memcpy>
  hmac_sha256(
 80034fe:	f507 73a0 	add.w	r3, r7, #320	@ 0x140
 8003502:	f5a3 739c 	sub.w	r3, r3, #312	@ 0x138
 8003506:	681b      	ldr	r3, [r3, #0]
 8003508:	3310      	adds	r3, #16
 800350a:	f107 0134 	add.w	r1, r7, #52	@ 0x34
 800350e:	f107 0214 	add.w	r2, r7, #20
 8003512:	9202      	str	r2, [sp, #8]
 8003514:	9301      	str	r3, [sp, #4]
 8003516:	f107 0334 	add.w	r3, r7, #52	@ 0x34
 800351a:	330c      	adds	r3, #12
 800351c:	9300      	str	r3, [sp, #0]
 800351e:	230c      	movs	r3, #12
 8003520:	460a      	mov	r2, r1
 8003522:	2120      	movs	r1, #32
 8003524:	486a      	ldr	r0, [pc, #424]	@ (80036d0 <SecureTelemetry_Encode+0x380>)
 8003526:	f7ff fc6a 	bl	8002dfe <hmac_sha256>
      sizeof(session_id) + sizeof(frame_counter_bytes),
      &auth_buffer[sizeof(session_id) + sizeof(frame_counter_bytes)],
      sizeof(iv) + plaintext_len,
      tag);

  memcpy(cursor, "ST2:", 4U);
 800352a:	2204      	movs	r2, #4
 800352c:	4969      	ldr	r1, [pc, #420]	@ (80036d4 <SecureTelemetry_Encode+0x384>)
 800352e:	f8d7 0134 	ldr.w	r0, [r7, #308]	@ 0x134
 8003532:	f001 ff5f 	bl	80053f4 <memcpy>
  cursor += 4U;
 8003536:	f8d7 3134 	ldr.w	r3, [r7, #308]	@ 0x134
 800353a:	3304      	adds	r3, #4
 800353c:	f8c7 3134 	str.w	r3, [r7, #308]	@ 0x134

  cursor[0] = "0123456789ABCDEF"[(plaintext_len >> 12) & 0x0FU];
 8003540:	f507 73a0 	add.w	r3, r7, #320	@ 0x140
 8003544:	f5a3 739c 	sub.w	r3, r3, #312	@ 0x138
 8003548:	681b      	ldr	r3, [r3, #0]
 800354a:	0b1b      	lsrs	r3, r3, #12
 800354c:	f003 030f 	and.w	r3, r3, #15
 8003550:	4a61      	ldr	r2, [pc, #388]	@ (80036d8 <SecureTelemetry_Encode+0x388>)
 8003552:	5cd2      	ldrb	r2, [r2, r3]
 8003554:	f8d7 3134 	ldr.w	r3, [r7, #308]	@ 0x134
 8003558:	701a      	strb	r2, [r3, #0]
  cursor[1] = "0123456789ABCDEF"[(plaintext_len >> 8) & 0x0FU];
 800355a:	f507 73a0 	add.w	r3, r7, #320	@ 0x140
 800355e:	f5a3 739c 	sub.w	r3, r3, #312	@ 0x138
 8003562:	681b      	ldr	r3, [r3, #0]
 8003564:	0a1b      	lsrs	r3, r3, #8
 8003566:	f003 020f 	and.w	r2, r3, #15
 800356a:	f8d7 3134 	ldr.w	r3, [r7, #308]	@ 0x134
 800356e:	3301      	adds	r3, #1
 8003570:	4959      	ldr	r1, [pc, #356]	@ (80036d8 <SecureTelemetry_Encode+0x388>)
 8003572:	5c8a      	ldrb	r2, [r1, r2]
 8003574:	701a      	strb	r2, [r3, #0]
  cursor[2] = "0123456789ABCDEF"[(plaintext_len >> 4) & 0x0FU];
 8003576:	f507 73a0 	add.w	r3, r7, #320	@ 0x140
 800357a:	f5a3 739c 	sub.w	r3, r3, #312	@ 0x138
 800357e:	681b      	ldr	r3, [r3, #0]
 8003580:	091b      	lsrs	r3, r3, #4
 8003582:	f003 020f 	and.w	r2, r3, #15
 8003586:	f8d7 3134 	ldr.w	r3, [r7, #308]	@ 0x134
 800358a:	3302      	adds	r3, #2
 800358c:	4952      	ldr	r1, [pc, #328]	@ (80036d8 <SecureTelemetry_Encode+0x388>)
 800358e:	5c8a      	ldrb	r2, [r1, r2]
 8003590:	701a      	strb	r2, [r3, #0]
  cursor[3] = "0123456789ABCDEF"[plaintext_len & 0x0FU];
 8003592:	f507 73a0 	add.w	r3, r7, #320	@ 0x140
 8003596:	f5a3 739c 	sub.w	r3, r3, #312	@ 0x138
 800359a:	681b      	ldr	r3, [r3, #0]
 800359c:	f003 020f 	and.w	r2, r3, #15
 80035a0:	f8d7 3134 	ldr.w	r3, [r7, #308]	@ 0x134
 80035a4:	3303      	adds	r3, #3
 80035a6:	494c      	ldr	r1, [pc, #304]	@ (80036d8 <SecureTelemetry_Encode+0x388>)
 80035a8:	5c8a      	ldrb	r2, [r1, r2]
 80035aa:	701a      	strb	r2, [r3, #0]
  cursor += 4U;
 80035ac:	f8d7 3134 	ldr.w	r3, [r7, #308]	@ 0x134
 80035b0:	3304      	adds	r3, #4
 80035b2:	f8c7 3134 	str.w	r3, [r7, #308]	@ 0x134

  *cursor++ = ':';
 80035b6:	f8d7 3134 	ldr.w	r3, [r7, #308]	@ 0x134
 80035ba:	1c5a      	adds	r2, r3, #1
 80035bc:	f8c7 2134 	str.w	r2, [r7, #308]	@ 0x134
 80035c0:	223a      	movs	r2, #58	@ 0x3a
 80035c2:	701a      	strb	r2, [r3, #0]
  bytes_to_hex(session_id, sizeof(session_id), cursor);
 80035c4:	f507 7396 	add.w	r3, r7, #300	@ 0x12c
 80035c8:	f8d7 2134 	ldr.w	r2, [r7, #308]	@ 0x134
 80035cc:	2108      	movs	r1, #8
 80035ce:	4618      	mov	r0, r3
 80035d0:	f7fe fd52 	bl	8002078 <bytes_to_hex>
  cursor += (sizeof(session_id) * 2U);
 80035d4:	f8d7 3134 	ldr.w	r3, [r7, #308]	@ 0x134
 80035d8:	3310      	adds	r3, #16
 80035da:	f8c7 3134 	str.w	r3, [r7, #308]	@ 0x134

  *cursor++ = ':';
 80035de:	f8d7 3134 	ldr.w	r3, [r7, #308]	@ 0x134
 80035e2:	1c5a      	adds	r2, r3, #1
 80035e4:	f8c7 2134 	str.w	r2, [r7, #308]	@ 0x134
 80035e8:	223a      	movs	r2, #58	@ 0x3a
 80035ea:	701a      	strb	r2, [r3, #0]
  bytes_to_hex(frame_counter_bytes, sizeof(frame_counter_bytes), cursor);
 80035ec:	f507 7394 	add.w	r3, r7, #296	@ 0x128
 80035f0:	f8d7 2134 	ldr.w	r2, [r7, #308]	@ 0x134
 80035f4:	2104      	movs	r1, #4
 80035f6:	4618      	mov	r0, r3
 80035f8:	f7fe fd3e 	bl	8002078 <bytes_to_hex>
  cursor += (sizeof(frame_counter_bytes) * 2U);
 80035fc:	f8d7 3134 	ldr.w	r3, [r7, #308]	@ 0x134
 8003600:	3308      	adds	r3, #8
 8003602:	f8c7 3134 	str.w	r3, [r7, #308]	@ 0x134

  *cursor++ = ':';
 8003606:	f8d7 3134 	ldr.w	r3, [r7, #308]	@ 0x134
 800360a:	1c5a      	adds	r2, r3, #1
 800360c:	f8c7 2134 	str.w	r2, [r7, #308]	@ 0x134
 8003610:	223a      	movs	r2, #58	@ 0x3a
 8003612:	701a      	strb	r2, [r3, #0]
  bytes_to_hex(iv, sizeof(iv), cursor);
 8003614:	f507 738c 	add.w	r3, r7, #280	@ 0x118
 8003618:	f8d7 2134 	ldr.w	r2, [r7, #308]	@ 0x134
 800361c:	2110      	movs	r1, #16
 800361e:	4618      	mov	r0, r3
 8003620:	f7fe fd2a 	bl	8002078 <bytes_to_hex>
  cursor += (sizeof(iv) * 2U);
 8003624:	f8d7 3134 	ldr.w	r3, [r7, #308]	@ 0x134
 8003628:	3320      	adds	r3, #32
 800362a:	f8c7 3134 	str.w	r3, [r7, #308]	@ 0x134

  *cursor++ = ':';
 800362e:	f8d7 3134 	ldr.w	r3, [r7, #308]	@ 0x134
 8003632:	1c5a      	adds	r2, r3, #1
 8003634:	f8c7 2134 	str.w	r2, [r7, #308]	@ 0x134
 8003638:	223a      	movs	r2, #58	@ 0x3a
 800363a:	701a      	strb	r2, [r3, #0]
  bytes_to_hex(ciphertext, plaintext_len, cursor);
 800363c:	f507 73a0 	add.w	r3, r7, #320	@ 0x140
 8003640:	f5a3 739c 	sub.w	r3, r3, #312	@ 0x138
 8003644:	f107 00b4 	add.w	r0, r7, #180	@ 0xb4
 8003648:	f8d7 2134 	ldr.w	r2, [r7, #308]	@ 0x134
 800364c:	6819      	ldr	r1, [r3, #0]
 800364e:	f7fe fd13 	bl	8002078 <bytes_to_hex>
  cursor += (plaintext_len * 2U);
 8003652:	f507 73a0 	add.w	r3, r7, #320	@ 0x140
 8003656:	f5a3 739c 	sub.w	r3, r3, #312	@ 0x138
 800365a:	681b      	ldr	r3, [r3, #0]
 800365c:	005b      	lsls	r3, r3, #1
 800365e:	f8d7 2134 	ldr.w	r2, [r7, #308]	@ 0x134
 8003662:	4413      	add	r3, r2
 8003664:	f8c7 3134 	str.w	r3, [r7, #308]	@ 0x134

  *cursor++ = ':';
 8003668:	f8d7 3134 	ldr.w	r3, [r7, #308]	@ 0x134
 800366c:	1c5a      	adds	r2, r3, #1
 800366e:	f8c7 2134 	str.w	r2, [r7, #308]	@ 0x134
 8003672:	223a      	movs	r2, #58	@ 0x3a
 8003674:	701a      	strb	r2, [r3, #0]
  bytes_to_hex(tag, SECURE_TELEMETRY_TAG_SIZE, cursor);
 8003676:	f107 0314 	add.w	r3, r7, #20
 800367a:	f8d7 2134 	ldr.w	r2, [r7, #308]	@ 0x134
 800367e:	2110      	movs	r1, #16
 8003680:	4618      	mov	r0, r3
 8003682:	f7fe fcf9 	bl	8002078 <bytes_to_hex>
  cursor += (SECURE_TELEMETRY_TAG_SIZE * 2U);
 8003686:	f8d7 3134 	ldr.w	r3, [r7, #308]	@ 0x134
 800368a:	3320      	adds	r3, #32
 800368c:	f8c7 3134 	str.w	r3, [r7, #308]	@ 0x134

  *cursor++ = '\r';
 8003690:	f8d7 3134 	ldr.w	r3, [r7, #308]	@ 0x134
 8003694:	1c5a      	adds	r2, r3, #1
 8003696:	f8c7 2134 	str.w	r2, [r7, #308]	@ 0x134
 800369a:	220d      	movs	r2, #13
 800369c:	701a      	strb	r2, [r3, #0]
  *cursor++ = '\n';
 800369e:	f8d7 3134 	ldr.w	r3, [r7, #308]	@ 0x134
 80036a2:	1c5a      	adds	r2, r3, #1
 80036a4:	f8c7 2134 	str.w	r2, [r7, #308]	@ 0x134
 80036a8:	220a      	movs	r2, #10
 80036aa:	701a      	strb	r2, [r3, #0]
  *cursor = '\0';
 80036ac:	f8d7 3134 	ldr.w	r3, [r7, #308]	@ 0x134
 80036b0:	2200      	movs	r2, #0
 80036b2:	701a      	strb	r2, [r3, #0]
  return 1U;
 80036b4:	2301      	movs	r3, #1
}
 80036b6:	4618      	mov	r0, r3
 80036b8:	f507 77a2 	add.w	r7, r7, #324	@ 0x144
 80036bc:	46bd      	mov	sp, r7
 80036be:	bd90      	pop	{r4, r7, pc}
 80036c0:	08005e08 	.word	0x08005e08
 80036c4:	08005dfc 	.word	0x08005dfc
 80036c8:	200002cc 	.word	0x200002cc
 80036cc:	20000334 	.word	0x20000334
 80036d0:	200003e4 	.word	0x200003e4
 80036d4:	08005e14 	.word	0x08005e14
 80036d8:	08005e1c 	.word	0x08005e1c

080036dc <HAL_MspInit>:
/* USER CODE END 0 */
/**
  * Initializes the Global MSP.
  */
void HAL_MspInit(void)
{
 80036dc:	b480      	push	{r7}
 80036de:	b083      	sub	sp, #12
 80036e0:	af00      	add	r7, sp, #0

  /* USER CODE BEGIN MspInit 0 */

  /* USER CODE END MspInit 0 */

  __HAL_RCC_SYSCFG_CLK_ENABLE();
 80036e2:	2300      	movs	r3, #0
 80036e4:	607b      	str	r3, [r7, #4]
 80036e6:	4b10      	ldr	r3, [pc, #64]	@ (8003728 <HAL_MspInit+0x4c>)
 80036e8:	6c5b      	ldr	r3, [r3, #68]	@ 0x44
 80036ea:	4a0f      	ldr	r2, [pc, #60]	@ (8003728 <HAL_MspInit+0x4c>)
 80036ec:	f443 4380 	orr.w	r3, r3, #16384	@ 0x4000
 80036f0:	6453      	str	r3, [r2, #68]	@ 0x44
 80036f2:	4b0d      	ldr	r3, [pc, #52]	@ (8003728 <HAL_MspInit+0x4c>)
 80036f4:	6c5b      	ldr	r3, [r3, #68]	@ 0x44
 80036f6:	f403 4380 	and.w	r3, r3, #16384	@ 0x4000
 80036fa:	607b      	str	r3, [r7, #4]
 80036fc:	687b      	ldr	r3, [r7, #4]
  __HAL_RCC_PWR_CLK_ENABLE();
 80036fe:	2300      	movs	r3, #0
 8003700:	603b      	str	r3, [r7, #0]
 8003702:	4b09      	ldr	r3, [pc, #36]	@ (8003728 <HAL_MspInit+0x4c>)
 8003704:	6c1b      	ldr	r3, [r3, #64]	@ 0x40
 8003706:	4a08      	ldr	r2, [pc, #32]	@ (8003728 <HAL_MspInit+0x4c>)
 8003708:	f043 5380 	orr.w	r3, r3, #268435456	@ 0x10000000
 800370c:	6413      	str	r3, [r2, #64]	@ 0x40
 800370e:	4b06      	ldr	r3, [pc, #24]	@ (8003728 <HAL_MspInit+0x4c>)
 8003710:	6c1b      	ldr	r3, [r3, #64]	@ 0x40
 8003712:	f003 5380 	and.w	r3, r3, #268435456	@ 0x10000000
 8003716:	603b      	str	r3, [r7, #0]
 8003718:	683b      	ldr	r3, [r7, #0]
  /* System interrupt init*/

  /* USER CODE BEGIN MspInit 1 */

  /* USER CODE END MspInit 1 */
}
 800371a:	bf00      	nop
 800371c:	370c      	adds	r7, #12
 800371e:	46bd      	mov	sp, r7
 8003720:	f85d 7b04 	ldr.w	r7, [sp], #4
 8003724:	4770      	bx	lr
 8003726:	bf00      	nop
 8003728:	40023800 	.word	0x40023800

0800372c <HAL_UART_MspInit>:
  * This function configures the hardware resources used in this example
  * @param huart: UART handle pointer
  * @retval None
  */
void HAL_UART_MspInit(UART_HandleTypeDef* huart)
{
 800372c:	b580      	push	{r7, lr}
 800372e:	b08a      	sub	sp, #40	@ 0x28
 8003730:	af00      	add	r7, sp, #0
 8003732:	6078      	str	r0, [r7, #4]
  GPIO_InitTypeDef GPIO_InitStruct = {0};
 8003734:	f107 0314 	add.w	r3, r7, #20
 8003738:	2200      	movs	r2, #0
 800373a:	601a      	str	r2, [r3, #0]
 800373c:	605a      	str	r2, [r3, #4]
 800373e:	609a      	str	r2, [r3, #8]
 8003740:	60da      	str	r2, [r3, #12]
 8003742:	611a      	str	r2, [r3, #16]
  if(huart->Instance==USART2)
 8003744:	687b      	ldr	r3, [r7, #4]
 8003746:	681b      	ldr	r3, [r3, #0]
 8003748:	4a19      	ldr	r2, [pc, #100]	@ (80037b0 <HAL_UART_MspInit+0x84>)
 800374a:	4293      	cmp	r3, r2
 800374c:	d12b      	bne.n	80037a6 <HAL_UART_MspInit+0x7a>
  {
    /* USER CODE BEGIN USART2_MspInit 0 */

    /* USER CODE END USART2_MspInit 0 */
    /* Peripheral clock enable */
    __HAL_RCC_USART2_CLK_ENABLE();
 800374e:	2300      	movs	r3, #0
 8003750:	613b      	str	r3, [r7, #16]
 8003752:	4b18      	ldr	r3, [pc, #96]	@ (80037b4 <HAL_UART_MspInit+0x88>)
 8003754:	6c1b      	ldr	r3, [r3, #64]	@ 0x40
 8003756:	4a17      	ldr	r2, [pc, #92]	@ (80037b4 <HAL_UART_MspInit+0x88>)
 8003758:	f443 3300 	orr.w	r3, r3, #131072	@ 0x20000
 800375c:	6413      	str	r3, [r2, #64]	@ 0x40
 800375e:	4b15      	ldr	r3, [pc, #84]	@ (80037b4 <HAL_UART_MspInit+0x88>)
 8003760:	6c1b      	ldr	r3, [r3, #64]	@ 0x40
 8003762:	f403 3300 	and.w	r3, r3, #131072	@ 0x20000
 8003766:	613b      	str	r3, [r7, #16]
 8003768:	693b      	ldr	r3, [r7, #16]

    __HAL_RCC_GPIOA_CLK_ENABLE();
 800376a:	2300      	movs	r3, #0
 800376c:	60fb      	str	r3, [r7, #12]
 800376e:	4b11      	ldr	r3, [pc, #68]	@ (80037b4 <HAL_UART_MspInit+0x88>)
 8003770:	6b1b      	ldr	r3, [r3, #48]	@ 0x30
 8003772:	4a10      	ldr	r2, [pc, #64]	@ (80037b4 <HAL_UART_MspInit+0x88>)
 8003774:	f043 0301 	orr.w	r3, r3, #1
 8003778:	6313      	str	r3, [r2, #48]	@ 0x30
 800377a:	4b0e      	ldr	r3, [pc, #56]	@ (80037b4 <HAL_UART_MspInit+0x88>)
 800377c:	6b1b      	ldr	r3, [r3, #48]	@ 0x30
 800377e:	f003 0301 	and.w	r3, r3, #1
 8003782:	60fb      	str	r3, [r7, #12]
 8003784:	68fb      	ldr	r3, [r7, #12]
    /**USART2 GPIO Configuration
    PA2     ------> USART2_TX
    PA3     ------> USART2_RX
    */
    GPIO_InitStruct.Pin = GPIO_PIN_2|GPIO_PIN_3;
 8003786:	230c      	movs	r3, #12
 8003788:	617b      	str	r3, [r7, #20]
    GPIO_InitStruct.Mode = GPIO_MODE_AF_PP;
 800378a:	2302      	movs	r3, #2
 800378c:	61bb      	str	r3, [r7, #24]
    GPIO_InitStruct.Pull = GPIO_NOPULL;
 800378e:	2300      	movs	r3, #0
 8003790:	61fb      	str	r3, [r7, #28]
    GPIO_InitStruct.Speed = GPIO_SPEED_FREQ_VERY_HIGH;
 8003792:	2303      	movs	r3, #3
 8003794:	623b      	str	r3, [r7, #32]
    GPIO_InitStruct.Alternate = GPIO_AF7_USART2;
 8003796:	2307      	movs	r3, #7
 8003798:	627b      	str	r3, [r7, #36]	@ 0x24
    HAL_GPIO_Init(GPIOA, &GPIO_InitStruct);
 800379a:	f107 0314 	add.w	r3, r7, #20
 800379e:	4619      	mov	r1, r3
 80037a0:	4805      	ldr	r0, [pc, #20]	@ (80037b8 <HAL_UART_MspInit+0x8c>)
 80037a2:	f000 fa5b 	bl	8003c5c <HAL_GPIO_Init>

    /* USER CODE END USART2_MspInit 1 */

  }

}
 80037a6:	bf00      	nop
 80037a8:	3728      	adds	r7, #40	@ 0x28
 80037aa:	46bd      	mov	sp, r7
 80037ac:	bd80      	pop	{r7, pc}
 80037ae:	bf00      	nop
 80037b0:	40004400 	.word	0x40004400
 80037b4:	40023800 	.word	0x40023800
 80037b8:	40020000 	.word	0x40020000

080037bc <NMI_Handler>:
/******************************************************************************/
/**
  * @brief This function handles Non maskable interrupt.
  */
void NMI_Handler(void)
{
 80037bc:	b480      	push	{r7}
 80037be:	af00      	add	r7, sp, #0
  /* USER CODE BEGIN NonMaskableInt_IRQn 0 */

  /* USER CODE END NonMaskableInt_IRQn 0 */
  /* USER CODE BEGIN NonMaskableInt_IRQn 1 */
   while (1)
 80037c0:	bf00      	nop
 80037c2:	e7fd      	b.n	80037c0 <NMI_Handler+0x4>

080037c4 <HardFault_Handler>:

/**
  * @brief This function handles Hard fault interrupt.
  */
void HardFault_Handler(void)
{
 80037c4:	b480      	push	{r7}
 80037c6:	af00      	add	r7, sp, #0
  /* USER CODE BEGIN HardFault_IRQn 0 */

  /* USER CODE END HardFault_IRQn 0 */
  while (1)
 80037c8:	bf00      	nop
 80037ca:	e7fd      	b.n	80037c8 <HardFault_Handler+0x4>

080037cc <MemManage_Handler>:

/**
  * @brief This function handles Memory management fault.
  */
void MemManage_Handler(void)
{
 80037cc:	b480      	push	{r7}
 80037ce:	af00      	add	r7, sp, #0
  /* USER CODE BEGIN MemoryManagement_IRQn 0 */

  /* USER CODE END MemoryManagement_IRQn 0 */
  while (1)
 80037d0:	bf00      	nop
 80037d2:	e7fd      	b.n	80037d0 <MemManage_Handler+0x4>

080037d4 <BusFault_Handler>:

/**
  * @brief This function handles Pre-fetch fault, memory access fault.
  */
void BusFault_Handler(void)
{
 80037d4:	b480      	push	{r7}
 80037d6:	af00      	add	r7, sp, #0
  /* USER CODE BEGIN BusFault_IRQn 0 */

  /* USER CODE END BusFault_IRQn 0 */
  while (1)
 80037d8:	bf00      	nop
 80037da:	e7fd      	b.n	80037d8 <BusFault_Handler+0x4>

080037dc <UsageFault_Handler>:

/**
  * @brief This function handles Undefined instruction or illegal state.
  */
void UsageFault_Handler(void)
{
 80037dc:	b480      	push	{r7}
 80037de:	af00      	add	r7, sp, #0
  /* USER CODE BEGIN UsageFault_IRQn 0 */

  /* USER CODE END UsageFault_IRQn 0 */
  while (1)
 80037e0:	bf00      	nop
 80037e2:	e7fd      	b.n	80037e0 <UsageFault_Handler+0x4>

080037e4 <SVC_Handler>:

/**
  * @brief This function handles System service call via SWI instruction.
  */
void SVC_Handler(void)
{
 80037e4:	b480      	push	{r7}
 80037e6:	af00      	add	r7, sp, #0

  /* USER CODE END SVCall_IRQn 0 */
  /* USER CODE BEGIN SVCall_IRQn 1 */

  /* USER CODE END SVCall_IRQn 1 */
}
 80037e8:	bf00      	nop
 80037ea:	46bd      	mov	sp, r7
 80037ec:	f85d 7b04 	ldr.w	r7, [sp], #4
 80037f0:	4770      	bx	lr

080037f2 <DebugMon_Handler>:

/**
  * @brief This function handles Debug monitor.
  */
void DebugMon_Handler(void)
{
 80037f2:	b480      	push	{r7}
 80037f4:	af00      	add	r7, sp, #0

  /* USER CODE END DebugMonitor_IRQn 0 */
  /* USER CODE BEGIN DebugMonitor_IRQn 1 */

  /* USER CODE END DebugMonitor_IRQn 1 */
}
 80037f6:	bf00      	nop
 80037f8:	46bd      	mov	sp, r7
 80037fa:	f85d 7b04 	ldr.w	r7, [sp], #4
 80037fe:	4770      	bx	lr

08003800 <PendSV_Handler>:

/**
  * @brief This function handles Pendable request for system service.
  */
void PendSV_Handler(void)
{
 8003800:	b480      	push	{r7}
 8003802:	af00      	add	r7, sp, #0

  /* USER CODE END PendSV_IRQn 0 */
  /* USER CODE BEGIN PendSV_IRQn 1 */

  /* USER CODE END PendSV_IRQn 1 */
}
 8003804:	bf00      	nop
 8003806:	46bd      	mov	sp, r7
 8003808:	f85d 7b04 	ldr.w	r7, [sp], #4
 800380c:	4770      	bx	lr

0800380e <SysTick_Handler>:

/**
  * @brief This function handles System tick timer.
  */
void SysTick_Handler(void)
{
 800380e:	b580      	push	{r7, lr}
 8003810:	af00      	add	r7, sp, #0
  /* USER CODE BEGIN SysTick_IRQn 0 */

  /* USER CODE END SysTick_IRQn 0 */
  HAL_IncTick();
 8003812:	f000 f8cd 	bl	80039b0 <HAL_IncTick>
  /* USER CODE BEGIN SysTick_IRQn 1 */

  /* USER CODE END SysTick_IRQn 1 */
}
 8003816:	bf00      	nop
 8003818:	bd80      	pop	{r7, pc}

0800381a <EXTI0_IRQHandler>:

/**
  * @brief This function handles EXTI line0 interrupt.
  */
void EXTI0_IRQHandler(void)
{
 800381a:	b580      	push	{r7, lr}
 800381c:	af00      	add	r7, sp, #0
  /* USER CODE BEGIN EXTI0_IRQn 0 */

  /* USER CODE END EXTI0_IRQn 0 */
  HAL_GPIO_EXTI_IRQHandler(GPIO_PIN_0);
 800381e:	2001      	movs	r0, #1
 8003820:	f000 fbea 	bl	8003ff8 <HAL_GPIO_EXTI_IRQHandler>
  /* USER CODE BEGIN EXTI0_IRQn 1 */

  /* USER CODE END EXTI0_IRQn 1 */
}
 8003824:	bf00      	nop
 8003826:	bd80      	pop	{r7, pc}

08003828 <_sbrk>:
 *
 * @param incr Memory size
 * @return Pointer to allocated memory
 */
void *_sbrk(ptrdiff_t incr)
{
 8003828:	b580      	push	{r7, lr}
 800382a:	b086      	sub	sp, #24
 800382c:	af00      	add	r7, sp, #0
 800382e:	6078      	str	r0, [r7, #4]
  extern uint8_t _end; /* Symbol defined in the linker script */
  extern uint8_t _estack; /* Symbol defined in the linker script */
  extern uint32_t _Min_Stack_Size; /* Symbol defined in the linker script */
  const uint32_t stack_limit = (uint32_t)&_estack - (uint32_t)&_Min_Stack_Size;
 8003830:	4a14      	ldr	r2, [pc, #80]	@ (8003884 <_sbrk+0x5c>)
 8003832:	4b15      	ldr	r3, [pc, #84]	@ (8003888 <_sbrk+0x60>)
 8003834:	1ad3      	subs	r3, r2, r3
 8003836:	617b      	str	r3, [r7, #20]
  const uint8_t *max_heap = (uint8_t *)stack_limit;
 8003838:	697b      	ldr	r3, [r7, #20]
 800383a:	613b      	str	r3, [r7, #16]
  uint8_t *prev_heap_end;

  /* Initialize heap end at first call */
  if (NULL == __sbrk_heap_end)
 800383c:	4b13      	ldr	r3, [pc, #76]	@ (800388c <_sbrk+0x64>)
 800383e:	681b      	ldr	r3, [r3, #0]
 8003840:	2b00      	cmp	r3, #0
 8003842:	d102      	bne.n	800384a <_sbrk+0x22>
  {
    __sbrk_heap_end = &_end;
 8003844:	4b11      	ldr	r3, [pc, #68]	@ (800388c <_sbrk+0x64>)
 8003846:	4a12      	ldr	r2, [pc, #72]	@ (8003890 <_sbrk+0x68>)
 8003848:	601a      	str	r2, [r3, #0]
  }

  /* Protect heap from growing into the reserved MSP stack */
  if (__sbrk_heap_end + incr > max_heap)
 800384a:	4b10      	ldr	r3, [pc, #64]	@ (800388c <_sbrk+0x64>)
 800384c:	681a      	ldr	r2, [r3, #0]
 800384e:	687b      	ldr	r3, [r7, #4]
 8003850:	4413      	add	r3, r2
 8003852:	693a      	ldr	r2, [r7, #16]
 8003854:	429a      	cmp	r2, r3
 8003856:	d207      	bcs.n	8003868 <_sbrk+0x40>
  {
    errno = ENOMEM;
 8003858:	f001 fda0 	bl	800539c <__errno>
 800385c:	4603      	mov	r3, r0
 800385e:	220c      	movs	r2, #12
 8003860:	601a      	str	r2, [r3, #0]
    return (void *)-1;
 8003862:	f04f 33ff 	mov.w	r3, #4294967295
 8003866:	e009      	b.n	800387c <_sbrk+0x54>
  }

  prev_heap_end = __sbrk_heap_end;
 8003868:	4b08      	ldr	r3, [pc, #32]	@ (800388c <_sbrk+0x64>)
 800386a:	681b      	ldr	r3, [r3, #0]
 800386c:	60fb      	str	r3, [r7, #12]
  __sbrk_heap_end += incr;
 800386e:	4b07      	ldr	r3, [pc, #28]	@ (800388c <_sbrk+0x64>)
 8003870:	681a      	ldr	r2, [r3, #0]
 8003872:	687b      	ldr	r3, [r7, #4]
 8003874:	4413      	add	r3, r2
 8003876:	4a05      	ldr	r2, [pc, #20]	@ (800388c <_sbrk+0x64>)
 8003878:	6013      	str	r3, [r2, #0]

  return (void *)prev_heap_end;
 800387a:	68fb      	ldr	r3, [r7, #12]
}
 800387c:	4618      	mov	r0, r3
 800387e:	3718      	adds	r7, #24
 8003880:	46bd      	mov	sp, r7
 8003882:	bd80      	pop	{r7, pc}
 8003884:	20020000 	.word	0x20020000
 8003888:	00000400 	.word	0x00000400
 800388c:	2000040c 	.word	0x2000040c
 8003890:	20000560 	.word	0x20000560

08003894 <SystemInit>:
  *         configuration.
  * @param  None
  * @retval None
  */
void SystemInit(void)
{
 8003894:	b480      	push	{r7}
 8003896:	af00      	add	r7, sp, #0
  /* FPU settings ------------------------------------------------------------*/
  #if (__FPU_PRESENT == 1) && (__FPU_USED == 1)
    SCB->CPACR |= ((3UL << 10*2)|(3UL << 11*2));  /* set CP10 and CP11 Full Access */
 8003898:	4b06      	ldr	r3, [pc, #24]	@ (80038b4 <SystemInit+0x20>)
 800389a:	f8d3 3088 	ldr.w	r3, [r3, #136]	@ 0x88
 800389e:	4a05      	ldr	r2, [pc, #20]	@ (80038b4 <SystemInit+0x20>)
 80038a0:	f443 0370 	orr.w	r3, r3, #15728640	@ 0xf00000
 80038a4:	f8c2 3088 	str.w	r3, [r2, #136]	@ 0x88

  /* Configure the Vector Table location -------------------------------------*/
#if defined(USER_VECT_TAB_ADDRESS)
  SCB->VTOR = VECT_TAB_BASE_ADDRESS | VECT_TAB_OFFSET; /* Vector Table Relocation in Internal SRAM */
#endif /* USER_VECT_TAB_ADDRESS */
}
 80038a8:	bf00      	nop
 80038aa:	46bd      	mov	sp, r7
 80038ac:	f85d 7b04 	ldr.w	r7, [sp], #4
 80038b0:	4770      	bx	lr
 80038b2:	bf00      	nop
 80038b4:	e000ed00 	.word	0xe000ed00

080038b8 <Reset_Handler>:

    .section  .text.Reset_Handler
  .weak  Reset_Handler
  .type  Reset_Handler, %function
Reset_Handler:  
  ldr   sp, =_estack     /* set stack pointer */
 80038b8:	f8df d034 	ldr.w	sp, [pc, #52]	@ 80038f0 <LoopFillZerobss+0xe>
  
/* Call the clock system initialization function.*/
  bl  SystemInit  
 80038bc:	f7ff ffea 	bl	8003894 <SystemInit>

/* Copy the data segment initializers from flash to SRAM */  
  ldr r0, =_sdata
 80038c0:	480c      	ldr	r0, [pc, #48]	@ (80038f4 <LoopFillZerobss+0x12>)
  ldr r1, =_edata
 80038c2:	490d      	ldr	r1, [pc, #52]	@ (80038f8 <LoopFillZerobss+0x16>)
  ldr r2, =_sidata
 80038c4:	4a0d      	ldr	r2, [pc, #52]	@ (80038fc <LoopFillZerobss+0x1a>)
  movs r3, #0
 80038c6:	2300      	movs	r3, #0
  b LoopCopyDataInit
 80038c8:	e002      	b.n	80038d0 <LoopCopyDataInit>

080038ca <CopyDataInit>:

CopyDataInit:
  ldr r4, [r2, r3]
 80038ca:	58d4      	ldr	r4, [r2, r3]
  str r4, [r0, r3]
 80038cc:	50c4      	str	r4, [r0, r3]
  adds r3, r3, #4
 80038ce:	3304      	adds	r3, #4

080038d0 <LoopCopyDataInit>:

LoopCopyDataInit:
  adds r4, r0, r3
 80038d0:	18c4      	adds	r4, r0, r3
  cmp r4, r1
 80038d2:	428c      	cmp	r4, r1
  bcc CopyDataInit
 80038d4:	d3f9      	bcc.n	80038ca <CopyDataInit>
  
/* Zero fill the bss segment. */
  ldr r2, =_sbss
 80038d6:	4a0a      	ldr	r2, [pc, #40]	@ (8003900 <LoopFillZerobss+0x1e>)
  ldr r4, =_ebss
 80038d8:	4c0a      	ldr	r4, [pc, #40]	@ (8003904 <LoopFillZerobss+0x22>)
  movs r3, #0
 80038da:	2300      	movs	r3, #0
  b LoopFillZerobss
 80038dc:	e001      	b.n	80038e2 <LoopFillZerobss>

080038de <FillZerobss>:

FillZerobss:
  str  r3, [r2]
 80038de:	6013      	str	r3, [r2, #0]
  adds r2, r2, #4
 80038e0:	3204      	adds	r2, #4

080038e2 <LoopFillZerobss>:

LoopFillZerobss:
  cmp r2, r4
 80038e2:	42a2      	cmp	r2, r4
  bcc FillZerobss
 80038e4:	d3fb      	bcc.n	80038de <FillZerobss>

/* Call static constructors */
    bl __libc_init_array
 80038e6:	f001 fd5f 	bl	80053a8 <__libc_init_array>
/* Call the application's entry point.*/
  bl  main
 80038ea:	f7fe fa1d 	bl	8001d28 <main>
  bx  lr    
 80038ee:	4770      	bx	lr
  ldr   sp, =_estack     /* set stack pointer */
 80038f0:	20020000 	.word	0x20020000
  ldr r0, =_sdata
 80038f4:	20000000 	.word	0x20000000
  ldr r1, =_edata
 80038f8:	2000005c 	.word	0x2000005c
  ldr r2, =_sidata
 80038fc:	08006104 	.word	0x08006104
  ldr r2, =_sbss
 8003900:	2000005c 	.word	0x2000005c
  ldr r4, =_ebss
 8003904:	2000055c 	.word	0x2000055c

08003908 <ADC_IRQHandler>:
 * @retval None       
*/
    .section  .text.Default_Handler,"ax",%progbits
Default_Handler:
Infinite_Loop:
  b  Infinite_Loop
 8003908:	e7fe      	b.n	8003908 <ADC_IRQHandler>
	...

0800390c <HAL_Init>:
  *         need to ensure that the SysTick time base is always set to 1 millisecond
  *         to have correct HAL operation.
  * @retval HAL status
  */
HAL_StatusTypeDef HAL_Init(void)
{
 800390c:	b580      	push	{r7, lr}
 800390e:	af00      	add	r7, sp, #0
  /* Configure Flash prefetch, Instruction cache, Data cache */ 
#if (INSTRUCTION_CACHE_ENABLE != 0U)
  __HAL_FLASH_INSTRUCTION_CACHE_ENABLE();
 8003910:	4b0e      	ldr	r3, [pc, #56]	@ (800394c <HAL_Init+0x40>)
 8003912:	681b      	ldr	r3, [r3, #0]
 8003914:	4a0d      	ldr	r2, [pc, #52]	@ (800394c <HAL_Init+0x40>)
 8003916:	f443 7300 	orr.w	r3, r3, #512	@ 0x200
 800391a:	6013      	str	r3, [r2, #0]
#endif /* INSTRUCTION_CACHE_ENABLE */

#if (DATA_CACHE_ENABLE != 0U)
  __HAL_FLASH_DATA_CACHE_ENABLE();
 800391c:	4b0b      	ldr	r3, [pc, #44]	@ (800394c <HAL_Init+0x40>)
 800391e:	681b      	ldr	r3, [r3, #0]
 8003920:	4a0a      	ldr	r2, [pc, #40]	@ (800394c <HAL_Init+0x40>)
 8003922:	f443 6380 	orr.w	r3, r3, #1024	@ 0x400
 8003926:	6013      	str	r3, [r2, #0]
#endif /* DATA_CACHE_ENABLE */

#if (PREFETCH_ENABLE != 0U)
  __HAL_FLASH_PREFETCH_BUFFER_ENABLE();
 8003928:	4b08      	ldr	r3, [pc, #32]	@ (800394c <HAL_Init+0x40>)
 800392a:	681b      	ldr	r3, [r3, #0]
 800392c:	4a07      	ldr	r2, [pc, #28]	@ (800394c <HAL_Init+0x40>)
 800392e:	f443 7380 	orr.w	r3, r3, #256	@ 0x100
 8003932:	6013      	str	r3, [r2, #0]
#endif /* PREFETCH_ENABLE */

  /* Set Interrupt Group Priority */
  HAL_NVIC_SetPriorityGrouping(NVIC_PRIORITYGROUP_4);
 8003934:	2003      	movs	r0, #3
 8003936:	f000 f94f 	bl	8003bd8 <HAL_NVIC_SetPriorityGrouping>

  /* Use systick as time base source and configure 1ms tick (default clock after Reset is HSI) */
  HAL_InitTick(TICK_INT_PRIORITY);
 800393a:	200f      	movs	r0, #15
 800393c:	f000 f808 	bl	8003950 <HAL_InitTick>

  /* Init the low level hardware */
  HAL_MspInit();
 8003940:	f7ff fecc 	bl	80036dc <HAL_MspInit>

  /* Return function status */
  return HAL_OK;
 8003944:	2300      	movs	r3, #0
}
 8003946:	4618      	mov	r0, r3
 8003948:	bd80      	pop	{r7, pc}
 800394a:	bf00      	nop
 800394c:	40023c00 	.word	0x40023c00

08003950 <HAL_InitTick>:
  *       implementation  in user file.
  * @param TickPriority Tick interrupt priority.
  * @retval HAL status
  */
__weak HAL_StatusTypeDef HAL_InitTick(uint32_t TickPriority)
{
 8003950:	b580      	push	{r7, lr}
 8003952:	b082      	sub	sp, #8
 8003954:	af00      	add	r7, sp, #0
 8003956:	6078      	str	r0, [r7, #4]
  /* Configure the SysTick to have interrupt in 1ms time basis*/
  if (HAL_SYSTICK_Config(SystemCoreClock / (1000U / uwTickFreq)) > 0U)
 8003958:	4b12      	ldr	r3, [pc, #72]	@ (80039a4 <HAL_InitTick+0x54>)
 800395a:	681a      	ldr	r2, [r3, #0]
 800395c:	4b12      	ldr	r3, [pc, #72]	@ (80039a8 <HAL_InitTick+0x58>)
 800395e:	781b      	ldrb	r3, [r3, #0]
 8003960:	4619      	mov	r1, r3
 8003962:	f44f 737a 	mov.w	r3, #1000	@ 0x3e8
 8003966:	fbb3 f3f1 	udiv	r3, r3, r1
 800396a:	fbb2 f3f3 	udiv	r3, r2, r3
 800396e:	4618      	mov	r0, r3
 8003970:	f000 f967 	bl	8003c42 <HAL_SYSTICK_Config>
 8003974:	4603      	mov	r3, r0
 8003976:	2b00      	cmp	r3, #0
 8003978:	d001      	beq.n	800397e <HAL_InitTick+0x2e>
  {
    return HAL_ERROR;
 800397a:	2301      	movs	r3, #1
 800397c:	e00e      	b.n	800399c <HAL_InitTick+0x4c>
  }

  /* Configure the SysTick IRQ priority */
  if (TickPriority < (1UL << __NVIC_PRIO_BITS))
 800397e:	687b      	ldr	r3, [r7, #4]
 8003980:	2b0f      	cmp	r3, #15
 8003982:	d80a      	bhi.n	800399a <HAL_InitTick+0x4a>
  {
    HAL_NVIC_SetPriority(SysTick_IRQn, TickPriority, 0U);
 8003984:	2200      	movs	r2, #0
 8003986:	6879      	ldr	r1, [r7, #4]
 8003988:	f04f 30ff 	mov.w	r0, #4294967295
 800398c:	f000 f92f 	bl	8003bee <HAL_NVIC_SetPriority>
    uwTickPrio = TickPriority;
 8003990:	4a06      	ldr	r2, [pc, #24]	@ (80039ac <HAL_InitTick+0x5c>)
 8003992:	687b      	ldr	r3, [r7, #4]
 8003994:	6013      	str	r3, [r2, #0]
  {
    return HAL_ERROR;
  }

  /* Return function status */
  return HAL_OK;
 8003996:	2300      	movs	r3, #0
 8003998:	e000      	b.n	800399c <HAL_InitTick+0x4c>
    return HAL_ERROR;
 800399a:	2301      	movs	r3, #1
}
 800399c:	4618      	mov	r0, r3
 800399e:	3708      	adds	r7, #8
 80039a0:	46bd      	mov	sp, r7
 80039a2:	bd80      	pop	{r7, pc}
 80039a4:	20000000 	.word	0x20000000
 80039a8:	20000008 	.word	0x20000008
 80039ac:	20000004 	.word	0x20000004

080039b0 <HAL_IncTick>:
 * @note This function is declared as __weak to be overwritten in case of other 
  *      implementations in user file.
  * @retval None
  */
__weak void HAL_IncTick(void)
{
 80039b0:	b480      	push	{r7}
 80039b2:	af00      	add	r7, sp, #0
  uwTick += uwTickFreq;
 80039b4:	4b06      	ldr	r3, [pc, #24]	@ (80039d0 <HAL_IncTick+0x20>)
 80039b6:	781b      	ldrb	r3, [r3, #0]
 80039b8:	461a      	mov	r2, r3
 80039ba:	4b06      	ldr	r3, [pc, #24]	@ (80039d4 <HAL_IncTick+0x24>)
 80039bc:	681b      	ldr	r3, [r3, #0]
 80039be:	4413      	add	r3, r2
 80039c0:	4a04      	ldr	r2, [pc, #16]	@ (80039d4 <HAL_IncTick+0x24>)
 80039c2:	6013      	str	r3, [r2, #0]
}
 80039c4:	bf00      	nop
 80039c6:	46bd      	mov	sp, r7
 80039c8:	f85d 7b04 	ldr.w	r7, [sp], #4
 80039cc:	4770      	bx	lr
 80039ce:	bf00      	nop
 80039d0:	20000008 	.word	0x20000008
 80039d4:	20000410 	.word	0x20000410

080039d8 <HAL_GetTick>:
  * @note This function is declared as __weak to be overwritten in case of other 
  *       implementations in user file.
  * @retval tick value
  */
__weak uint32_t HAL_GetTick(void)
{
 80039d8:	b480      	push	{r7}
 80039da:	af00      	add	r7, sp, #0
  return uwTick;
 80039dc:	4b03      	ldr	r3, [pc, #12]	@ (80039ec <HAL_GetTick+0x14>)
 80039de:	681b      	ldr	r3, [r3, #0]
}
 80039e0:	4618      	mov	r0, r3
 80039e2:	46bd      	mov	sp, r7
 80039e4:	f85d 7b04 	ldr.w	r7, [sp], #4
 80039e8:	4770      	bx	lr
 80039ea:	bf00      	nop
 80039ec:	20000410 	.word	0x20000410

080039f0 <HAL_Delay>:
  *       implementations in user file.
  * @param Delay specifies the delay time length, in milliseconds.
  * @retval None
  */
__weak void HAL_Delay(uint32_t Delay)
{
 80039f0:	b580      	push	{r7, lr}
 80039f2:	b084      	sub	sp, #16
 80039f4:	af00      	add	r7, sp, #0
 80039f6:	6078      	str	r0, [r7, #4]
  uint32_t tickstart = HAL_GetTick();
 80039f8:	f7ff ffee 	bl	80039d8 <HAL_GetTick>
 80039fc:	60b8      	str	r0, [r7, #8]
  uint32_t wait = Delay;
 80039fe:	687b      	ldr	r3, [r7, #4]
 8003a00:	60fb      	str	r3, [r7, #12]

  /* Add a freq to guarantee minimum wait */
  if (wait < HAL_MAX_DELAY)
 8003a02:	68fb      	ldr	r3, [r7, #12]
 8003a04:	f1b3 3fff 	cmp.w	r3, #4294967295
 8003a08:	d005      	beq.n	8003a16 <HAL_Delay+0x26>
  {
    wait += (uint32_t)(uwTickFreq);
 8003a0a:	4b0a      	ldr	r3, [pc, #40]	@ (8003a34 <HAL_Delay+0x44>)
 8003a0c:	781b      	ldrb	r3, [r3, #0]
 8003a0e:	461a      	mov	r2, r3
 8003a10:	68fb      	ldr	r3, [r7, #12]
 8003a12:	4413      	add	r3, r2
 8003a14:	60fb      	str	r3, [r7, #12]
  }

  while((HAL_GetTick() - tickstart) < wait)
 8003a16:	bf00      	nop
 8003a18:	f7ff ffde 	bl	80039d8 <HAL_GetTick>
 8003a1c:	4602      	mov	r2, r0
 8003a1e:	68bb      	ldr	r3, [r7, #8]
 8003a20:	1ad3      	subs	r3, r2, r3
 8003a22:	68fa      	ldr	r2, [r7, #12]
 8003a24:	429a      	cmp	r2, r3
 8003a26:	d8f7      	bhi.n	8003a18 <HAL_Delay+0x28>
  {
  }
}
 8003a28:	bf00      	nop
 8003a2a:	bf00      	nop
 8003a2c:	3710      	adds	r7, #16
 8003a2e:	46bd      	mov	sp, r7
 8003a30:	bd80      	pop	{r7, pc}
 8003a32:	bf00      	nop
 8003a34:	20000008 	.word	0x20000008

08003a38 <__NVIC_SetPriorityGrouping>:
           In case of a conflict between priority grouping and available
           priority bits (__NVIC_PRIO_BITS), the smallest possible priority group is set.
  \param [in]      PriorityGroup  Priority grouping field.
 */
__STATIC_INLINE void __NVIC_SetPriorityGrouping(uint32_t PriorityGroup)
{
 8003a38:	b480      	push	{r7}
 8003a3a:	b085      	sub	sp, #20
 8003a3c:	af00      	add	r7, sp, #0
 8003a3e:	6078      	str	r0, [r7, #4]
  uint32_t reg_value;
  uint32_t PriorityGroupTmp = (PriorityGroup & (uint32_t)0x07UL);             /* only values 0..7 are used          */
 8003a40:	687b      	ldr	r3, [r7, #4]
 8003a42:	f003 0307 	and.w	r3, r3, #7
 8003a46:	60fb      	str	r3, [r7, #12]

  reg_value  =  SCB->AIRCR;                                                   /* read old register configuration    */
 8003a48:	4b0c      	ldr	r3, [pc, #48]	@ (8003a7c <__NVIC_SetPriorityGrouping+0x44>)
 8003a4a:	68db      	ldr	r3, [r3, #12]
 8003a4c:	60bb      	str	r3, [r7, #8]
  reg_value &= ~((uint32_t)(SCB_AIRCR_VECTKEY_Msk | SCB_AIRCR_PRIGROUP_Msk)); /* clear bits to change               */
 8003a4e:	68ba      	ldr	r2, [r7, #8]
 8003a50:	f64f 03ff 	movw	r3, #63743	@ 0xf8ff
 8003a54:	4013      	ands	r3, r2
 8003a56:	60bb      	str	r3, [r7, #8]
  reg_value  =  (reg_value                                   |
                ((uint32_t)0x5FAUL << SCB_AIRCR_VECTKEY_Pos) |
                (PriorityGroupTmp << SCB_AIRCR_PRIGROUP_Pos)  );              /* Insert write key and priority group */
 8003a58:	68fb      	ldr	r3, [r7, #12]
 8003a5a:	021a      	lsls	r2, r3, #8
                ((uint32_t)0x5FAUL << SCB_AIRCR_VECTKEY_Pos) |
 8003a5c:	68bb      	ldr	r3, [r7, #8]
 8003a5e:	4313      	orrs	r3, r2
  reg_value  =  (reg_value                                   |
 8003a60:	f043 63bf 	orr.w	r3, r3, #100139008	@ 0x5f80000
 8003a64:	f443 3300 	orr.w	r3, r3, #131072	@ 0x20000
 8003a68:	60bb      	str	r3, [r7, #8]
  SCB->AIRCR =  reg_value;
 8003a6a:	4a04      	ldr	r2, [pc, #16]	@ (8003a7c <__NVIC_SetPriorityGrouping+0x44>)
 8003a6c:	68bb      	ldr	r3, [r7, #8]
 8003a6e:	60d3      	str	r3, [r2, #12]
}
 8003a70:	bf00      	nop
 8003a72:	3714      	adds	r7, #20
 8003a74:	46bd      	mov	sp, r7
 8003a76:	f85d 7b04 	ldr.w	r7, [sp], #4
 8003a7a:	4770      	bx	lr
 8003a7c:	e000ed00 	.word	0xe000ed00

08003a80 <__NVIC_GetPriorityGrouping>:
  \brief   Get Priority Grouping
  \details Reads the priority grouping field from the NVIC Interrupt Controller.
  \return                Priority grouping field (SCB->AIRCR [10:8] PRIGROUP field).
 */
__STATIC_INLINE uint32_t __NVIC_GetPriorityGrouping(void)
{
 8003a80:	b480      	push	{r7}
 8003a82:	af00      	add	r7, sp, #0
  return ((uint32_t)((SCB->AIRCR & SCB_AIRCR_PRIGROUP_Msk) >> SCB_AIRCR_PRIGROUP_Pos));
 8003a84:	4b04      	ldr	r3, [pc, #16]	@ (8003a98 <__NVIC_GetPriorityGrouping+0x18>)
 8003a86:	68db      	ldr	r3, [r3, #12]
 8003a88:	0a1b      	lsrs	r3, r3, #8
 8003a8a:	f003 0307 	and.w	r3, r3, #7
}
 8003a8e:	4618      	mov	r0, r3
 8003a90:	46bd      	mov	sp, r7
 8003a92:	f85d 7b04 	ldr.w	r7, [sp], #4
 8003a96:	4770      	bx	lr
 8003a98:	e000ed00 	.word	0xe000ed00

08003a9c <__NVIC_EnableIRQ>:
  \details Enables a device specific interrupt in the NVIC interrupt controller.
  \param [in]      IRQn  Device specific interrupt number.
  \note    IRQn must not be negative.
 */
__STATIC_INLINE void __NVIC_EnableIRQ(IRQn_Type IRQn)
{
 8003a9c:	b480      	push	{r7}
 8003a9e:	b083      	sub	sp, #12
 8003aa0:	af00      	add	r7, sp, #0
 8003aa2:	4603      	mov	r3, r0
 8003aa4:	71fb      	strb	r3, [r7, #7]
  if ((int32_t)(IRQn) >= 0)
 8003aa6:	f997 3007 	ldrsb.w	r3, [r7, #7]
 8003aaa:	2b00      	cmp	r3, #0
 8003aac:	db0b      	blt.n	8003ac6 <__NVIC_EnableIRQ+0x2a>
  {
    __COMPILER_BARRIER();
    NVIC->ISER[(((uint32_t)IRQn) >> 5UL)] = (uint32_t)(1UL << (((uint32_t)IRQn) & 0x1FUL));
 8003aae:	79fb      	ldrb	r3, [r7, #7]
 8003ab0:	f003 021f 	and.w	r2, r3, #31
 8003ab4:	4907      	ldr	r1, [pc, #28]	@ (8003ad4 <__NVIC_EnableIRQ+0x38>)
 8003ab6:	f997 3007 	ldrsb.w	r3, [r7, #7]
 8003aba:	095b      	lsrs	r3, r3, #5
 8003abc:	2001      	movs	r0, #1
 8003abe:	fa00 f202 	lsl.w	r2, r0, r2
 8003ac2:	f841 2023 	str.w	r2, [r1, r3, lsl #2]
    __COMPILER_BARRIER();
  }
}
 8003ac6:	bf00      	nop
 8003ac8:	370c      	adds	r7, #12
 8003aca:	46bd      	mov	sp, r7
 8003acc:	f85d 7b04 	ldr.w	r7, [sp], #4
 8003ad0:	4770      	bx	lr
 8003ad2:	bf00      	nop
 8003ad4:	e000e100 	.word	0xe000e100

08003ad8 <__NVIC_SetPriority>:
  \param [in]      IRQn  Interrupt number.
  \param [in]  priority  Priority to set.
  \note    The priority cannot be set for every processor exception.
 */
__STATIC_INLINE void __NVIC_SetPriority(IRQn_Type IRQn, uint32_t priority)
{
 8003ad8:	b480      	push	{r7}
 8003ada:	b083      	sub	sp, #12
 8003adc:	af00      	add	r7, sp, #0
 8003ade:	4603      	mov	r3, r0
 8003ae0:	6039      	str	r1, [r7, #0]
 8003ae2:	71fb      	strb	r3, [r7, #7]
  if ((int32_t)(IRQn) >= 0)
 8003ae4:	f997 3007 	ldrsb.w	r3, [r7, #7]
 8003ae8:	2b00      	cmp	r3, #0
 8003aea:	db0a      	blt.n	8003b02 <__NVIC_SetPriority+0x2a>
  {
    NVIC->IP[((uint32_t)IRQn)]               = (uint8_t)((priority << (8U - __NVIC_PRIO_BITS)) & (uint32_t)0xFFUL);
 8003aec:	683b      	ldr	r3, [r7, #0]
 8003aee:	b2da      	uxtb	r2, r3
 8003af0:	490c      	ldr	r1, [pc, #48]	@ (8003b24 <__NVIC_SetPriority+0x4c>)
 8003af2:	f997 3007 	ldrsb.w	r3, [r7, #7]
 8003af6:	0112      	lsls	r2, r2, #4
 8003af8:	b2d2      	uxtb	r2, r2
 8003afa:	440b      	add	r3, r1
 8003afc:	f883 2300 	strb.w	r2, [r3, #768]	@ 0x300
  }
  else
  {
    SCB->SHP[(((uint32_t)IRQn) & 0xFUL)-4UL] = (uint8_t)((priority << (8U - __NVIC_PRIO_BITS)) & (uint32_t)0xFFUL);
  }
}
 8003b00:	e00a      	b.n	8003b18 <__NVIC_SetPriority+0x40>
    SCB->SHP[(((uint32_t)IRQn) & 0xFUL)-4UL] = (uint8_t)((priority << (8U - __NVIC_PRIO_BITS)) & (uint32_t)0xFFUL);
 8003b02:	683b      	ldr	r3, [r7, #0]
 8003b04:	b2da      	uxtb	r2, r3
 8003b06:	4908      	ldr	r1, [pc, #32]	@ (8003b28 <__NVIC_SetPriority+0x50>)
 8003b08:	79fb      	ldrb	r3, [r7, #7]
 8003b0a:	f003 030f 	and.w	r3, r3, #15
 8003b0e:	3b04      	subs	r3, #4
 8003b10:	0112      	lsls	r2, r2, #4
 8003b12:	b2d2      	uxtb	r2, r2
 8003b14:	440b      	add	r3, r1
 8003b16:	761a      	strb	r2, [r3, #24]
}
 8003b18:	bf00      	nop
 8003b1a:	370c      	adds	r7, #12
 8003b1c:	46bd      	mov	sp, r7
 8003b1e:	f85d 7b04 	ldr.w	r7, [sp], #4
 8003b22:	4770      	bx	lr
 8003b24:	e000e100 	.word	0xe000e100
 8003b28:	e000ed00 	.word	0xe000ed00

08003b2c <NVIC_EncodePriority>:
  \param [in]   PreemptPriority  Preemptive priority value (starting from 0).
  \param [in]       SubPriority  Subpriority value (starting from 0).
  \return                        Encoded priority. Value can be used in the function \ref NVIC_SetPriority().
 */
__STATIC_INLINE uint32_t NVIC_EncodePriority (uint32_t PriorityGroup, uint32_t PreemptPriority, uint32_t SubPriority)
{
 8003b2c:	b480      	push	{r7}
 8003b2e:	b089      	sub	sp, #36	@ 0x24
 8003b30:	af00      	add	r7, sp, #0
 8003b32:	60f8      	str	r0, [r7, #12]
 8003b34:	60b9      	str	r1, [r7, #8]
 8003b36:	607a      	str	r2, [r7, #4]
  uint32_t PriorityGroupTmp = (PriorityGroup & (uint32_t)0x07UL);   /* only values 0..7 are used          */
 8003b38:	68fb      	ldr	r3, [r7, #12]
 8003b3a:	f003 0307 	and.w	r3, r3, #7
 8003b3e:	61fb      	str	r3, [r7, #28]
  uint32_t PreemptPriorityBits;
  uint32_t SubPriorityBits;

  PreemptPriorityBits = ((7UL - PriorityGroupTmp) > (uint32_t)(__NVIC_PRIO_BITS)) ? (uint32_t)(__NVIC_PRIO_BITS) : (uint32_t)(7UL - PriorityGroupTmp);
 8003b40:	69fb      	ldr	r3, [r7, #28]
 8003b42:	f1c3 0307 	rsb	r3, r3, #7
 8003b46:	2b04      	cmp	r3, #4
 8003b48:	bf28      	it	cs
 8003b4a:	2304      	movcs	r3, #4
 8003b4c:	61bb      	str	r3, [r7, #24]
  SubPriorityBits     = ((PriorityGroupTmp + (uint32_t)(__NVIC_PRIO_BITS)) < (uint32_t)7UL) ? (uint32_t)0UL : (uint32_t)((PriorityGroupTmp - 7UL) + (uint32_t)(__NVIC_PRIO_BITS));
 8003b4e:	69fb      	ldr	r3, [r7, #28]
 8003b50:	3304      	adds	r3, #4
 8003b52:	2b06      	cmp	r3, #6
 8003b54:	d902      	bls.n	8003b5c <NVIC_EncodePriority+0x30>
 8003b56:	69fb      	ldr	r3, [r7, #28]
 8003b58:	3b03      	subs	r3, #3
 8003b5a:	e000      	b.n	8003b5e <NVIC_EncodePriority+0x32>
 8003b5c:	2300      	movs	r3, #0
 8003b5e:	617b      	str	r3, [r7, #20]

  return (
           ((PreemptPriority & (uint32_t)((1UL << (PreemptPriorityBits)) - 1UL)) << SubPriorityBits) |
 8003b60:	f04f 32ff 	mov.w	r2, #4294967295
 8003b64:	69bb      	ldr	r3, [r7, #24]
 8003b66:	fa02 f303 	lsl.w	r3, r2, r3
 8003b6a:	43da      	mvns	r2, r3
 8003b6c:	68bb      	ldr	r3, [r7, #8]
 8003b6e:	401a      	ands	r2, r3
 8003b70:	697b      	ldr	r3, [r7, #20]
 8003b72:	409a      	lsls	r2, r3
           ((SubPriority     & (uint32_t)((1UL << (SubPriorityBits    )) - 1UL)))
 8003b74:	f04f 31ff 	mov.w	r1, #4294967295
 8003b78:	697b      	ldr	r3, [r7, #20]
 8003b7a:	fa01 f303 	lsl.w	r3, r1, r3
 8003b7e:	43d9      	mvns	r1, r3
 8003b80:	687b      	ldr	r3, [r7, #4]
 8003b82:	400b      	ands	r3, r1
           ((PreemptPriority & (uint32_t)((1UL << (PreemptPriorityBits)) - 1UL)) << SubPriorityBits) |
 8003b84:	4313      	orrs	r3, r2
         );
}
 8003b86:	4618      	mov	r0, r3
 8003b88:	3724      	adds	r7, #36	@ 0x24
 8003b8a:	46bd      	mov	sp, r7
 8003b8c:	f85d 7b04 	ldr.w	r7, [sp], #4
 8003b90:	4770      	bx	lr
	...

08003b94 <SysTick_Config>:
  \note    When the variable <b>__Vendor_SysTickConfig</b> is set to 1, then the
           function <b>SysTick_Config</b> is not included. In this case, the file <b><i>device</i>.h</b>
           must contain a vendor-specific implementation of this function.
 */
__STATIC_INLINE uint32_t SysTick_Config(uint32_t ticks)
{
 8003b94:	b580      	push	{r7, lr}
 8003b96:	b082      	sub	sp, #8
 8003b98:	af00      	add	r7, sp, #0
 8003b9a:	6078      	str	r0, [r7, #4]
  if ((ticks - 1UL) > SysTick_LOAD_RELOAD_Msk)
 8003b9c:	687b      	ldr	r3, [r7, #4]
 8003b9e:	3b01      	subs	r3, #1
 8003ba0:	f1b3 7f80 	cmp.w	r3, #16777216	@ 0x1000000
 8003ba4:	d301      	bcc.n	8003baa <SysTick_Config+0x16>
  {
    return (1UL);                                                   /* Reload value impossible */
 8003ba6:	2301      	movs	r3, #1
 8003ba8:	e00f      	b.n	8003bca <SysTick_Config+0x36>
  }

  SysTick->LOAD  = (uint32_t)(ticks - 1UL);                         /* set reload register */
 8003baa:	4a0a      	ldr	r2, [pc, #40]	@ (8003bd4 <SysTick_Config+0x40>)
 8003bac:	687b      	ldr	r3, [r7, #4]
 8003bae:	3b01      	subs	r3, #1
 8003bb0:	6053      	str	r3, [r2, #4]
  NVIC_SetPriority (SysTick_IRQn, (1UL << __NVIC_PRIO_BITS) - 1UL); /* set Priority for Systick Interrupt */
 8003bb2:	210f      	movs	r1, #15
 8003bb4:	f04f 30ff 	mov.w	r0, #4294967295
 8003bb8:	f7ff ff8e 	bl	8003ad8 <__NVIC_SetPriority>
  SysTick->VAL   = 0UL;                                             /* Load the SysTick Counter Value */
 8003bbc:	4b05      	ldr	r3, [pc, #20]	@ (8003bd4 <SysTick_Config+0x40>)
 8003bbe:	2200      	movs	r2, #0
 8003bc0:	609a      	str	r2, [r3, #8]
  SysTick->CTRL  = SysTick_CTRL_CLKSOURCE_Msk |
 8003bc2:	4b04      	ldr	r3, [pc, #16]	@ (8003bd4 <SysTick_Config+0x40>)
 8003bc4:	2207      	movs	r2, #7
 8003bc6:	601a      	str	r2, [r3, #0]
                   SysTick_CTRL_TICKINT_Msk   |
                   SysTick_CTRL_ENABLE_Msk;                         /* Enable SysTick IRQ and SysTick Timer */
  return (0UL);                                                     /* Function successful */
 8003bc8:	2300      	movs	r3, #0
}
 8003bca:	4618      	mov	r0, r3
 8003bcc:	3708      	adds	r7, #8
 8003bce:	46bd      	mov	sp, r7
 8003bd0:	bd80      	pop	{r7, pc}
 8003bd2:	bf00      	nop
 8003bd4:	e000e010 	.word	0xe000e010

08003bd8 <HAL_NVIC_SetPriorityGrouping>:
  * @note   When the NVIC_PriorityGroup_0 is selected, IRQ preemption is no more possible. 
  *         The pending IRQ priority will be managed only by the subpriority. 
  * @retval None
  */
void HAL_NVIC_SetPriorityGrouping(uint32_t PriorityGroup)
{
 8003bd8:	b580      	push	{r7, lr}
 8003bda:	b082      	sub	sp, #8
 8003bdc:	af00      	add	r7, sp, #0
 8003bde:	6078      	str	r0, [r7, #4]
  /* Check the parameters */
  assert_param(IS_NVIC_PRIORITY_GROUP(PriorityGroup));
  
  /* Set the PRIGROUP[10:8] bits according to the PriorityGroup parameter value */
  NVIC_SetPriorityGrouping(PriorityGroup);
 8003be0:	6878      	ldr	r0, [r7, #4]
 8003be2:	f7ff ff29 	bl	8003a38 <__NVIC_SetPriorityGrouping>
}
 8003be6:	bf00      	nop
 8003be8:	3708      	adds	r7, #8
 8003bea:	46bd      	mov	sp, r7
 8003bec:	bd80      	pop	{r7, pc}

08003bee <HAL_NVIC_SetPriority>:
  *         This parameter can be a value between 0 and 15
  *         A lower priority value indicates a higher priority.          
  * @retval None
  */
void HAL_NVIC_SetPriority(IRQn_Type IRQn, uint32_t PreemptPriority, uint32_t SubPriority)
{ 
 8003bee:	b580      	push	{r7, lr}
 8003bf0:	b086      	sub	sp, #24
 8003bf2:	af00      	add	r7, sp, #0
 8003bf4:	4603      	mov	r3, r0
 8003bf6:	60b9      	str	r1, [r7, #8]
 8003bf8:	607a      	str	r2, [r7, #4]
 8003bfa:	73fb      	strb	r3, [r7, #15]
  uint32_t prioritygroup = 0x00U;
 8003bfc:	2300      	movs	r3, #0
 8003bfe:	617b      	str	r3, [r7, #20]
  
  /* Check the parameters */
  assert_param(IS_NVIC_SUB_PRIORITY(SubPriority));
  assert_param(IS_NVIC_PREEMPTION_PRIORITY(PreemptPriority));
  
  prioritygroup = NVIC_GetPriorityGrouping();
 8003c00:	f7ff ff3e 	bl	8003a80 <__NVIC_GetPriorityGrouping>
 8003c04:	6178      	str	r0, [r7, #20]
  
  NVIC_SetPriority(IRQn, NVIC_EncodePriority(prioritygroup, PreemptPriority, SubPriority));
 8003c06:	687a      	ldr	r2, [r7, #4]
 8003c08:	68b9      	ldr	r1, [r7, #8]
 8003c0a:	6978      	ldr	r0, [r7, #20]
 8003c0c:	f7ff ff8e 	bl	8003b2c <NVIC_EncodePriority>
 8003c10:	4602      	mov	r2, r0
 8003c12:	f997 300f 	ldrsb.w	r3, [r7, #15]
 8003c16:	4611      	mov	r1, r2
 8003c18:	4618      	mov	r0, r3
 8003c1a:	f7ff ff5d 	bl	8003ad8 <__NVIC_SetPriority>
}
 8003c1e:	bf00      	nop
 8003c20:	3718      	adds	r7, #24
 8003c22:	46bd      	mov	sp, r7
 8003c24:	bd80      	pop	{r7, pc}

08003c26 <HAL_NVIC_EnableIRQ>:
  *         This parameter can be an enumerator of IRQn_Type enumeration
  *         (For the complete STM32 Devices IRQ Channels list, please refer to the appropriate CMSIS device file (stm32f4xxxx.h))
  * @retval None
  */
void HAL_NVIC_EnableIRQ(IRQn_Type IRQn)
{
 8003c26:	b580      	push	{r7, lr}
 8003c28:	b082      	sub	sp, #8
 8003c2a:	af00      	add	r7, sp, #0
 8003c2c:	4603      	mov	r3, r0
 8003c2e:	71fb      	strb	r3, [r7, #7]
  /* Check the parameters */
  assert_param(IS_NVIC_DEVICE_IRQ(IRQn));
  
  /* Enable interrupt */
  NVIC_EnableIRQ(IRQn);
 8003c30:	f997 3007 	ldrsb.w	r3, [r7, #7]
 8003c34:	4618      	mov	r0, r3
 8003c36:	f7ff ff31 	bl	8003a9c <__NVIC_EnableIRQ>
}
 8003c3a:	bf00      	nop
 8003c3c:	3708      	adds	r7, #8
 8003c3e:	46bd      	mov	sp, r7
 8003c40:	bd80      	pop	{r7, pc}

08003c42 <HAL_SYSTICK_Config>:
  * @param  TicksNumb Specifies the ticks Number of ticks between two interrupts.
  * @retval status:  - 0  Function succeeded.
  *                  - 1  Function failed.
  */
uint32_t HAL_SYSTICK_Config(uint32_t TicksNumb)
{
 8003c42:	b580      	push	{r7, lr}
 8003c44:	b082      	sub	sp, #8
 8003c46:	af00      	add	r7, sp, #0
 8003c48:	6078      	str	r0, [r7, #4]
   return SysTick_Config(TicksNumb);
 8003c4a:	6878      	ldr	r0, [r7, #4]
 8003c4c:	f7ff ffa2 	bl	8003b94 <SysTick_Config>
 8003c50:	4603      	mov	r3, r0
}
 8003c52:	4618      	mov	r0, r3
 8003c54:	3708      	adds	r7, #8
 8003c56:	46bd      	mov	sp, r7
 8003c58:	bd80      	pop	{r7, pc}
	...

08003c5c <HAL_GPIO_Init>:
  * @param  GPIO_Init pointer to a GPIO_InitTypeDef structure that contains
  *         the configuration information for the specified GPIO peripheral.
  * @retval None
  */
void HAL_GPIO_Init(GPIO_TypeDef  *GPIOx, GPIO_InitTypeDef *GPIO_Init)
{
 8003c5c:	b480      	push	{r7}
 8003c5e:	b089      	sub	sp, #36	@ 0x24
 8003c60:	af00      	add	r7, sp, #0
 8003c62:	6078      	str	r0, [r7, #4]
 8003c64:	6039      	str	r1, [r7, #0]
  uint32_t position;
  uint32_t ioposition = 0x00U;
 8003c66:	2300      	movs	r3, #0
 8003c68:	617b      	str	r3, [r7, #20]
  uint32_t iocurrent = 0x00U;
 8003c6a:	2300      	movs	r3, #0
 8003c6c:	613b      	str	r3, [r7, #16]
  uint32_t temp = 0x00U;
 8003c6e:	2300      	movs	r3, #0
 8003c70:	61bb      	str	r3, [r7, #24]
  assert_param(IS_GPIO_ALL_INSTANCE(GPIOx));
  assert_param(IS_GPIO_PIN(GPIO_Init->Pin));
  assert_param(IS_GPIO_MODE(GPIO_Init->Mode));

  /* Configure the port pins */
  for(position = 0U; position < GPIO_NUMBER; position++)
 8003c72:	2300      	movs	r3, #0
 8003c74:	61fb      	str	r3, [r7, #28]
 8003c76:	e16b      	b.n	8003f50 <HAL_GPIO_Init+0x2f4>
  {
    /* Get the IO position */
    ioposition = 0x01U << position;
 8003c78:	2201      	movs	r2, #1
 8003c7a:	69fb      	ldr	r3, [r7, #28]
 8003c7c:	fa02 f303 	lsl.w	r3, r2, r3
 8003c80:	617b      	str	r3, [r7, #20]
    /* Get the current IO position */
    iocurrent = (uint32_t)(GPIO_Init->Pin) & ioposition;
 8003c82:	683b      	ldr	r3, [r7, #0]
 8003c84:	681b      	ldr	r3, [r3, #0]
 8003c86:	697a      	ldr	r2, [r7, #20]
 8003c88:	4013      	ands	r3, r2
 8003c8a:	613b      	str	r3, [r7, #16]

    if(iocurrent == ioposition)
 8003c8c:	693a      	ldr	r2, [r7, #16]
 8003c8e:	697b      	ldr	r3, [r7, #20]
 8003c90:	429a      	cmp	r2, r3
 8003c92:	f040 815a 	bne.w	8003f4a <HAL_GPIO_Init+0x2ee>
    {
      /*--------------------- GPIO Mode Configuration ------------------------*/
      /* In case of Output or Alternate function mode selection */
      if(((GPIO_Init->Mode & GPIO_MODE) == MODE_OUTPUT) || \
 8003c96:	683b      	ldr	r3, [r7, #0]
 8003c98:	685b      	ldr	r3, [r3, #4]
 8003c9a:	f003 0303 	and.w	r3, r3, #3
 8003c9e:	2b01      	cmp	r3, #1
 8003ca0:	d005      	beq.n	8003cae <HAL_GPIO_Init+0x52>
          (GPIO_Init->Mode & GPIO_MODE) == MODE_AF)
 8003ca2:	683b      	ldr	r3, [r7, #0]
 8003ca4:	685b      	ldr	r3, [r3, #4]
 8003ca6:	f003 0303 	and.w	r3, r3, #3
      if(((GPIO_Init->Mode & GPIO_MODE) == MODE_OUTPUT) || \
 8003caa:	2b02      	cmp	r3, #2
 8003cac:	d130      	bne.n	8003d10 <HAL_GPIO_Init+0xb4>
      {
        /* Check the Speed parameter */
        assert_param(IS_GPIO_SPEED(GPIO_Init->Speed));
        /* Configure the IO Speed */
        temp = GPIOx->OSPEEDR; 
 8003cae:	687b      	ldr	r3, [r7, #4]
 8003cb0:	689b      	ldr	r3, [r3, #8]
 8003cb2:	61bb      	str	r3, [r7, #24]
        temp &= ~(GPIO_OSPEEDER_OSPEEDR0 << (position * 2U));
 8003cb4:	69fb      	ldr	r3, [r7, #28]
 8003cb6:	005b      	lsls	r3, r3, #1
 8003cb8:	2203      	movs	r2, #3
 8003cba:	fa02 f303 	lsl.w	r3, r2, r3
 8003cbe:	43db      	mvns	r3, r3
 8003cc0:	69ba      	ldr	r2, [r7, #24]
 8003cc2:	4013      	ands	r3, r2
 8003cc4:	61bb      	str	r3, [r7, #24]
        temp |= (GPIO_Init->Speed << (position * 2U));
 8003cc6:	683b      	ldr	r3, [r7, #0]
 8003cc8:	68da      	ldr	r2, [r3, #12]
 8003cca:	69fb      	ldr	r3, [r7, #28]
 8003ccc:	005b      	lsls	r3, r3, #1
 8003cce:	fa02 f303 	lsl.w	r3, r2, r3
 8003cd2:	69ba      	ldr	r2, [r7, #24]
 8003cd4:	4313      	orrs	r3, r2
 8003cd6:	61bb      	str	r3, [r7, #24]
        GPIOx->OSPEEDR = temp;
 8003cd8:	687b      	ldr	r3, [r7, #4]
 8003cda:	69ba      	ldr	r2, [r7, #24]
 8003cdc:	609a      	str	r2, [r3, #8]

        /* Configure the IO Output Type */
        temp = GPIOx->OTYPER;
 8003cde:	687b      	ldr	r3, [r7, #4]
 8003ce0:	685b      	ldr	r3, [r3, #4]
 8003ce2:	61bb      	str	r3, [r7, #24]
        temp &= ~(GPIO_OTYPER_OT_0 << position) ;
 8003ce4:	2201      	movs	r2, #1
 8003ce6:	69fb      	ldr	r3, [r7, #28]
 8003ce8:	fa02 f303 	lsl.w	r3, r2, r3
 8003cec:	43db      	mvns	r3, r3
 8003cee:	69ba      	ldr	r2, [r7, #24]
 8003cf0:	4013      	ands	r3, r2
 8003cf2:	61bb      	str	r3, [r7, #24]
        temp |= (((GPIO_Init->Mode & OUTPUT_TYPE) >> OUTPUT_TYPE_Pos) << position);
 8003cf4:	683b      	ldr	r3, [r7, #0]
 8003cf6:	685b      	ldr	r3, [r3, #4]
 8003cf8:	091b      	lsrs	r3, r3, #4
 8003cfa:	f003 0201 	and.w	r2, r3, #1
 8003cfe:	69fb      	ldr	r3, [r7, #28]
 8003d00:	fa02 f303 	lsl.w	r3, r2, r3
 8003d04:	69ba      	ldr	r2, [r7, #24]
 8003d06:	4313      	orrs	r3, r2
 8003d08:	61bb      	str	r3, [r7, #24]
        GPIOx->OTYPER = temp;
 8003d0a:	687b      	ldr	r3, [r7, #4]
 8003d0c:	69ba      	ldr	r2, [r7, #24]
 8003d0e:	605a      	str	r2, [r3, #4]
       }

      if((GPIO_Init->Mode & GPIO_MODE) != MODE_ANALOG)
 8003d10:	683b      	ldr	r3, [r7, #0]
 8003d12:	685b      	ldr	r3, [r3, #4]
 8003d14:	f003 0303 	and.w	r3, r3, #3
 8003d18:	2b03      	cmp	r3, #3
 8003d1a:	d017      	beq.n	8003d4c <HAL_GPIO_Init+0xf0>
      {
        /* Check the parameters */
        assert_param(IS_GPIO_PULL(GPIO_Init->Pull));
        
        /* Activate the Pull-up or Pull down resistor for the current IO */
        temp = GPIOx->PUPDR;
 8003d1c:	687b      	ldr	r3, [r7, #4]
 8003d1e:	68db      	ldr	r3, [r3, #12]
 8003d20:	61bb      	str	r3, [r7, #24]
        temp &= ~(GPIO_PUPDR_PUPDR0 << (position * 2U));
 8003d22:	69fb      	ldr	r3, [r7, #28]
 8003d24:	005b      	lsls	r3, r3, #1
 8003d26:	2203      	movs	r2, #3
 8003d28:	fa02 f303 	lsl.w	r3, r2, r3
 8003d2c:	43db      	mvns	r3, r3
 8003d2e:	69ba      	ldr	r2, [r7, #24]
 8003d30:	4013      	ands	r3, r2
 8003d32:	61bb      	str	r3, [r7, #24]
        temp |= ((GPIO_Init->Pull) << (position * 2U));
 8003d34:	683b      	ldr	r3, [r7, #0]
 8003d36:	689a      	ldr	r2, [r3, #8]
 8003d38:	69fb      	ldr	r3, [r7, #28]
 8003d3a:	005b      	lsls	r3, r3, #1
 8003d3c:	fa02 f303 	lsl.w	r3, r2, r3
 8003d40:	69ba      	ldr	r2, [r7, #24]
 8003d42:	4313      	orrs	r3, r2
 8003d44:	61bb      	str	r3, [r7, #24]
        GPIOx->PUPDR = temp;
 8003d46:	687b      	ldr	r3, [r7, #4]
 8003d48:	69ba      	ldr	r2, [r7, #24]
 8003d4a:	60da      	str	r2, [r3, #12]
      }

      /* In case of Alternate function mode selection */
      if((GPIO_Init->Mode & GPIO_MODE) == MODE_AF)
 8003d4c:	683b      	ldr	r3, [r7, #0]
 8003d4e:	685b      	ldr	r3, [r3, #4]
 8003d50:	f003 0303 	and.w	r3, r3, #3
 8003d54:	2b02      	cmp	r3, #2
 8003d56:	d123      	bne.n	8003da0 <HAL_GPIO_Init+0x144>
      {
        /* Check the Alternate function parameter */
        assert_param(IS_GPIO_AF(GPIO_Init->Alternate));
        /* Configure Alternate function mapped with the current IO */
        temp = GPIOx->AFR[position >> 3U];
 8003d58:	69fb      	ldr	r3, [r7, #28]
 8003d5a:	08da      	lsrs	r2, r3, #3
 8003d5c:	687b      	ldr	r3, [r7, #4]
 8003d5e:	3208      	adds	r2, #8
 8003d60:	f853 3022 	ldr.w	r3, [r3, r2, lsl #2]
 8003d64:	61bb      	str	r3, [r7, #24]
        temp &= ~(0xFU << ((uint32_t)(position & 0x07U) * 4U)) ;
 8003d66:	69fb      	ldr	r3, [r7, #28]
 8003d68:	f003 0307 	and.w	r3, r3, #7
 8003d6c:	009b      	lsls	r3, r3, #2
 8003d6e:	220f      	movs	r2, #15
 8003d70:	fa02 f303 	lsl.w	r3, r2, r3
 8003d74:	43db      	mvns	r3, r3
 8003d76:	69ba      	ldr	r2, [r7, #24]
 8003d78:	4013      	ands	r3, r2
 8003d7a:	61bb      	str	r3, [r7, #24]
        temp |= ((uint32_t)(GPIO_Init->Alternate) << (((uint32_t)position & 0x07U) * 4U));
 8003d7c:	683b      	ldr	r3, [r7, #0]
 8003d7e:	691a      	ldr	r2, [r3, #16]
 8003d80:	69fb      	ldr	r3, [r7, #28]
 8003d82:	f003 0307 	and.w	r3, r3, #7
 8003d86:	009b      	lsls	r3, r3, #2
 8003d88:	fa02 f303 	lsl.w	r3, r2, r3
 8003d8c:	69ba      	ldr	r2, [r7, #24]
 8003d8e:	4313      	orrs	r3, r2
 8003d90:	61bb      	str	r3, [r7, #24]
        GPIOx->AFR[position >> 3U] = temp;
 8003d92:	69fb      	ldr	r3, [r7, #28]
 8003d94:	08da      	lsrs	r2, r3, #3
 8003d96:	687b      	ldr	r3, [r7, #4]
 8003d98:	3208      	adds	r2, #8
 8003d9a:	69b9      	ldr	r1, [r7, #24]
 8003d9c:	f843 1022 	str.w	r1, [r3, r2, lsl #2]
      }

      /* Configure IO Direction mode (Input, Output, Alternate or Analog) */
      temp = GPIOx->MODER;
 8003da0:	687b      	ldr	r3, [r7, #4]
 8003da2:	681b      	ldr	r3, [r3, #0]
 8003da4:	61bb      	str	r3, [r7, #24]
      temp &= ~(GPIO_MODER_MODER0 << (position * 2U));
 8003da6:	69fb      	ldr	r3, [r7, #28]
 8003da8:	005b      	lsls	r3, r3, #1
 8003daa:	2203      	movs	r2, #3
 8003dac:	fa02 f303 	lsl.w	r3, r2, r3
 8003db0:	43db      	mvns	r3, r3
 8003db2:	69ba      	ldr	r2, [r7, #24]
 8003db4:	4013      	ands	r3, r2
 8003db6:	61bb      	str	r3, [r7, #24]
      temp |= ((GPIO_Init->Mode & GPIO_MODE) << (position * 2U));
 8003db8:	683b      	ldr	r3, [r7, #0]
 8003dba:	685b      	ldr	r3, [r3, #4]
 8003dbc:	f003 0203 	and.w	r2, r3, #3
 8003dc0:	69fb      	ldr	r3, [r7, #28]
 8003dc2:	005b      	lsls	r3, r3, #1
 8003dc4:	fa02 f303 	lsl.w	r3, r2, r3
 8003dc8:	69ba      	ldr	r2, [r7, #24]
 8003dca:	4313      	orrs	r3, r2
 8003dcc:	61bb      	str	r3, [r7, #24]
      GPIOx->MODER = temp;
 8003dce:	687b      	ldr	r3, [r7, #4]
 8003dd0:	69ba      	ldr	r2, [r7, #24]
 8003dd2:	601a      	str	r2, [r3, #0]

      /*--------------------- EXTI Mode Configuration ------------------------*/
      /* Configure the External Interrupt or event for the current IO */
      if((GPIO_Init->Mode & EXTI_MODE) != 0x00U)
 8003dd4:	683b      	ldr	r3, [r7, #0]
 8003dd6:	685b      	ldr	r3, [r3, #4]
 8003dd8:	f403 3340 	and.w	r3, r3, #196608	@ 0x30000
 8003ddc:	2b00      	cmp	r3, #0
 8003dde:	f000 80b4 	beq.w	8003f4a <HAL_GPIO_Init+0x2ee>
      {
        /* Enable SYSCFG Clock */
        __HAL_RCC_SYSCFG_CLK_ENABLE();
 8003de2:	2300      	movs	r3, #0
 8003de4:	60fb      	str	r3, [r7, #12]
 8003de6:	4b60      	ldr	r3, [pc, #384]	@ (8003f68 <HAL_GPIO_Init+0x30c>)
 8003de8:	6c5b      	ldr	r3, [r3, #68]	@ 0x44
 8003dea:	4a5f      	ldr	r2, [pc, #380]	@ (8003f68 <HAL_GPIO_Init+0x30c>)
 8003dec:	f443 4380 	orr.w	r3, r3, #16384	@ 0x4000
 8003df0:	6453      	str	r3, [r2, #68]	@ 0x44
 8003df2:	4b5d      	ldr	r3, [pc, #372]	@ (8003f68 <HAL_GPIO_Init+0x30c>)
 8003df4:	6c5b      	ldr	r3, [r3, #68]	@ 0x44
 8003df6:	f403 4380 	and.w	r3, r3, #16384	@ 0x4000
 8003dfa:	60fb      	str	r3, [r7, #12]
 8003dfc:	68fb      	ldr	r3, [r7, #12]

        temp = SYSCFG->EXTICR[position >> 2U];
 8003dfe:	4a5b      	ldr	r2, [pc, #364]	@ (8003f6c <HAL_GPIO_Init+0x310>)
 8003e00:	69fb      	ldr	r3, [r7, #28]
 8003e02:	089b      	lsrs	r3, r3, #2
 8003e04:	3302      	adds	r3, #2
 8003e06:	f852 3023 	ldr.w	r3, [r2, r3, lsl #2]
 8003e0a:	61bb      	str	r3, [r7, #24]
        temp &= ~(0x0FU << (4U * (position & 0x03U)));
 8003e0c:	69fb      	ldr	r3, [r7, #28]
 8003e0e:	f003 0303 	and.w	r3, r3, #3
 8003e12:	009b      	lsls	r3, r3, #2
 8003e14:	220f      	movs	r2, #15
 8003e16:	fa02 f303 	lsl.w	r3, r2, r3
 8003e1a:	43db      	mvns	r3, r3
 8003e1c:	69ba      	ldr	r2, [r7, #24]
 8003e1e:	4013      	ands	r3, r2
 8003e20:	61bb      	str	r3, [r7, #24]
        temp |= ((uint32_t)(GPIO_GET_INDEX(GPIOx)) << (4U * (position & 0x03U)));
 8003e22:	687b      	ldr	r3, [r7, #4]
 8003e24:	4a52      	ldr	r2, [pc, #328]	@ (8003f70 <HAL_GPIO_Init+0x314>)
 8003e26:	4293      	cmp	r3, r2
 8003e28:	d02b      	beq.n	8003e82 <HAL_GPIO_Init+0x226>
 8003e2a:	687b      	ldr	r3, [r7, #4]
 8003e2c:	4a51      	ldr	r2, [pc, #324]	@ (8003f74 <HAL_GPIO_Init+0x318>)
 8003e2e:	4293      	cmp	r3, r2
 8003e30:	d025      	beq.n	8003e7e <HAL_GPIO_Init+0x222>
 8003e32:	687b      	ldr	r3, [r7, #4]
 8003e34:	4a50      	ldr	r2, [pc, #320]	@ (8003f78 <HAL_GPIO_Init+0x31c>)
 8003e36:	4293      	cmp	r3, r2
 8003e38:	d01f      	beq.n	8003e7a <HAL_GPIO_Init+0x21e>
 8003e3a:	687b      	ldr	r3, [r7, #4]
 8003e3c:	4a4f      	ldr	r2, [pc, #316]	@ (8003f7c <HAL_GPIO_Init+0x320>)
 8003e3e:	4293      	cmp	r3, r2
 8003e40:	d019      	beq.n	8003e76 <HAL_GPIO_Init+0x21a>
 8003e42:	687b      	ldr	r3, [r7, #4]
 8003e44:	4a4e      	ldr	r2, [pc, #312]	@ (8003f80 <HAL_GPIO_Init+0x324>)
 8003e46:	4293      	cmp	r3, r2
 8003e48:	d013      	beq.n	8003e72 <HAL_GPIO_Init+0x216>
 8003e4a:	687b      	ldr	r3, [r7, #4]
 8003e4c:	4a4d      	ldr	r2, [pc, #308]	@ (8003f84 <HAL_GPIO_Init+0x328>)
 8003e4e:	4293      	cmp	r3, r2
 8003e50:	d00d      	beq.n	8003e6e <HAL_GPIO_Init+0x212>
 8003e52:	687b      	ldr	r3, [r7, #4]
 8003e54:	4a4c      	ldr	r2, [pc, #304]	@ (8003f88 <HAL_GPIO_Init+0x32c>)
 8003e56:	4293      	cmp	r3, r2
 8003e58:	d007      	beq.n	8003e6a <HAL_GPIO_Init+0x20e>
 8003e5a:	687b      	ldr	r3, [r7, #4]
 8003e5c:	4a4b      	ldr	r2, [pc, #300]	@ (8003f8c <HAL_GPIO_Init+0x330>)
 8003e5e:	4293      	cmp	r3, r2
 8003e60:	d101      	bne.n	8003e66 <HAL_GPIO_Init+0x20a>
 8003e62:	2307      	movs	r3, #7
 8003e64:	e00e      	b.n	8003e84 <HAL_GPIO_Init+0x228>
 8003e66:	2308      	movs	r3, #8
 8003e68:	e00c      	b.n	8003e84 <HAL_GPIO_Init+0x228>
 8003e6a:	2306      	movs	r3, #6
 8003e6c:	e00a      	b.n	8003e84 <HAL_GPIO_Init+0x228>
 8003e6e:	2305      	movs	r3, #5
 8003e70:	e008      	b.n	8003e84 <HAL_GPIO_Init+0x228>
 8003e72:	2304      	movs	r3, #4
 8003e74:	e006      	b.n	8003e84 <HAL_GPIO_Init+0x228>
 8003e76:	2303      	movs	r3, #3
 8003e78:	e004      	b.n	8003e84 <HAL_GPIO_Init+0x228>
 8003e7a:	2302      	movs	r3, #2
 8003e7c:	e002      	b.n	8003e84 <HAL_GPIO_Init+0x228>
 8003e7e:	2301      	movs	r3, #1
 8003e80:	e000      	b.n	8003e84 <HAL_GPIO_Init+0x228>
 8003e82:	2300      	movs	r3, #0
 8003e84:	69fa      	ldr	r2, [r7, #28]
 8003e86:	f002 0203 	and.w	r2, r2, #3
 8003e8a:	0092      	lsls	r2, r2, #2
 8003e8c:	4093      	lsls	r3, r2
 8003e8e:	69ba      	ldr	r2, [r7, #24]
 8003e90:	4313      	orrs	r3, r2
 8003e92:	61bb      	str	r3, [r7, #24]
        SYSCFG->EXTICR[position >> 2U] = temp;
 8003e94:	4935      	ldr	r1, [pc, #212]	@ (8003f6c <HAL_GPIO_Init+0x310>)
 8003e96:	69fb      	ldr	r3, [r7, #28]
 8003e98:	089b      	lsrs	r3, r3, #2
 8003e9a:	3302      	adds	r3, #2
 8003e9c:	69ba      	ldr	r2, [r7, #24]
 8003e9e:	f841 2023 	str.w	r2, [r1, r3, lsl #2]

        /* Clear Rising Falling edge configuration */
        temp = EXTI->RTSR;
 8003ea2:	4b3b      	ldr	r3, [pc, #236]	@ (8003f90 <HAL_GPIO_Init+0x334>)
 8003ea4:	689b      	ldr	r3, [r3, #8]
 8003ea6:	61bb      	str	r3, [r7, #24]
        temp &= ~((uint32_t)iocurrent);
 8003ea8:	693b      	ldr	r3, [r7, #16]
 8003eaa:	43db      	mvns	r3, r3
 8003eac:	69ba      	ldr	r2, [r7, #24]
 8003eae:	4013      	ands	r3, r2
 8003eb0:	61bb      	str	r3, [r7, #24]
        if((GPIO_Init->Mode & TRIGGER_RISING) != 0x00U)
 8003eb2:	683b      	ldr	r3, [r7, #0]
 8003eb4:	685b      	ldr	r3, [r3, #4]
 8003eb6:	f403 1380 	and.w	r3, r3, #1048576	@ 0x100000
 8003eba:	2b00      	cmp	r3, #0
 8003ebc:	d003      	beq.n	8003ec6 <HAL_GPIO_Init+0x26a>
        {
          temp |= iocurrent;
 8003ebe:	69ba      	ldr	r2, [r7, #24]
 8003ec0:	693b      	ldr	r3, [r7, #16]
 8003ec2:	4313      	orrs	r3, r2
 8003ec4:	61bb      	str	r3, [r7, #24]
        }
        EXTI->RTSR = temp;
 8003ec6:	4a32      	ldr	r2, [pc, #200]	@ (8003f90 <HAL_GPIO_Init+0x334>)
 8003ec8:	69bb      	ldr	r3, [r7, #24]
 8003eca:	6093      	str	r3, [r2, #8]

        temp = EXTI->FTSR;
 8003ecc:	4b30      	ldr	r3, [pc, #192]	@ (8003f90 <HAL_GPIO_Init+0x334>)
 8003ece:	68db      	ldr	r3, [r3, #12]
 8003ed0:	61bb      	str	r3, [r7, #24]
        temp &= ~((uint32_t)iocurrent);
 8003ed2:	693b      	ldr	r3, [r7, #16]
 8003ed4:	43db      	mvns	r3, r3
 8003ed6:	69ba      	ldr	r2, [r7, #24]
 8003ed8:	4013      	ands	r3, r2
 8003eda:	61bb      	str	r3, [r7, #24]
        if((GPIO_Init->Mode & TRIGGER_FALLING) != 0x00U)
 8003edc:	683b      	ldr	r3, [r7, #0]
 8003ede:	685b      	ldr	r3, [r3, #4]
 8003ee0:	f403 1300 	and.w	r3, r3, #2097152	@ 0x200000
 8003ee4:	2b00      	cmp	r3, #0
 8003ee6:	d003      	beq.n	8003ef0 <HAL_GPIO_Init+0x294>
        {
          temp |= iocurrent;
 8003ee8:	69ba      	ldr	r2, [r7, #24]
 8003eea:	693b      	ldr	r3, [r7, #16]
 8003eec:	4313      	orrs	r3, r2
 8003eee:	61bb      	str	r3, [r7, #24]
        }
        EXTI->FTSR = temp;
 8003ef0:	4a27      	ldr	r2, [pc, #156]	@ (8003f90 <HAL_GPIO_Init+0x334>)
 8003ef2:	69bb      	ldr	r3, [r7, #24]
 8003ef4:	60d3      	str	r3, [r2, #12]

        temp = EXTI->EMR;
 8003ef6:	4b26      	ldr	r3, [pc, #152]	@ (8003f90 <HAL_GPIO_Init+0x334>)
 8003ef8:	685b      	ldr	r3, [r3, #4]
 8003efa:	61bb      	str	r3, [r7, #24]
        temp &= ~((uint32_t)iocurrent);
 8003efc:	693b      	ldr	r3, [r7, #16]
 8003efe:	43db      	mvns	r3, r3
 8003f00:	69ba      	ldr	r2, [r7, #24]
 8003f02:	4013      	ands	r3, r2
 8003f04:	61bb      	str	r3, [r7, #24]
        if((GPIO_Init->Mode & EXTI_EVT) != 0x00U)
 8003f06:	683b      	ldr	r3, [r7, #0]
 8003f08:	685b      	ldr	r3, [r3, #4]
 8003f0a:	f403 3300 	and.w	r3, r3, #131072	@ 0x20000
 8003f0e:	2b00      	cmp	r3, #0
 8003f10:	d003      	beq.n	8003f1a <HAL_GPIO_Init+0x2be>
        {
          temp |= iocurrent;
 8003f12:	69ba      	ldr	r2, [r7, #24]
 8003f14:	693b      	ldr	r3, [r7, #16]
 8003f16:	4313      	orrs	r3, r2
 8003f18:	61bb      	str	r3, [r7, #24]
        }
        EXTI->EMR = temp;
 8003f1a:	4a1d      	ldr	r2, [pc, #116]	@ (8003f90 <HAL_GPIO_Init+0x334>)
 8003f1c:	69bb      	ldr	r3, [r7, #24]
 8003f1e:	6053      	str	r3, [r2, #4]

        /* Clear EXTI line configuration */
        temp = EXTI->IMR;
 8003f20:	4b1b      	ldr	r3, [pc, #108]	@ (8003f90 <HAL_GPIO_Init+0x334>)
 8003f22:	681b      	ldr	r3, [r3, #0]
 8003f24:	61bb      	str	r3, [r7, #24]
        temp &= ~((uint32_t)iocurrent);
 8003f26:	693b      	ldr	r3, [r7, #16]
 8003f28:	43db      	mvns	r3, r3
 8003f2a:	69ba      	ldr	r2, [r7, #24]
 8003f2c:	4013      	ands	r3, r2
 8003f2e:	61bb      	str	r3, [r7, #24]
        if((GPIO_Init->Mode & EXTI_IT) != 0x00U)
 8003f30:	683b      	ldr	r3, [r7, #0]
 8003f32:	685b      	ldr	r3, [r3, #4]
 8003f34:	f403 3380 	and.w	r3, r3, #65536	@ 0x10000
 8003f38:	2b00      	cmp	r3, #0
 8003f3a:	d003      	beq.n	8003f44 <HAL_GPIO_Init+0x2e8>
        {
          temp |= iocurrent;
 8003f3c:	69ba      	ldr	r2, [r7, #24]
 8003f3e:	693b      	ldr	r3, [r7, #16]
 8003f40:	4313      	orrs	r3, r2
 8003f42:	61bb      	str	r3, [r7, #24]
        }
        EXTI->IMR = temp;
 8003f44:	4a12      	ldr	r2, [pc, #72]	@ (8003f90 <HAL_GPIO_Init+0x334>)
 8003f46:	69bb      	ldr	r3, [r7, #24]
 8003f48:	6013      	str	r3, [r2, #0]
  for(position = 0U; position < GPIO_NUMBER; position++)
 8003f4a:	69fb      	ldr	r3, [r7, #28]
 8003f4c:	3301      	adds	r3, #1
 8003f4e:	61fb      	str	r3, [r7, #28]
 8003f50:	69fb      	ldr	r3, [r7, #28]
 8003f52:	2b0f      	cmp	r3, #15
 8003f54:	f67f ae90 	bls.w	8003c78 <HAL_GPIO_Init+0x1c>
      }
    }
  }
}
 8003f58:	bf00      	nop
 8003f5a:	bf00      	nop
 8003f5c:	3724      	adds	r7, #36	@ 0x24
 8003f5e:	46bd      	mov	sp, r7
 8003f60:	f85d 7b04 	ldr.w	r7, [sp], #4
 8003f64:	4770      	bx	lr
 8003f66:	bf00      	nop
 8003f68:	40023800 	.word	0x40023800
 8003f6c:	40013800 	.word	0x40013800
 8003f70:	40020000 	.word	0x40020000
 8003f74:	40020400 	.word	0x40020400
 8003f78:	40020800 	.word	0x40020800
 8003f7c:	40020c00 	.word	0x40020c00
 8003f80:	40021000 	.word	0x40021000
 8003f84:	40021400 	.word	0x40021400
 8003f88:	40021800 	.word	0x40021800
 8003f8c:	40021c00 	.word	0x40021c00
 8003f90:	40013c00 	.word	0x40013c00

08003f94 <HAL_GPIO_ReadPin>:
  * @param  GPIO_Pin specifies the port bit to read.
  *         This parameter can be GPIO_PIN_x where x can be (0..15).
  * @retval The input port pin value.
  */
GPIO_PinState HAL_GPIO_ReadPin(GPIO_TypeDef* GPIOx, uint16_t GPIO_Pin)
{
 8003f94:	b480      	push	{r7}
 8003f96:	b085      	sub	sp, #20
 8003f98:	af00      	add	r7, sp, #0
 8003f9a:	6078      	str	r0, [r7, #4]
 8003f9c:	460b      	mov	r3, r1
 8003f9e:	807b      	strh	r3, [r7, #2]
  GPIO_PinState bitstatus;

  /* Check the parameters */
  assert_param(IS_GPIO_PIN(GPIO_Pin));

  if((GPIOx->IDR & GPIO_Pin) != (uint32_t)GPIO_PIN_RESET)
 8003fa0:	687b      	ldr	r3, [r7, #4]
 8003fa2:	691a      	ldr	r2, [r3, #16]
 8003fa4:	887b      	ldrh	r3, [r7, #2]
 8003fa6:	4013      	ands	r3, r2
 8003fa8:	2b00      	cmp	r3, #0
 8003faa:	d002      	beq.n	8003fb2 <HAL_GPIO_ReadPin+0x1e>
  {
    bitstatus = GPIO_PIN_SET;
 8003fac:	2301      	movs	r3, #1
 8003fae:	73fb      	strb	r3, [r7, #15]
 8003fb0:	e001      	b.n	8003fb6 <HAL_GPIO_ReadPin+0x22>
  }
  else
  {
    bitstatus = GPIO_PIN_RESET;
 8003fb2:	2300      	movs	r3, #0
 8003fb4:	73fb      	strb	r3, [r7, #15]
  }
  return bitstatus;
 8003fb6:	7bfb      	ldrb	r3, [r7, #15]
}
 8003fb8:	4618      	mov	r0, r3
 8003fba:	3714      	adds	r7, #20
 8003fbc:	46bd      	mov	sp, r7
 8003fbe:	f85d 7b04 	ldr.w	r7, [sp], #4
 8003fc2:	4770      	bx	lr

08003fc4 <HAL_GPIO_WritePin>:
  *            @arg GPIO_PIN_RESET: to clear the port pin
  *            @arg GPIO_PIN_SET: to set the port pin
  * @retval None
  */
void HAL_GPIO_WritePin(GPIO_TypeDef* GPIOx, uint16_t GPIO_Pin, GPIO_PinState PinState)
{
 8003fc4:	b480      	push	{r7}
 8003fc6:	b083      	sub	sp, #12
 8003fc8:	af00      	add	r7, sp, #0
 8003fca:	6078      	str	r0, [r7, #4]
 8003fcc:	460b      	mov	r3, r1
 8003fce:	807b      	strh	r3, [r7, #2]
 8003fd0:	4613      	mov	r3, r2
 8003fd2:	707b      	strb	r3, [r7, #1]
  /* Check the parameters */
  assert_param(IS_GPIO_PIN(GPIO_Pin));
  assert_param(IS_GPIO_PIN_ACTION(PinState));

  if(PinState != GPIO_PIN_RESET)
 8003fd4:	787b      	ldrb	r3, [r7, #1]
 8003fd6:	2b00      	cmp	r3, #0
 8003fd8:	d003      	beq.n	8003fe2 <HAL_GPIO_WritePin+0x1e>
  {
    GPIOx->BSRR = GPIO_Pin;
 8003fda:	887a      	ldrh	r2, [r7, #2]
 8003fdc:	687b      	ldr	r3, [r7, #4]
 8003fde:	619a      	str	r2, [r3, #24]
  }
  else
  {
    GPIOx->BSRR = (uint32_t)GPIO_Pin << 16U;
  }
}
 8003fe0:	e003      	b.n	8003fea <HAL_GPIO_WritePin+0x26>
    GPIOx->BSRR = (uint32_t)GPIO_Pin << 16U;
 8003fe2:	887b      	ldrh	r3, [r7, #2]
 8003fe4:	041a      	lsls	r2, r3, #16
 8003fe6:	687b      	ldr	r3, [r7, #4]
 8003fe8:	619a      	str	r2, [r3, #24]
}
 8003fea:	bf00      	nop
 8003fec:	370c      	adds	r7, #12
 8003fee:	46bd      	mov	sp, r7
 8003ff0:	f85d 7b04 	ldr.w	r7, [sp], #4
 8003ff4:	4770      	bx	lr
	...

08003ff8 <HAL_GPIO_EXTI_IRQHandler>:
  * @brief  This function handles EXTI interrupt request.
  * @param  GPIO_Pin Specifies the pins connected EXTI line
  * @retval None
  */
void HAL_GPIO_EXTI_IRQHandler(uint16_t GPIO_Pin)
{
 8003ff8:	b580      	push	{r7, lr}
 8003ffa:	b082      	sub	sp, #8
 8003ffc:	af00      	add	r7, sp, #0
 8003ffe:	4603      	mov	r3, r0
 8004000:	80fb      	strh	r3, [r7, #6]
  /* EXTI line interrupt detected */
  if(__HAL_GPIO_EXTI_GET_IT(GPIO_Pin) != RESET)
 8004002:	4b08      	ldr	r3, [pc, #32]	@ (8004024 <HAL_GPIO_EXTI_IRQHandler+0x2c>)
 8004004:	695a      	ldr	r2, [r3, #20]
 8004006:	88fb      	ldrh	r3, [r7, #6]
 8004008:	4013      	ands	r3, r2
 800400a:	2b00      	cmp	r3, #0
 800400c:	d006      	beq.n	800401c <HAL_GPIO_EXTI_IRQHandler+0x24>
  {
    __HAL_GPIO_EXTI_CLEAR_IT(GPIO_Pin);
 800400e:	4a05      	ldr	r2, [pc, #20]	@ (8004024 <HAL_GPIO_EXTI_IRQHandler+0x2c>)
 8004010:	88fb      	ldrh	r3, [r7, #6]
 8004012:	6153      	str	r3, [r2, #20]
    HAL_GPIO_EXTI_Callback(GPIO_Pin);
 8004014:	88fb      	ldrh	r3, [r7, #6]
 8004016:	4618      	mov	r0, r3
 8004018:	f7fd ffe6 	bl	8001fe8 <HAL_GPIO_EXTI_Callback>
  }
}
 800401c:	bf00      	nop
 800401e:	3708      	adds	r7, #8
 8004020:	46bd      	mov	sp, r7
 8004022:	bd80      	pop	{r7, pc}
 8004024:	40013c00 	.word	0x40013c00

08004028 <HAL_RCC_OscConfig>:
  *         supported by this API. User should request a transition to HSE Off
  *         first and then HSE On or HSE Bypass.
  * @retval HAL status
  */
__weak HAL_StatusTypeDef HAL_RCC_OscConfig(const RCC_OscInitTypeDef  *RCC_OscInitStruct)
{
 8004028:	b580      	push	{r7, lr}
 800402a:	b086      	sub	sp, #24
 800402c:	af00      	add	r7, sp, #0
 800402e:	6078      	str	r0, [r7, #4]
  uint32_t tickstart;
  uint32_t pll_config;
  /* Check Null pointer */
  if (RCC_OscInitStruct == NULL)
 8004030:	687b      	ldr	r3, [r7, #4]
 8004032:	2b00      	cmp	r3, #0
 8004034:	d101      	bne.n	800403a <HAL_RCC_OscConfig+0x12>
  {
    return HAL_ERROR;
 8004036:	2301      	movs	r3, #1
 8004038:	e267      	b.n	800450a <HAL_RCC_OscConfig+0x4e2>
  }

  /* Check the parameters */
  assert_param(IS_RCC_OSCILLATORTYPE(RCC_OscInitStruct->OscillatorType));
  /*------------------------------- HSE Configuration ------------------------*/
  if (((RCC_OscInitStruct->OscillatorType) & RCC_OSCILLATORTYPE_HSE) == RCC_OSCILLATORTYPE_HSE)
 800403a:	687b      	ldr	r3, [r7, #4]
 800403c:	681b      	ldr	r3, [r3, #0]
 800403e:	f003 0301 	and.w	r3, r3, #1
 8004042:	2b00      	cmp	r3, #0
 8004044:	d075      	beq.n	8004132 <HAL_RCC_OscConfig+0x10a>
  {
    /* Check the parameters */
    assert_param(IS_RCC_HSE(RCC_OscInitStruct->HSEState));
    /* When the HSE is used as system clock or clock source for PLL in these cases HSE will not disabled */
    if ((__HAL_RCC_GET_SYSCLK_SOURCE() == RCC_CFGR_SWS_HSE) || \
 8004046:	4b88      	ldr	r3, [pc, #544]	@ (8004268 <HAL_RCC_OscConfig+0x240>)
 8004048:	689b      	ldr	r3, [r3, #8]
 800404a:	f003 030c 	and.w	r3, r3, #12
 800404e:	2b04      	cmp	r3, #4
 8004050:	d00c      	beq.n	800406c <HAL_RCC_OscConfig+0x44>
        ((__HAL_RCC_GET_SYSCLK_SOURCE() == RCC_CFGR_SWS_PLL) && ((RCC->PLLCFGR & RCC_PLLCFGR_PLLSRC) == RCC_PLLCFGR_PLLSRC_HSE)))
 8004052:	4b85      	ldr	r3, [pc, #532]	@ (8004268 <HAL_RCC_OscConfig+0x240>)
 8004054:	689b      	ldr	r3, [r3, #8]
 8004056:	f003 030c 	and.w	r3, r3, #12
    if ((__HAL_RCC_GET_SYSCLK_SOURCE() == RCC_CFGR_SWS_HSE) || \
 800405a:	2b08      	cmp	r3, #8
 800405c:	d112      	bne.n	8004084 <HAL_RCC_OscConfig+0x5c>
        ((__HAL_RCC_GET_SYSCLK_SOURCE() == RCC_CFGR_SWS_PLL) && ((RCC->PLLCFGR & RCC_PLLCFGR_PLLSRC) == RCC_PLLCFGR_PLLSRC_HSE)))
 800405e:	4b82      	ldr	r3, [pc, #520]	@ (8004268 <HAL_RCC_OscConfig+0x240>)
 8004060:	685b      	ldr	r3, [r3, #4]
 8004062:	f403 0380 	and.w	r3, r3, #4194304	@ 0x400000
 8004066:	f5b3 0f80 	cmp.w	r3, #4194304	@ 0x400000
 800406a:	d10b      	bne.n	8004084 <HAL_RCC_OscConfig+0x5c>
    {
      if ((__HAL_RCC_GET_FLAG(RCC_FLAG_HSERDY) != RESET) && (RCC_OscInitStruct->HSEState == RCC_HSE_OFF))
 800406c:	4b7e      	ldr	r3, [pc, #504]	@ (8004268 <HAL_RCC_OscConfig+0x240>)
 800406e:	681b      	ldr	r3, [r3, #0]
 8004070:	f403 3300 	and.w	r3, r3, #131072	@ 0x20000
 8004074:	2b00      	cmp	r3, #0
 8004076:	d05b      	beq.n	8004130 <HAL_RCC_OscConfig+0x108>
 8004078:	687b      	ldr	r3, [r7, #4]
 800407a:	685b      	ldr	r3, [r3, #4]
 800407c:	2b00      	cmp	r3, #0
 800407e:	d157      	bne.n	8004130 <HAL_RCC_OscConfig+0x108>
      {
        return HAL_ERROR;
 8004080:	2301      	movs	r3, #1
 8004082:	e242      	b.n	800450a <HAL_RCC_OscConfig+0x4e2>
      }
    }
    else
    {
      /* Set the new HSE configuration ---------------------------------------*/
      __HAL_RCC_HSE_CONFIG(RCC_OscInitStruct->HSEState);
 8004084:	687b      	ldr	r3, [r7, #4]
 8004086:	685b      	ldr	r3, [r3, #4]
 8004088:	f5b3 3f80 	cmp.w	r3, #65536	@ 0x10000
 800408c:	d106      	bne.n	800409c <HAL_RCC_OscConfig+0x74>
 800408e:	4b76      	ldr	r3, [pc, #472]	@ (8004268 <HAL_RCC_OscConfig+0x240>)
 8004090:	681b      	ldr	r3, [r3, #0]
 8004092:	4a75      	ldr	r2, [pc, #468]	@ (8004268 <HAL_RCC_OscConfig+0x240>)
 8004094:	f443 3380 	orr.w	r3, r3, #65536	@ 0x10000
 8004098:	6013      	str	r3, [r2, #0]
 800409a:	e01d      	b.n	80040d8 <HAL_RCC_OscConfig+0xb0>
 800409c:	687b      	ldr	r3, [r7, #4]
 800409e:	685b      	ldr	r3, [r3, #4]
 80040a0:	f5b3 2fa0 	cmp.w	r3, #327680	@ 0x50000
 80040a4:	d10c      	bne.n	80040c0 <HAL_RCC_OscConfig+0x98>
 80040a6:	4b70      	ldr	r3, [pc, #448]	@ (8004268 <HAL_RCC_OscConfig+0x240>)
 80040a8:	681b      	ldr	r3, [r3, #0]
 80040aa:	4a6f      	ldr	r2, [pc, #444]	@ (8004268 <HAL_RCC_OscConfig+0x240>)
 80040ac:	f443 2380 	orr.w	r3, r3, #262144	@ 0x40000
 80040b0:	6013      	str	r3, [r2, #0]
 80040b2:	4b6d      	ldr	r3, [pc, #436]	@ (8004268 <HAL_RCC_OscConfig+0x240>)
 80040b4:	681b      	ldr	r3, [r3, #0]
 80040b6:	4a6c      	ldr	r2, [pc, #432]	@ (8004268 <HAL_RCC_OscConfig+0x240>)
 80040b8:	f443 3380 	orr.w	r3, r3, #65536	@ 0x10000
 80040bc:	6013      	str	r3, [r2, #0]
 80040be:	e00b      	b.n	80040d8 <HAL_RCC_OscConfig+0xb0>
 80040c0:	4b69      	ldr	r3, [pc, #420]	@ (8004268 <HAL_RCC_OscConfig+0x240>)
 80040c2:	681b      	ldr	r3, [r3, #0]
 80040c4:	4a68      	ldr	r2, [pc, #416]	@ (8004268 <HAL_RCC_OscConfig+0x240>)
 80040c6:	f423 3380 	bic.w	r3, r3, #65536	@ 0x10000
 80040ca:	6013      	str	r3, [r2, #0]
 80040cc:	4b66      	ldr	r3, [pc, #408]	@ (8004268 <HAL_RCC_OscConfig+0x240>)
 80040ce:	681b      	ldr	r3, [r3, #0]
 80040d0:	4a65      	ldr	r2, [pc, #404]	@ (8004268 <HAL_RCC_OscConfig+0x240>)
 80040d2:	f423 2380 	bic.w	r3, r3, #262144	@ 0x40000
 80040d6:	6013      	str	r3, [r2, #0]

      /* Check the HSE State */
      if ((RCC_OscInitStruct->HSEState) != RCC_HSE_OFF)
 80040d8:	687b      	ldr	r3, [r7, #4]
 80040da:	685b      	ldr	r3, [r3, #4]
 80040dc:	2b00      	cmp	r3, #0
 80040de:	d013      	beq.n	8004108 <HAL_RCC_OscConfig+0xe0>
      {
        /* Get Start Tick */
        tickstart = HAL_GetTick();
 80040e0:	f7ff fc7a 	bl	80039d8 <HAL_GetTick>
 80040e4:	6138      	str	r0, [r7, #16]

        /* Wait till HSE is ready */
        while (__HAL_RCC_GET_FLAG(RCC_FLAG_HSERDY) == RESET)
 80040e6:	e008      	b.n	80040fa <HAL_RCC_OscConfig+0xd2>
        {
          if ((HAL_GetTick() - tickstart) > HSE_TIMEOUT_VALUE)
 80040e8:	f7ff fc76 	bl	80039d8 <HAL_GetTick>
 80040ec:	4602      	mov	r2, r0
 80040ee:	693b      	ldr	r3, [r7, #16]
 80040f0:	1ad3      	subs	r3, r2, r3
 80040f2:	2b64      	cmp	r3, #100	@ 0x64
 80040f4:	d901      	bls.n	80040fa <HAL_RCC_OscConfig+0xd2>
          {
            return HAL_TIMEOUT;
 80040f6:	2303      	movs	r3, #3
 80040f8:	e207      	b.n	800450a <HAL_RCC_OscConfig+0x4e2>
        while (__HAL_RCC_GET_FLAG(RCC_FLAG_HSERDY) == RESET)
 80040fa:	4b5b      	ldr	r3, [pc, #364]	@ (8004268 <HAL_RCC_OscConfig+0x240>)
 80040fc:	681b      	ldr	r3, [r3, #0]
 80040fe:	f403 3300 	and.w	r3, r3, #131072	@ 0x20000
 8004102:	2b00      	cmp	r3, #0
 8004104:	d0f0      	beq.n	80040e8 <HAL_RCC_OscConfig+0xc0>
 8004106:	e014      	b.n	8004132 <HAL_RCC_OscConfig+0x10a>
        }
      }
      else
      {
        /* Get Start Tick */
        tickstart = HAL_GetTick();
 8004108:	f7ff fc66 	bl	80039d8 <HAL_GetTick>
 800410c:	6138      	str	r0, [r7, #16]

        /* Wait till HSE is bypassed or disabled */
        while (__HAL_RCC_GET_FLAG(RCC_FLAG_HSERDY) != RESET)
 800410e:	e008      	b.n	8004122 <HAL_RCC_OscConfig+0xfa>
        {
          if ((HAL_GetTick() - tickstart) > HSE_TIMEOUT_VALUE)
 8004110:	f7ff fc62 	bl	80039d8 <HAL_GetTick>
 8004114:	4602      	mov	r2, r0
 8004116:	693b      	ldr	r3, [r7, #16]
 8004118:	1ad3      	subs	r3, r2, r3
 800411a:	2b64      	cmp	r3, #100	@ 0x64
 800411c:	d901      	bls.n	8004122 <HAL_RCC_OscConfig+0xfa>
          {
            return HAL_TIMEOUT;
 800411e:	2303      	movs	r3, #3
 8004120:	e1f3      	b.n	800450a <HAL_RCC_OscConfig+0x4e2>
        while (__HAL_RCC_GET_FLAG(RCC_FLAG_HSERDY) != RESET)
 8004122:	4b51      	ldr	r3, [pc, #324]	@ (8004268 <HAL_RCC_OscConfig+0x240>)
 8004124:	681b      	ldr	r3, [r3, #0]
 8004126:	f403 3300 	and.w	r3, r3, #131072	@ 0x20000
 800412a:	2b00      	cmp	r3, #0
 800412c:	d1f0      	bne.n	8004110 <HAL_RCC_OscConfig+0xe8>
 800412e:	e000      	b.n	8004132 <HAL_RCC_OscConfig+0x10a>
      if ((__HAL_RCC_GET_FLAG(RCC_FLAG_HSERDY) != RESET) && (RCC_OscInitStruct->HSEState == RCC_HSE_OFF))
 8004130:	bf00      	nop
        }
      }
    }
  }
  /*----------------------------- HSI Configuration --------------------------*/
  if (((RCC_OscInitStruct->OscillatorType) & RCC_OSCILLATORTYPE_HSI) == RCC_OSCILLATORTYPE_HSI)
 8004132:	687b      	ldr	r3, [r7, #4]
 8004134:	681b      	ldr	r3, [r3, #0]
 8004136:	f003 0302 	and.w	r3, r3, #2
 800413a:	2b00      	cmp	r3, #0
 800413c:	d063      	beq.n	8004206 <HAL_RCC_OscConfig+0x1de>
    /* Check the parameters */
    assert_param(IS_RCC_HSI(RCC_OscInitStruct->HSIState));
    assert_param(IS_RCC_CALIBRATION_VALUE(RCC_OscInitStruct->HSICalibrationValue));

    /* Check if HSI is used as system clock or as PLL source when PLL is selected as system clock */
    if ((__HAL_RCC_GET_SYSCLK_SOURCE() == RCC_CFGR_SWS_HSI) || \
 800413e:	4b4a      	ldr	r3, [pc, #296]	@ (8004268 <HAL_RCC_OscConfig+0x240>)
 8004140:	689b      	ldr	r3, [r3, #8]
 8004142:	f003 030c 	and.w	r3, r3, #12
 8004146:	2b00      	cmp	r3, #0
 8004148:	d00b      	beq.n	8004162 <HAL_RCC_OscConfig+0x13a>
        ((__HAL_RCC_GET_SYSCLK_SOURCE() == RCC_CFGR_SWS_PLL) && ((RCC->PLLCFGR & RCC_PLLCFGR_PLLSRC) == RCC_PLLCFGR_PLLSRC_HSI)))
 800414a:	4b47      	ldr	r3, [pc, #284]	@ (8004268 <HAL_RCC_OscConfig+0x240>)
 800414c:	689b      	ldr	r3, [r3, #8]
 800414e:	f003 030c 	and.w	r3, r3, #12
    if ((__HAL_RCC_GET_SYSCLK_SOURCE() == RCC_CFGR_SWS_HSI) || \
 8004152:	2b08      	cmp	r3, #8
 8004154:	d11c      	bne.n	8004190 <HAL_RCC_OscConfig+0x168>
        ((__HAL_RCC_GET_SYSCLK_SOURCE() == RCC_CFGR_SWS_PLL) && ((RCC->PLLCFGR & RCC_PLLCFGR_PLLSRC) == RCC_PLLCFGR_PLLSRC_HSI)))
 8004156:	4b44      	ldr	r3, [pc, #272]	@ (8004268 <HAL_RCC_OscConfig+0x240>)
 8004158:	685b      	ldr	r3, [r3, #4]
 800415a:	f403 0380 	and.w	r3, r3, #4194304	@ 0x400000
 800415e:	2b00      	cmp	r3, #0
 8004160:	d116      	bne.n	8004190 <HAL_RCC_OscConfig+0x168>
    {
      /* When HSI is used as system clock it will not disabled */
      if ((__HAL_RCC_GET_FLAG(RCC_FLAG_HSIRDY) != RESET) && (RCC_OscInitStruct->HSIState != RCC_HSI_ON))
 8004162:	4b41      	ldr	r3, [pc, #260]	@ (8004268 <HAL_RCC_OscConfig+0x240>)
 8004164:	681b      	ldr	r3, [r3, #0]
 8004166:	f003 0302 	and.w	r3, r3, #2
 800416a:	2b00      	cmp	r3, #0
 800416c:	d005      	beq.n	800417a <HAL_RCC_OscConfig+0x152>
 800416e:	687b      	ldr	r3, [r7, #4]
 8004170:	68db      	ldr	r3, [r3, #12]
 8004172:	2b01      	cmp	r3, #1
 8004174:	d001      	beq.n	800417a <HAL_RCC_OscConfig+0x152>
      {
        return HAL_ERROR;
 8004176:	2301      	movs	r3, #1
 8004178:	e1c7      	b.n	800450a <HAL_RCC_OscConfig+0x4e2>
      }
      /* Otherwise, just the calibration is allowed */
      else
      {
        /* Adjusts the Internal High Speed oscillator (HSI) calibration value.*/
        __HAL_RCC_HSI_CALIBRATIONVALUE_ADJUST(RCC_OscInitStruct->HSICalibrationValue);
 800417a:	4b3b      	ldr	r3, [pc, #236]	@ (8004268 <HAL_RCC_OscConfig+0x240>)
 800417c:	681b      	ldr	r3, [r3, #0]
 800417e:	f023 02f8 	bic.w	r2, r3, #248	@ 0xf8
 8004182:	687b      	ldr	r3, [r7, #4]
 8004184:	691b      	ldr	r3, [r3, #16]
 8004186:	00db      	lsls	r3, r3, #3
 8004188:	4937      	ldr	r1, [pc, #220]	@ (8004268 <HAL_RCC_OscConfig+0x240>)
 800418a:	4313      	orrs	r3, r2
 800418c:	600b      	str	r3, [r1, #0]
      if ((__HAL_RCC_GET_FLAG(RCC_FLAG_HSIRDY) != RESET) && (RCC_OscInitStruct->HSIState != RCC_HSI_ON))
 800418e:	e03a      	b.n	8004206 <HAL_RCC_OscConfig+0x1de>
      }
    }
    else
    {
      /* Check the HSI State */
      if ((RCC_OscInitStruct->HSIState) != RCC_HSI_OFF)
 8004190:	687b      	ldr	r3, [r7, #4]
 8004192:	68db      	ldr	r3, [r3, #12]
 8004194:	2b00      	cmp	r3, #0
 8004196:	d020      	beq.n	80041da <HAL_RCC_OscConfig+0x1b2>
      {
        /* Enable the Internal High Speed oscillator (HSI). */
        __HAL_RCC_HSI_ENABLE();
 8004198:	4b34      	ldr	r3, [pc, #208]	@ (800426c <HAL_RCC_OscConfig+0x244>)
 800419a:	2201      	movs	r2, #1
 800419c:	601a      	str	r2, [r3, #0]

        /* Get Start Tick*/
        tickstart = HAL_GetTick();
 800419e:	f7ff fc1b 	bl	80039d8 <HAL_GetTick>
 80041a2:	6138      	str	r0, [r7, #16]

        /* Wait till HSI is ready */
        while (__HAL_RCC_GET_FLAG(RCC_FLAG_HSIRDY) == RESET)
 80041a4:	e008      	b.n	80041b8 <HAL_RCC_OscConfig+0x190>
        {
          if ((HAL_GetTick() - tickstart) > HSI_TIMEOUT_VALUE)
 80041a6:	f7ff fc17 	bl	80039d8 <HAL_GetTick>
 80041aa:	4602      	mov	r2, r0
 80041ac:	693b      	ldr	r3, [r7, #16]
 80041ae:	1ad3      	subs	r3, r2, r3
 80041b0:	2b02      	cmp	r3, #2
 80041b2:	d901      	bls.n	80041b8 <HAL_RCC_OscConfig+0x190>
          {
            return HAL_TIMEOUT;
 80041b4:	2303      	movs	r3, #3
 80041b6:	e1a8      	b.n	800450a <HAL_RCC_OscConfig+0x4e2>
        while (__HAL_RCC_GET_FLAG(RCC_FLAG_HSIRDY) == RESET)
 80041b8:	4b2b      	ldr	r3, [pc, #172]	@ (8004268 <HAL_RCC_OscConfig+0x240>)
 80041ba:	681b      	ldr	r3, [r3, #0]
 80041bc:	f003 0302 	and.w	r3, r3, #2
 80041c0:	2b00      	cmp	r3, #0
 80041c2:	d0f0      	beq.n	80041a6 <HAL_RCC_OscConfig+0x17e>
          }
        }

        /* Adjusts the Internal High Speed oscillator (HSI) calibration value. */
        __HAL_RCC_HSI_CALIBRATIONVALUE_ADJUST(RCC_OscInitStruct->HSICalibrationValue);
 80041c4:	4b28      	ldr	r3, [pc, #160]	@ (8004268 <HAL_RCC_OscConfig+0x240>)
 80041c6:	681b      	ldr	r3, [r3, #0]
 80041c8:	f023 02f8 	bic.w	r2, r3, #248	@ 0xf8
 80041cc:	687b      	ldr	r3, [r7, #4]
 80041ce:	691b      	ldr	r3, [r3, #16]
 80041d0:	00db      	lsls	r3, r3, #3
 80041d2:	4925      	ldr	r1, [pc, #148]	@ (8004268 <HAL_RCC_OscConfig+0x240>)
 80041d4:	4313      	orrs	r3, r2
 80041d6:	600b      	str	r3, [r1, #0]
 80041d8:	e015      	b.n	8004206 <HAL_RCC_OscConfig+0x1de>
      }
      else
      {
        /* Disable the Internal High Speed oscillator (HSI). */
        __HAL_RCC_HSI_DISABLE();
 80041da:	4b24      	ldr	r3, [pc, #144]	@ (800426c <HAL_RCC_OscConfig+0x244>)
 80041dc:	2200      	movs	r2, #0
 80041de:	601a      	str	r2, [r3, #0]

        /* Get Start Tick*/
        tickstart = HAL_GetTick();
 80041e0:	f7ff fbfa 	bl	80039d8 <HAL_GetTick>
 80041e4:	6138      	str	r0, [r7, #16]

        /* Wait till HSI is ready */
        while (__HAL_RCC_GET_FLAG(RCC_FLAG_HSIRDY) != RESET)
 80041e6:	e008      	b.n	80041fa <HAL_RCC_OscConfig+0x1d2>
        {
          if ((HAL_GetTick() - tickstart) > HSI_TIMEOUT_VALUE)
 80041e8:	f7ff fbf6 	bl	80039d8 <HAL_GetTick>
 80041ec:	4602      	mov	r2, r0
 80041ee:	693b      	ldr	r3, [r7, #16]
 80041f0:	1ad3      	subs	r3, r2, r3
 80041f2:	2b02      	cmp	r3, #2
 80041f4:	d901      	bls.n	80041fa <HAL_RCC_OscConfig+0x1d2>
          {
            return HAL_TIMEOUT;
 80041f6:	2303      	movs	r3, #3
 80041f8:	e187      	b.n	800450a <HAL_RCC_OscConfig+0x4e2>
        while (__HAL_RCC_GET_FLAG(RCC_FLAG_HSIRDY) != RESET)
 80041fa:	4b1b      	ldr	r3, [pc, #108]	@ (8004268 <HAL_RCC_OscConfig+0x240>)
 80041fc:	681b      	ldr	r3, [r3, #0]
 80041fe:	f003 0302 	and.w	r3, r3, #2
 8004202:	2b00      	cmp	r3, #0
 8004204:	d1f0      	bne.n	80041e8 <HAL_RCC_OscConfig+0x1c0>
        }
      }
    }
  }
  /*------------------------------ LSI Configuration -------------------------*/
  if (((RCC_OscInitStruct->OscillatorType) & RCC_OSCILLATORTYPE_LSI) == RCC_OSCILLATORTYPE_LSI)
 8004206:	687b      	ldr	r3, [r7, #4]
 8004208:	681b      	ldr	r3, [r3, #0]
 800420a:	f003 0308 	and.w	r3, r3, #8
 800420e:	2b00      	cmp	r3, #0
 8004210:	d036      	beq.n	8004280 <HAL_RCC_OscConfig+0x258>
  {
    /* Check the parameters */
    assert_param(IS_RCC_LSI(RCC_OscInitStruct->LSIState));

    /* Check the LSI State */
    if ((RCC_OscInitStruct->LSIState) != RCC_LSI_OFF)
 8004212:	687b      	ldr	r3, [r7, #4]
 8004214:	695b      	ldr	r3, [r3, #20]
 8004216:	2b00      	cmp	r3, #0
 8004218:	d016      	beq.n	8004248 <HAL_RCC_OscConfig+0x220>
    {
      /* Enable the Internal Low Speed oscillator (LSI). */
      __HAL_RCC_LSI_ENABLE();
 800421a:	4b15      	ldr	r3, [pc, #84]	@ (8004270 <HAL_RCC_OscConfig+0x248>)
 800421c:	2201      	movs	r2, #1
 800421e:	601a      	str	r2, [r3, #0]

      /* Get Start Tick*/
      tickstart = HAL_GetTick();
 8004220:	f7ff fbda 	bl	80039d8 <HAL_GetTick>
 8004224:	6138      	str	r0, [r7, #16]

      /* Wait till LSI is ready */
      while (__HAL_RCC_GET_FLAG(RCC_FLAG_LSIRDY) == RESET)
 8004226:	e008      	b.n	800423a <HAL_RCC_OscConfig+0x212>
      {
        if ((HAL_GetTick() - tickstart) > LSI_TIMEOUT_VALUE)
 8004228:	f7ff fbd6 	bl	80039d8 <HAL_GetTick>
 800422c:	4602      	mov	r2, r0
 800422e:	693b      	ldr	r3, [r7, #16]
 8004230:	1ad3      	subs	r3, r2, r3
 8004232:	2b02      	cmp	r3, #2
 8004234:	d901      	bls.n	800423a <HAL_RCC_OscConfig+0x212>
        {
          return HAL_TIMEOUT;
 8004236:	2303      	movs	r3, #3
 8004238:	e167      	b.n	800450a <HAL_RCC_OscConfig+0x4e2>
      while (__HAL_RCC_GET_FLAG(RCC_FLAG_LSIRDY) == RESET)
 800423a:	4b0b      	ldr	r3, [pc, #44]	@ (8004268 <HAL_RCC_OscConfig+0x240>)
 800423c:	6f5b      	ldr	r3, [r3, #116]	@ 0x74
 800423e:	f003 0302 	and.w	r3, r3, #2
 8004242:	2b00      	cmp	r3, #0
 8004244:	d0f0      	beq.n	8004228 <HAL_RCC_OscConfig+0x200>
 8004246:	e01b      	b.n	8004280 <HAL_RCC_OscConfig+0x258>
      }
    }
    else
    {
      /* Disable the Internal Low Speed oscillator (LSI). */
      __HAL_RCC_LSI_DISABLE();
 8004248:	4b09      	ldr	r3, [pc, #36]	@ (8004270 <HAL_RCC_OscConfig+0x248>)
 800424a:	2200      	movs	r2, #0
 800424c:	601a      	str	r2, [r3, #0]

      /* Get Start Tick */
      tickstart = HAL_GetTick();
 800424e:	f7ff fbc3 	bl	80039d8 <HAL_GetTick>
 8004252:	6138      	str	r0, [r7, #16]

      /* Wait till LSI is ready */
      while (__HAL_RCC_GET_FLAG(RCC_FLAG_LSIRDY) != RESET)
 8004254:	e00e      	b.n	8004274 <HAL_RCC_OscConfig+0x24c>
      {
        if ((HAL_GetTick() - tickstart) > LSI_TIMEOUT_VALUE)
 8004256:	f7ff fbbf 	bl	80039d8 <HAL_GetTick>
 800425a:	4602      	mov	r2, r0
 800425c:	693b      	ldr	r3, [r7, #16]
 800425e:	1ad3      	subs	r3, r2, r3
 8004260:	2b02      	cmp	r3, #2
 8004262:	d907      	bls.n	8004274 <HAL_RCC_OscConfig+0x24c>
        {
          return HAL_TIMEOUT;
 8004264:	2303      	movs	r3, #3
 8004266:	e150      	b.n	800450a <HAL_RCC_OscConfig+0x4e2>
 8004268:	40023800 	.word	0x40023800
 800426c:	42470000 	.word	0x42470000
 8004270:	42470e80 	.word	0x42470e80
      while (__HAL_RCC_GET_FLAG(RCC_FLAG_LSIRDY) != RESET)
 8004274:	4b88      	ldr	r3, [pc, #544]	@ (8004498 <HAL_RCC_OscConfig+0x470>)
 8004276:	6f5b      	ldr	r3, [r3, #116]	@ 0x74
 8004278:	f003 0302 	and.w	r3, r3, #2
 800427c:	2b00      	cmp	r3, #0
 800427e:	d1ea      	bne.n	8004256 <HAL_RCC_OscConfig+0x22e>
        }
      }
    }
  }
  /*------------------------------ LSE Configuration -------------------------*/
  if (((RCC_OscInitStruct->OscillatorType) & RCC_OSCILLATORTYPE_LSE) == RCC_OSCILLATORTYPE_LSE)
 8004280:	687b      	ldr	r3, [r7, #4]
 8004282:	681b      	ldr	r3, [r3, #0]
 8004284:	f003 0304 	and.w	r3, r3, #4
 8004288:	2b00      	cmp	r3, #0
 800428a:	f000 8097 	beq.w	80043bc <HAL_RCC_OscConfig+0x394>
  {
    FlagStatus       pwrclkchanged = RESET;
 800428e:	2300      	movs	r3, #0
 8004290:	75fb      	strb	r3, [r7, #23]
    /* Check the parameters */
    assert_param(IS_RCC_LSE(RCC_OscInitStruct->LSEState));

    /* Update LSE configuration in Backup Domain control register    */
    /* Requires to enable write access to Backup Domain of necessary */
    if (__HAL_RCC_PWR_IS_CLK_DISABLED())
 8004292:	4b81      	ldr	r3, [pc, #516]	@ (8004498 <HAL_RCC_OscConfig+0x470>)
 8004294:	6c1b      	ldr	r3, [r3, #64]	@ 0x40
 8004296:	f003 5380 	and.w	r3, r3, #268435456	@ 0x10000000
 800429a:	2b00      	cmp	r3, #0
 800429c:	d10f      	bne.n	80042be <HAL_RCC_OscConfig+0x296>
    {
      __HAL_RCC_PWR_CLK_ENABLE();
 800429e:	2300      	movs	r3, #0
 80042a0:	60bb      	str	r3, [r7, #8]
 80042a2:	4b7d      	ldr	r3, [pc, #500]	@ (8004498 <HAL_RCC_OscConfig+0x470>)
 80042a4:	6c1b      	ldr	r3, [r3, #64]	@ 0x40
 80042a6:	4a7c      	ldr	r2, [pc, #496]	@ (8004498 <HAL_RCC_OscConfig+0x470>)
 80042a8:	f043 5380 	orr.w	r3, r3, #268435456	@ 0x10000000
 80042ac:	6413      	str	r3, [r2, #64]	@ 0x40
 80042ae:	4b7a      	ldr	r3, [pc, #488]	@ (8004498 <HAL_RCC_OscConfig+0x470>)
 80042b0:	6c1b      	ldr	r3, [r3, #64]	@ 0x40
 80042b2:	f003 5380 	and.w	r3, r3, #268435456	@ 0x10000000
 80042b6:	60bb      	str	r3, [r7, #8]
 80042b8:	68bb      	ldr	r3, [r7, #8]
      pwrclkchanged = SET;
 80042ba:	2301      	movs	r3, #1
 80042bc:	75fb      	strb	r3, [r7, #23]
    }

    if (HAL_IS_BIT_CLR(PWR->CR, PWR_CR_DBP))
 80042be:	4b77      	ldr	r3, [pc, #476]	@ (800449c <HAL_RCC_OscConfig+0x474>)
 80042c0:	681b      	ldr	r3, [r3, #0]
 80042c2:	f403 7380 	and.w	r3, r3, #256	@ 0x100
 80042c6:	2b00      	cmp	r3, #0
 80042c8:	d118      	bne.n	80042fc <HAL_RCC_OscConfig+0x2d4>
    {
      /* Enable write access to Backup domain */
      SET_BIT(PWR->CR, PWR_CR_DBP);
 80042ca:	4b74      	ldr	r3, [pc, #464]	@ (800449c <HAL_RCC_OscConfig+0x474>)
 80042cc:	681b      	ldr	r3, [r3, #0]
 80042ce:	4a73      	ldr	r2, [pc, #460]	@ (800449c <HAL_RCC_OscConfig+0x474>)
 80042d0:	f443 7380 	orr.w	r3, r3, #256	@ 0x100
 80042d4:	6013      	str	r3, [r2, #0]

      /* Wait for Backup domain Write protection disable */
      tickstart = HAL_GetTick();
 80042d6:	f7ff fb7f 	bl	80039d8 <HAL_GetTick>
 80042da:	6138      	str	r0, [r7, #16]

      while (HAL_IS_BIT_CLR(PWR->CR, PWR_CR_DBP))
 80042dc:	e008      	b.n	80042f0 <HAL_RCC_OscConfig+0x2c8>
      {
        if ((HAL_GetTick() - tickstart) > RCC_DBP_TIMEOUT_VALUE)
 80042de:	f7ff fb7b 	bl	80039d8 <HAL_GetTick>
 80042e2:	4602      	mov	r2, r0
 80042e4:	693b      	ldr	r3, [r7, #16]
 80042e6:	1ad3      	subs	r3, r2, r3
 80042e8:	2b02      	cmp	r3, #2
 80042ea:	d901      	bls.n	80042f0 <HAL_RCC_OscConfig+0x2c8>
        {
          return HAL_TIMEOUT;
 80042ec:	2303      	movs	r3, #3
 80042ee:	e10c      	b.n	800450a <HAL_RCC_OscConfig+0x4e2>
      while (HAL_IS_BIT_CLR(PWR->CR, PWR_CR_DBP))
 80042f0:	4b6a      	ldr	r3, [pc, #424]	@ (800449c <HAL_RCC_OscConfig+0x474>)
 80042f2:	681b      	ldr	r3, [r3, #0]
 80042f4:	f403 7380 	and.w	r3, r3, #256	@ 0x100
 80042f8:	2b00      	cmp	r3, #0
 80042fa:	d0f0      	beq.n	80042de <HAL_RCC_OscConfig+0x2b6>
        }
      }
    }

    /* Set the new LSE configuration -----------------------------------------*/
    __HAL_RCC_LSE_CONFIG(RCC_OscInitStruct->LSEState);
 80042fc:	687b      	ldr	r3, [r7, #4]
 80042fe:	689b      	ldr	r3, [r3, #8]
 8004300:	2b01      	cmp	r3, #1
 8004302:	d106      	bne.n	8004312 <HAL_RCC_OscConfig+0x2ea>
 8004304:	4b64      	ldr	r3, [pc, #400]	@ (8004498 <HAL_RCC_OscConfig+0x470>)
 8004306:	6f1b      	ldr	r3, [r3, #112]	@ 0x70
 8004308:	4a63      	ldr	r2, [pc, #396]	@ (8004498 <HAL_RCC_OscConfig+0x470>)
 800430a:	f043 0301 	orr.w	r3, r3, #1
 800430e:	6713      	str	r3, [r2, #112]	@ 0x70
 8004310:	e01c      	b.n	800434c <HAL_RCC_OscConfig+0x324>
 8004312:	687b      	ldr	r3, [r7, #4]
 8004314:	689b      	ldr	r3, [r3, #8]
 8004316:	2b05      	cmp	r3, #5
 8004318:	d10c      	bne.n	8004334 <HAL_RCC_OscConfig+0x30c>
 800431a:	4b5f      	ldr	r3, [pc, #380]	@ (8004498 <HAL_RCC_OscConfig+0x470>)
 800431c:	6f1b      	ldr	r3, [r3, #112]	@ 0x70
 800431e:	4a5e      	ldr	r2, [pc, #376]	@ (8004498 <HAL_RCC_OscConfig+0x470>)
 8004320:	f043 0304 	orr.w	r3, r3, #4
 8004324:	6713      	str	r3, [r2, #112]	@ 0x70
 8004326:	4b5c      	ldr	r3, [pc, #368]	@ (8004498 <HAL_RCC_OscConfig+0x470>)
 8004328:	6f1b      	ldr	r3, [r3, #112]	@ 0x70
 800432a:	4a5b      	ldr	r2, [pc, #364]	@ (8004498 <HAL_RCC_OscConfig+0x470>)
 800432c:	f043 0301 	orr.w	r3, r3, #1
 8004330:	6713      	str	r3, [r2, #112]	@ 0x70
 8004332:	e00b      	b.n	800434c <HAL_RCC_OscConfig+0x324>
 8004334:	4b58      	ldr	r3, [pc, #352]	@ (8004498 <HAL_RCC_OscConfig+0x470>)
 8004336:	6f1b      	ldr	r3, [r3, #112]	@ 0x70
 8004338:	4a57      	ldr	r2, [pc, #348]	@ (8004498 <HAL_RCC_OscConfig+0x470>)
 800433a:	f023 0301 	bic.w	r3, r3, #1
 800433e:	6713      	str	r3, [r2, #112]	@ 0x70
 8004340:	4b55      	ldr	r3, [pc, #340]	@ (8004498 <HAL_RCC_OscConfig+0x470>)
 8004342:	6f1b      	ldr	r3, [r3, #112]	@ 0x70
 8004344:	4a54      	ldr	r2, [pc, #336]	@ (8004498 <HAL_RCC_OscConfig+0x470>)
 8004346:	f023 0304 	bic.w	r3, r3, #4
 800434a:	6713      	str	r3, [r2, #112]	@ 0x70
    /* Check the LSE State */
    if ((RCC_OscInitStruct->LSEState) != RCC_LSE_OFF)
 800434c:	687b      	ldr	r3, [r7, #4]
 800434e:	689b      	ldr	r3, [r3, #8]
 8004350:	2b00      	cmp	r3, #0
 8004352:	d015      	beq.n	8004380 <HAL_RCC_OscConfig+0x358>
    {
      /* Get Start Tick*/
      tickstart = HAL_GetTick();
 8004354:	f7ff fb40 	bl	80039d8 <HAL_GetTick>
 8004358:	6138      	str	r0, [r7, #16]

      /* Wait till LSE is ready */
      while (__HAL_RCC_GET_FLAG(RCC_FLAG_LSERDY) == RESET)
 800435a:	e00a      	b.n	8004372 <HAL_RCC_OscConfig+0x34a>
      {
        if ((HAL_GetTick() - tickstart) > RCC_LSE_TIMEOUT_VALUE)
 800435c:	f7ff fb3c 	bl	80039d8 <HAL_GetTick>
 8004360:	4602      	mov	r2, r0
 8004362:	693b      	ldr	r3, [r7, #16]
 8004364:	1ad3      	subs	r3, r2, r3
 8004366:	f241 3288 	movw	r2, #5000	@ 0x1388
 800436a:	4293      	cmp	r3, r2
 800436c:	d901      	bls.n	8004372 <HAL_RCC_OscConfig+0x34a>
        {
          return HAL_TIMEOUT;
 800436e:	2303      	movs	r3, #3
 8004370:	e0cb      	b.n	800450a <HAL_RCC_OscConfig+0x4e2>
      while (__HAL_RCC_GET_FLAG(RCC_FLAG_LSERDY) == RESET)
 8004372:	4b49      	ldr	r3, [pc, #292]	@ (8004498 <HAL_RCC_OscConfig+0x470>)
 8004374:	6f1b      	ldr	r3, [r3, #112]	@ 0x70
 8004376:	f003 0302 	and.w	r3, r3, #2
 800437a:	2b00      	cmp	r3, #0
 800437c:	d0ee      	beq.n	800435c <HAL_RCC_OscConfig+0x334>
 800437e:	e014      	b.n	80043aa <HAL_RCC_OscConfig+0x382>
      }
    }
    else
    {
      /* Get Start Tick */
      tickstart = HAL_GetTick();
 8004380:	f7ff fb2a 	bl	80039d8 <HAL_GetTick>
 8004384:	6138      	str	r0, [r7, #16]

      /* Wait till LSE is ready */
      while (__HAL_RCC_GET_FLAG(RCC_FLAG_LSERDY) != RESET)
 8004386:	e00a      	b.n	800439e <HAL_RCC_OscConfig+0x376>
      {
        if ((HAL_GetTick() - tickstart) > RCC_LSE_TIMEOUT_VALUE)
 8004388:	f7ff fb26 	bl	80039d8 <HAL_GetTick>
 800438c:	4602      	mov	r2, r0
 800438e:	693b      	ldr	r3, [r7, #16]
 8004390:	1ad3      	subs	r3, r2, r3
 8004392:	f241 3288 	movw	r2, #5000	@ 0x1388
 8004396:	4293      	cmp	r3, r2
 8004398:	d901      	bls.n	800439e <HAL_RCC_OscConfig+0x376>
        {
          return HAL_TIMEOUT;
 800439a:	2303      	movs	r3, #3
 800439c:	e0b5      	b.n	800450a <HAL_RCC_OscConfig+0x4e2>
      while (__HAL_RCC_GET_FLAG(RCC_FLAG_LSERDY) != RESET)
 800439e:	4b3e      	ldr	r3, [pc, #248]	@ (8004498 <HAL_RCC_OscConfig+0x470>)
 80043a0:	6f1b      	ldr	r3, [r3, #112]	@ 0x70
 80043a2:	f003 0302 	and.w	r3, r3, #2
 80043a6:	2b00      	cmp	r3, #0
 80043a8:	d1ee      	bne.n	8004388 <HAL_RCC_OscConfig+0x360>
        }
      }
    }

    /* Restore clock configuration if changed */
    if (pwrclkchanged == SET)
 80043aa:	7dfb      	ldrb	r3, [r7, #23]
 80043ac:	2b01      	cmp	r3, #1
 80043ae:	d105      	bne.n	80043bc <HAL_RCC_OscConfig+0x394>
    {
      __HAL_RCC_PWR_CLK_DISABLE();
 80043b0:	4b39      	ldr	r3, [pc, #228]	@ (8004498 <HAL_RCC_OscConfig+0x470>)
 80043b2:	6c1b      	ldr	r3, [r3, #64]	@ 0x40
 80043b4:	4a38      	ldr	r2, [pc, #224]	@ (8004498 <HAL_RCC_OscConfig+0x470>)
 80043b6:	f023 5380 	bic.w	r3, r3, #268435456	@ 0x10000000
 80043ba:	6413      	str	r3, [r2, #64]	@ 0x40
    }
  }
  /*-------------------------------- PLL Configuration -----------------------*/
  /* Check the parameters */
  assert_param(IS_RCC_PLL(RCC_OscInitStruct->PLL.PLLState));
  if ((RCC_OscInitStruct->PLL.PLLState) != RCC_PLL_NONE)
 80043bc:	687b      	ldr	r3, [r7, #4]
 80043be:	699b      	ldr	r3, [r3, #24]
 80043c0:	2b00      	cmp	r3, #0
 80043c2:	f000 80a1 	beq.w	8004508 <HAL_RCC_OscConfig+0x4e0>
  {
    /* Check if the PLL is used as system clock or not */
    if (__HAL_RCC_GET_SYSCLK_SOURCE() != RCC_CFGR_SWS_PLL)
 80043c6:	4b34      	ldr	r3, [pc, #208]	@ (8004498 <HAL_RCC_OscConfig+0x470>)
 80043c8:	689b      	ldr	r3, [r3, #8]
 80043ca:	f003 030c 	and.w	r3, r3, #12
 80043ce:	2b08      	cmp	r3, #8
 80043d0:	d05c      	beq.n	800448c <HAL_RCC_OscConfig+0x464>
    {
      if ((RCC_OscInitStruct->PLL.PLLState) == RCC_PLL_ON)
 80043d2:	687b      	ldr	r3, [r7, #4]
 80043d4:	699b      	ldr	r3, [r3, #24]
 80043d6:	2b02      	cmp	r3, #2
 80043d8:	d141      	bne.n	800445e <HAL_RCC_OscConfig+0x436>
        assert_param(IS_RCC_PLLN_VALUE(RCC_OscInitStruct->PLL.PLLN));
        assert_param(IS_RCC_PLLP_VALUE(RCC_OscInitStruct->PLL.PLLP));
        assert_param(IS_RCC_PLLQ_VALUE(RCC_OscInitStruct->PLL.PLLQ));

        /* Disable the main PLL. */
        __HAL_RCC_PLL_DISABLE();
 80043da:	4b31      	ldr	r3, [pc, #196]	@ (80044a0 <HAL_RCC_OscConfig+0x478>)
 80043dc:	2200      	movs	r2, #0
 80043de:	601a      	str	r2, [r3, #0]

        /* Get Start Tick */
        tickstart = HAL_GetTick();
 80043e0:	f7ff fafa 	bl	80039d8 <HAL_GetTick>
 80043e4:	6138      	str	r0, [r7, #16]

        /* Wait till PLL is disabled */
        while (__HAL_RCC_GET_FLAG(RCC_FLAG_PLLRDY) != RESET)
 80043e6:	e008      	b.n	80043fa <HAL_RCC_OscConfig+0x3d2>
        {
          if ((HAL_GetTick() - tickstart) > PLL_TIMEOUT_VALUE)
 80043e8:	f7ff faf6 	bl	80039d8 <HAL_GetTick>
 80043ec:	4602      	mov	r2, r0
 80043ee:	693b      	ldr	r3, [r7, #16]
 80043f0:	1ad3      	subs	r3, r2, r3
 80043f2:	2b02      	cmp	r3, #2
 80043f4:	d901      	bls.n	80043fa <HAL_RCC_OscConfig+0x3d2>
          {
            return HAL_TIMEOUT;
 80043f6:	2303      	movs	r3, #3
 80043f8:	e087      	b.n	800450a <HAL_RCC_OscConfig+0x4e2>
        while (__HAL_RCC_GET_FLAG(RCC_FLAG_PLLRDY) != RESET)
 80043fa:	4b27      	ldr	r3, [pc, #156]	@ (8004498 <HAL_RCC_OscConfig+0x470>)
 80043fc:	681b      	ldr	r3, [r3, #0]
 80043fe:	f003 7300 	and.w	r3, r3, #33554432	@ 0x2000000
 8004402:	2b00      	cmp	r3, #0
 8004404:	d1f0      	bne.n	80043e8 <HAL_RCC_OscConfig+0x3c0>
          }
        }

        /* Configure the main PLL clock source, multiplication and division factors. */
        WRITE_REG(RCC->PLLCFGR, (RCC_OscInitStruct->PLL.PLLSource                                            | \
 8004406:	687b      	ldr	r3, [r7, #4]
 8004408:	69da      	ldr	r2, [r3, #28]
 800440a:	687b      	ldr	r3, [r7, #4]
 800440c:	6a1b      	ldr	r3, [r3, #32]
 800440e:	431a      	orrs	r2, r3
 8004410:	687b      	ldr	r3, [r7, #4]
 8004412:	6a5b      	ldr	r3, [r3, #36]	@ 0x24
 8004414:	019b      	lsls	r3, r3, #6
 8004416:	431a      	orrs	r2, r3
 8004418:	687b      	ldr	r3, [r7, #4]
 800441a:	6a9b      	ldr	r3, [r3, #40]	@ 0x28
 800441c:	085b      	lsrs	r3, r3, #1
 800441e:	3b01      	subs	r3, #1
 8004420:	041b      	lsls	r3, r3, #16
 8004422:	431a      	orrs	r2, r3
 8004424:	687b      	ldr	r3, [r7, #4]
 8004426:	6adb      	ldr	r3, [r3, #44]	@ 0x2c
 8004428:	061b      	lsls	r3, r3, #24
 800442a:	491b      	ldr	r1, [pc, #108]	@ (8004498 <HAL_RCC_OscConfig+0x470>)
 800442c:	4313      	orrs	r3, r2
 800442e:	604b      	str	r3, [r1, #4]
                                 RCC_OscInitStruct->PLL.PLLM                                                 | \
                                 (RCC_OscInitStruct->PLL.PLLN << RCC_PLLCFGR_PLLN_Pos)             | \
                                 (((RCC_OscInitStruct->PLL.PLLP >> 1U) - 1U) << RCC_PLLCFGR_PLLP_Pos) | \
                                 (RCC_OscInitStruct->PLL.PLLQ << RCC_PLLCFGR_PLLQ_Pos)));
        /* Enable the main PLL. */
        __HAL_RCC_PLL_ENABLE();
 8004430:	4b1b      	ldr	r3, [pc, #108]	@ (80044a0 <HAL_RCC_OscConfig+0x478>)
 8004432:	2201      	movs	r2, #1
 8004434:	601a      	str	r2, [r3, #0]

        /* Get Start Tick */
        tickstart = HAL_GetTick();
 8004436:	f7ff facf 	bl	80039d8 <HAL_GetTick>
 800443a:	6138      	str	r0, [r7, #16]

        /* Wait till PLL is ready */
        while (__HAL_RCC_GET_FLAG(RCC_FLAG_PLLRDY) == RESET)
 800443c:	e008      	b.n	8004450 <HAL_RCC_OscConfig+0x428>
        {
          if ((HAL_GetTick() - tickstart) > PLL_TIMEOUT_VALUE)
 800443e:	f7ff facb 	bl	80039d8 <HAL_GetTick>
 8004442:	4602      	mov	r2, r0
 8004444:	693b      	ldr	r3, [r7, #16]
 8004446:	1ad3      	subs	r3, r2, r3
 8004448:	2b02      	cmp	r3, #2
 800444a:	d901      	bls.n	8004450 <HAL_RCC_OscConfig+0x428>
          {
            return HAL_TIMEOUT;
 800444c:	2303      	movs	r3, #3
 800444e:	e05c      	b.n	800450a <HAL_RCC_OscConfig+0x4e2>
        while (__HAL_RCC_GET_FLAG(RCC_FLAG_PLLRDY) == RESET)
 8004450:	4b11      	ldr	r3, [pc, #68]	@ (8004498 <HAL_RCC_OscConfig+0x470>)
 8004452:	681b      	ldr	r3, [r3, #0]
 8004454:	f003 7300 	and.w	r3, r3, #33554432	@ 0x2000000
 8004458:	2b00      	cmp	r3, #0
 800445a:	d0f0      	beq.n	800443e <HAL_RCC_OscConfig+0x416>
 800445c:	e054      	b.n	8004508 <HAL_RCC_OscConfig+0x4e0>
        }
      }
      else
      {
        /* Disable the main PLL. */
        __HAL_RCC_PLL_DISABLE();
 800445e:	4b10      	ldr	r3, [pc, #64]	@ (80044a0 <HAL_RCC_OscConfig+0x478>)
 8004460:	2200      	movs	r2, #0
 8004462:	601a      	str	r2, [r3, #0]

        /* Get Start Tick */
        tickstart = HAL_GetTick();
 8004464:	f7ff fab8 	bl	80039d8 <HAL_GetTick>
 8004468:	6138      	str	r0, [r7, #16]

        /* Wait till PLL is disabled */
        while (__HAL_RCC_GET_FLAG(RCC_FLAG_PLLRDY) != RESET)
 800446a:	e008      	b.n	800447e <HAL_RCC_OscConfig+0x456>
        {
          if ((HAL_GetTick() - tickstart) > PLL_TIMEOUT_VALUE)
 800446c:	f7ff fab4 	bl	80039d8 <HAL_GetTick>
 8004470:	4602      	mov	r2, r0
 8004472:	693b      	ldr	r3, [r7, #16]
 8004474:	1ad3      	subs	r3, r2, r3
 8004476:	2b02      	cmp	r3, #2
 8004478:	d901      	bls.n	800447e <HAL_RCC_OscConfig+0x456>
          {
            return HAL_TIMEOUT;
 800447a:	2303      	movs	r3, #3
 800447c:	e045      	b.n	800450a <HAL_RCC_OscConfig+0x4e2>
        while (__HAL_RCC_GET_FLAG(RCC_FLAG_PLLRDY) != RESET)
 800447e:	4b06      	ldr	r3, [pc, #24]	@ (8004498 <HAL_RCC_OscConfig+0x470>)
 8004480:	681b      	ldr	r3, [r3, #0]
 8004482:	f003 7300 	and.w	r3, r3, #33554432	@ 0x2000000
 8004486:	2b00      	cmp	r3, #0
 8004488:	d1f0      	bne.n	800446c <HAL_RCC_OscConfig+0x444>
 800448a:	e03d      	b.n	8004508 <HAL_RCC_OscConfig+0x4e0>
      }
    }
    else
    {
      /* Check if there is a request to disable the PLL used as System clock source */
      if ((RCC_OscInitStruct->PLL.PLLState) == RCC_PLL_OFF)
 800448c:	687b      	ldr	r3, [r7, #4]
 800448e:	699b      	ldr	r3, [r3, #24]
 8004490:	2b01      	cmp	r3, #1
 8004492:	d107      	bne.n	80044a4 <HAL_RCC_OscConfig+0x47c>
      {
        return HAL_ERROR;
 8004494:	2301      	movs	r3, #1
 8004496:	e038      	b.n	800450a <HAL_RCC_OscConfig+0x4e2>
 8004498:	40023800 	.word	0x40023800
 800449c:	40007000 	.word	0x40007000
 80044a0:	42470060 	.word	0x42470060
      }
      else
      {
        /* Do not return HAL_ERROR if request repeats the current configuration */
        pll_config = RCC->PLLCFGR;
 80044a4:	4b1b      	ldr	r3, [pc, #108]	@ (8004514 <HAL_RCC_OscConfig+0x4ec>)
 80044a6:	685b      	ldr	r3, [r3, #4]
 80044a8:	60fb      	str	r3, [r7, #12]
            (READ_BIT(pll_config, RCC_PLLCFGR_PLLN) != (RCC_OscInitStruct->PLL.PLLN) << RCC_PLLCFGR_PLLN_Pos) ||
            (READ_BIT(pll_config, RCC_PLLCFGR_PLLP) != (((RCC_OscInitStruct->PLL.PLLP >> 1U) - 1U)) << RCC_PLLCFGR_PLLP_Pos) ||
            (READ_BIT(pll_config, RCC_PLLCFGR_PLLQ) != (RCC_OscInitStruct->PLL.PLLQ << RCC_PLLCFGR_PLLQ_Pos)) ||
            (READ_BIT(pll_config, RCC_PLLCFGR_PLLR) != (RCC_OscInitStruct->PLL.PLLR << RCC_PLLCFGR_PLLR_Pos)))
#else
        if (((RCC_OscInitStruct->PLL.PLLState) == RCC_PLL_OFF) ||
 80044aa:	687b      	ldr	r3, [r7, #4]
 80044ac:	699b      	ldr	r3, [r3, #24]
 80044ae:	2b01      	cmp	r3, #1
 80044b0:	d028      	beq.n	8004504 <HAL_RCC_OscConfig+0x4dc>
            (READ_BIT(pll_config, RCC_PLLCFGR_PLLSRC) != RCC_OscInitStruct->PLL.PLLSource) ||
 80044b2:	68fb      	ldr	r3, [r7, #12]
 80044b4:	f403 0280 	and.w	r2, r3, #4194304	@ 0x400000
 80044b8:	687b      	ldr	r3, [r7, #4]
 80044ba:	69db      	ldr	r3, [r3, #28]
        if (((RCC_OscInitStruct->PLL.PLLState) == RCC_PLL_OFF) ||
 80044bc:	429a      	cmp	r2, r3
 80044be:	d121      	bne.n	8004504 <HAL_RCC_OscConfig+0x4dc>
            (READ_BIT(pll_config, RCC_PLLCFGR_PLLM) != (RCC_OscInitStruct->PLL.PLLM) << RCC_PLLCFGR_PLLM_Pos) ||
 80044c0:	68fb      	ldr	r3, [r7, #12]
 80044c2:	f003 023f 	and.w	r2, r3, #63	@ 0x3f
 80044c6:	687b      	ldr	r3, [r7, #4]
 80044c8:	6a1b      	ldr	r3, [r3, #32]
            (READ_BIT(pll_config, RCC_PLLCFGR_PLLSRC) != RCC_OscInitStruct->PLL.PLLSource) ||
 80044ca:	429a      	cmp	r2, r3
 80044cc:	d11a      	bne.n	8004504 <HAL_RCC_OscConfig+0x4dc>
            (READ_BIT(pll_config, RCC_PLLCFGR_PLLN) != (RCC_OscInitStruct->PLL.PLLN) << RCC_PLLCFGR_PLLN_Pos) ||
 80044ce:	68fa      	ldr	r2, [r7, #12]
 80044d0:	f647 73c0 	movw	r3, #32704	@ 0x7fc0
 80044d4:	4013      	ands	r3, r2
 80044d6:	687a      	ldr	r2, [r7, #4]
 80044d8:	6a52      	ldr	r2, [r2, #36]	@ 0x24
 80044da:	0192      	lsls	r2, r2, #6
            (READ_BIT(pll_config, RCC_PLLCFGR_PLLM) != (RCC_OscInitStruct->PLL.PLLM) << RCC_PLLCFGR_PLLM_Pos) ||
 80044dc:	4293      	cmp	r3, r2
 80044de:	d111      	bne.n	8004504 <HAL_RCC_OscConfig+0x4dc>
            (READ_BIT(pll_config, RCC_PLLCFGR_PLLP) != (((RCC_OscInitStruct->PLL.PLLP >> 1U) - 1U)) << RCC_PLLCFGR_PLLP_Pos) ||
 80044e0:	68fb      	ldr	r3, [r7, #12]
 80044e2:	f403 3240 	and.w	r2, r3, #196608	@ 0x30000
 80044e6:	687b      	ldr	r3, [r7, #4]
 80044e8:	6a9b      	ldr	r3, [r3, #40]	@ 0x28
 80044ea:	085b      	lsrs	r3, r3, #1
 80044ec:	3b01      	subs	r3, #1
 80044ee:	041b      	lsls	r3, r3, #16
            (READ_BIT(pll_config, RCC_PLLCFGR_PLLN) != (RCC_OscInitStruct->PLL.PLLN) << RCC_PLLCFGR_PLLN_Pos) ||
 80044f0:	429a      	cmp	r2, r3
 80044f2:	d107      	bne.n	8004504 <HAL_RCC_OscConfig+0x4dc>
            (READ_BIT(pll_config, RCC_PLLCFGR_PLLQ) != (RCC_OscInitStruct->PLL.PLLQ << RCC_PLLCFGR_PLLQ_Pos)))
 80044f4:	68fb      	ldr	r3, [r7, #12]
 80044f6:	f003 6270 	and.w	r2, r3, #251658240	@ 0xf000000
 80044fa:	687b      	ldr	r3, [r7, #4]
 80044fc:	6adb      	ldr	r3, [r3, #44]	@ 0x2c
 80044fe:	061b      	lsls	r3, r3, #24
            (READ_BIT(pll_config, RCC_PLLCFGR_PLLP) != (((RCC_OscInitStruct->PLL.PLLP >> 1U) - 1U)) << RCC_PLLCFGR_PLLP_Pos) ||
 8004500:	429a      	cmp	r2, r3
 8004502:	d001      	beq.n	8004508 <HAL_RCC_OscConfig+0x4e0>
#endif /* RCC_PLLCFGR_PLLR */
        {
          return HAL_ERROR;
 8004504:	2301      	movs	r3, #1
 8004506:	e000      	b.n	800450a <HAL_RCC_OscConfig+0x4e2>
        }
      }
    }
  }
  return HAL_OK;
 8004508:	2300      	movs	r3, #0
}
 800450a:	4618      	mov	r0, r3
 800450c:	3718      	adds	r7, #24
 800450e:	46bd      	mov	sp, r7
 8004510:	bd80      	pop	{r7, pc}
 8004512:	bf00      	nop
 8004514:	40023800 	.word	0x40023800

08004518 <HAL_RCC_ClockConfig>:
  *         HPRE[3:0] bits to ensure that HCLK not exceed the maximum allowed frequency
  *         (for more details refer to section above "Initialization/de-initialization functions")
  * @retval None
  */
HAL_StatusTypeDef HAL_RCC_ClockConfig(const RCC_ClkInitTypeDef  *RCC_ClkInitStruct, uint32_t FLatency)
{
 8004518:	b580      	push	{r7, lr}
 800451a:	b084      	sub	sp, #16
 800451c:	af00      	add	r7, sp, #0
 800451e:	6078      	str	r0, [r7, #4]
 8004520:	6039      	str	r1, [r7, #0]
  uint32_t tickstart;

  /* Check Null pointer */
  if (RCC_ClkInitStruct == NULL)
 8004522:	687b      	ldr	r3, [r7, #4]
 8004524:	2b00      	cmp	r3, #0
 8004526:	d101      	bne.n	800452c <HAL_RCC_ClockConfig+0x14>
  {
    return HAL_ERROR;
 8004528:	2301      	movs	r3, #1
 800452a:	e0cc      	b.n	80046c6 <HAL_RCC_ClockConfig+0x1ae>
  /* To correctly read data from FLASH memory, the number of wait states (LATENCY)
    must be correctly programmed according to the frequency of the CPU clock
    (HCLK) and the supply voltage of the device. */

  /* Increasing the number of wait states because of higher CPU frequency */
  if (FLatency > __HAL_FLASH_GET_LATENCY())
 800452c:	4b68      	ldr	r3, [pc, #416]	@ (80046d0 <HAL_RCC_ClockConfig+0x1b8>)
 800452e:	681b      	ldr	r3, [r3, #0]
 8004530:	f003 0307 	and.w	r3, r3, #7
 8004534:	683a      	ldr	r2, [r7, #0]
 8004536:	429a      	cmp	r2, r3
 8004538:	d90c      	bls.n	8004554 <HAL_RCC_ClockConfig+0x3c>
  {
    /* Program the new number of wait states to the LATENCY bits in the FLASH_ACR register */
    __HAL_FLASH_SET_LATENCY(FLatency);
 800453a:	4b65      	ldr	r3, [pc, #404]	@ (80046d0 <HAL_RCC_ClockConfig+0x1b8>)
 800453c:	683a      	ldr	r2, [r7, #0]
 800453e:	b2d2      	uxtb	r2, r2
 8004540:	701a      	strb	r2, [r3, #0]

    /* Check that the new number of wait states is taken into account to access the Flash
    memory by reading the FLASH_ACR register */
    if (__HAL_FLASH_GET_LATENCY() != FLatency)
 8004542:	4b63      	ldr	r3, [pc, #396]	@ (80046d0 <HAL_RCC_ClockConfig+0x1b8>)
 8004544:	681b      	ldr	r3, [r3, #0]
 8004546:	f003 0307 	and.w	r3, r3, #7
 800454a:	683a      	ldr	r2, [r7, #0]
 800454c:	429a      	cmp	r2, r3
 800454e:	d001      	beq.n	8004554 <HAL_RCC_ClockConfig+0x3c>
    {
      return HAL_ERROR;
 8004550:	2301      	movs	r3, #1
 8004552:	e0b8      	b.n	80046c6 <HAL_RCC_ClockConfig+0x1ae>
    }
  }

  /*-------------------------- HCLK Configuration --------------------------*/
  if (((RCC_ClkInitStruct->ClockType) & RCC_CLOCKTYPE_HCLK) == RCC_CLOCKTYPE_HCLK)
 8004554:	687b      	ldr	r3, [r7, #4]
 8004556:	681b      	ldr	r3, [r3, #0]
 8004558:	f003 0302 	and.w	r3, r3, #2
 800455c:	2b00      	cmp	r3, #0
 800455e:	d020      	beq.n	80045a2 <HAL_RCC_ClockConfig+0x8a>
  {
    /* Set the highest APBx dividers in order to ensure that we do not go through
       a non-spec phase whatever we decrease or increase HCLK. */
    if (((RCC_ClkInitStruct->ClockType) & RCC_CLOCKTYPE_PCLK1) == RCC_CLOCKTYPE_PCLK1)
 8004560:	687b      	ldr	r3, [r7, #4]
 8004562:	681b      	ldr	r3, [r3, #0]
 8004564:	f003 0304 	and.w	r3, r3, #4
 8004568:	2b00      	cmp	r3, #0
 800456a:	d005      	beq.n	8004578 <HAL_RCC_ClockConfig+0x60>
    {
      MODIFY_REG(RCC->CFGR, RCC_CFGR_PPRE1, RCC_HCLK_DIV16);
 800456c:	4b59      	ldr	r3, [pc, #356]	@ (80046d4 <HAL_RCC_ClockConfig+0x1bc>)
 800456e:	689b      	ldr	r3, [r3, #8]
 8004570:	4a58      	ldr	r2, [pc, #352]	@ (80046d4 <HAL_RCC_ClockConfig+0x1bc>)
 8004572:	f443 53e0 	orr.w	r3, r3, #7168	@ 0x1c00
 8004576:	6093      	str	r3, [r2, #8]
    }

    if (((RCC_ClkInitStruct->ClockType) & RCC_CLOCKTYPE_PCLK2) == RCC_CLOCKTYPE_PCLK2)
 8004578:	687b      	ldr	r3, [r7, #4]
 800457a:	681b      	ldr	r3, [r3, #0]
 800457c:	f003 0308 	and.w	r3, r3, #8
 8004580:	2b00      	cmp	r3, #0
 8004582:	d005      	beq.n	8004590 <HAL_RCC_ClockConfig+0x78>
    {
      MODIFY_REG(RCC->CFGR, RCC_CFGR_PPRE2, (RCC_HCLK_DIV16 << 3));
 8004584:	4b53      	ldr	r3, [pc, #332]	@ (80046d4 <HAL_RCC_ClockConfig+0x1bc>)
 8004586:	689b      	ldr	r3, [r3, #8]
 8004588:	4a52      	ldr	r2, [pc, #328]	@ (80046d4 <HAL_RCC_ClockConfig+0x1bc>)
 800458a:	f443 4360 	orr.w	r3, r3, #57344	@ 0xe000
 800458e:	6093      	str	r3, [r2, #8]
    }

    assert_param(IS_RCC_HCLK(RCC_ClkInitStruct->AHBCLKDivider));
    MODIFY_REG(RCC->CFGR, RCC_CFGR_HPRE, RCC_ClkInitStruct->AHBCLKDivider);
 8004590:	4b50      	ldr	r3, [pc, #320]	@ (80046d4 <HAL_RCC_ClockConfig+0x1bc>)
 8004592:	689b      	ldr	r3, [r3, #8]
 8004594:	f023 02f0 	bic.w	r2, r3, #240	@ 0xf0
 8004598:	687b      	ldr	r3, [r7, #4]
 800459a:	689b      	ldr	r3, [r3, #8]
 800459c:	494d      	ldr	r1, [pc, #308]	@ (80046d4 <HAL_RCC_ClockConfig+0x1bc>)
 800459e:	4313      	orrs	r3, r2
 80045a0:	608b      	str	r3, [r1, #8]
  }

  /*------------------------- SYSCLK Configuration ---------------------------*/
  if (((RCC_ClkInitStruct->ClockType) & RCC_CLOCKTYPE_SYSCLK) == RCC_CLOCKTYPE_SYSCLK)
 80045a2:	687b      	ldr	r3, [r7, #4]
 80045a4:	681b      	ldr	r3, [r3, #0]
 80045a6:	f003 0301 	and.w	r3, r3, #1
 80045aa:	2b00      	cmp	r3, #0
 80045ac:	d044      	beq.n	8004638 <HAL_RCC_ClockConfig+0x120>
  {
    assert_param(IS_RCC_SYSCLKSOURCE(RCC_ClkInitStruct->SYSCLKSource));

    /* HSE is selected as System Clock Source */
    if (RCC_ClkInitStruct->SYSCLKSource == RCC_SYSCLKSOURCE_HSE)
 80045ae:	687b      	ldr	r3, [r7, #4]
 80045b0:	685b      	ldr	r3, [r3, #4]
 80045b2:	2b01      	cmp	r3, #1
 80045b4:	d107      	bne.n	80045c6 <HAL_RCC_ClockConfig+0xae>
    {
      /* Check the HSE ready flag */
      if (__HAL_RCC_GET_FLAG(RCC_FLAG_HSERDY) == RESET)
 80045b6:	4b47      	ldr	r3, [pc, #284]	@ (80046d4 <HAL_RCC_ClockConfig+0x1bc>)
 80045b8:	681b      	ldr	r3, [r3, #0]
 80045ba:	f403 3300 	and.w	r3, r3, #131072	@ 0x20000
 80045be:	2b00      	cmp	r3, #0
 80045c0:	d119      	bne.n	80045f6 <HAL_RCC_ClockConfig+0xde>
      {
        return HAL_ERROR;
 80045c2:	2301      	movs	r3, #1
 80045c4:	e07f      	b.n	80046c6 <HAL_RCC_ClockConfig+0x1ae>
      }
    }
    /* PLL is selected as System Clock Source */
    else if ((RCC_ClkInitStruct->SYSCLKSource == RCC_SYSCLKSOURCE_PLLCLK)   ||
 80045c6:	687b      	ldr	r3, [r7, #4]
 80045c8:	685b      	ldr	r3, [r3, #4]
 80045ca:	2b02      	cmp	r3, #2
 80045cc:	d003      	beq.n	80045d6 <HAL_RCC_ClockConfig+0xbe>
             (RCC_ClkInitStruct->SYSCLKSource == RCC_SYSCLKSOURCE_PLLRCLK))
 80045ce:	687b      	ldr	r3, [r7, #4]
 80045d0:	685b      	ldr	r3, [r3, #4]
    else if ((RCC_ClkInitStruct->SYSCLKSource == RCC_SYSCLKSOURCE_PLLCLK)   ||
 80045d2:	2b03      	cmp	r3, #3
 80045d4:	d107      	bne.n	80045e6 <HAL_RCC_ClockConfig+0xce>
    {
      /* Check the PLL ready flag */
      if (__HAL_RCC_GET_FLAG(RCC_FLAG_PLLRDY) == RESET)
 80045d6:	4b3f      	ldr	r3, [pc, #252]	@ (80046d4 <HAL_RCC_ClockConfig+0x1bc>)
 80045d8:	681b      	ldr	r3, [r3, #0]
 80045da:	f003 7300 	and.w	r3, r3, #33554432	@ 0x2000000
 80045de:	2b00      	cmp	r3, #0
 80045e0:	d109      	bne.n	80045f6 <HAL_RCC_ClockConfig+0xde>
      {
        return HAL_ERROR;
 80045e2:	2301      	movs	r3, #1
 80045e4:	e06f      	b.n	80046c6 <HAL_RCC_ClockConfig+0x1ae>
    }
    /* HSI is selected as System Clock Source */
    else
    {
      /* Check the HSI ready flag */
      if (__HAL_RCC_GET_FLAG(RCC_FLAG_HSIRDY) == RESET)
 80045e6:	4b3b      	ldr	r3, [pc, #236]	@ (80046d4 <HAL_RCC_ClockConfig+0x1bc>)
 80045e8:	681b      	ldr	r3, [r3, #0]
 80045ea:	f003 0302 	and.w	r3, r3, #2
 80045ee:	2b00      	cmp	r3, #0
 80045f0:	d101      	bne.n	80045f6 <HAL_RCC_ClockConfig+0xde>
      {
        return HAL_ERROR;
 80045f2:	2301      	movs	r3, #1
 80045f4:	e067      	b.n	80046c6 <HAL_RCC_ClockConfig+0x1ae>
      }
    }

    __HAL_RCC_SYSCLK_CONFIG(RCC_ClkInitStruct->SYSCLKSource);
 80045f6:	4b37      	ldr	r3, [pc, #220]	@ (80046d4 <HAL_RCC_ClockConfig+0x1bc>)
 80045f8:	689b      	ldr	r3, [r3, #8]
 80045fa:	f023 0203 	bic.w	r2, r3, #3
 80045fe:	687b      	ldr	r3, [r7, #4]
 8004600:	685b      	ldr	r3, [r3, #4]
 8004602:	4934      	ldr	r1, [pc, #208]	@ (80046d4 <HAL_RCC_ClockConfig+0x1bc>)
 8004604:	4313      	orrs	r3, r2
 8004606:	608b      	str	r3, [r1, #8]

    /* Get Start Tick */
    tickstart = HAL_GetTick();
 8004608:	f7ff f9e6 	bl	80039d8 <HAL_GetTick>
 800460c:	60f8      	str	r0, [r7, #12]

    while (__HAL_RCC_GET_SYSCLK_SOURCE() != (RCC_ClkInitStruct->SYSCLKSource << RCC_CFGR_SWS_Pos))
 800460e:	e00a      	b.n	8004626 <HAL_RCC_ClockConfig+0x10e>
    {
      if ((HAL_GetTick() - tickstart) > CLOCKSWITCH_TIMEOUT_VALUE)
 8004610:	f7ff f9e2 	bl	80039d8 <HAL_GetTick>
 8004614:	4602      	mov	r2, r0
 8004616:	68fb      	ldr	r3, [r7, #12]
 8004618:	1ad3      	subs	r3, r2, r3
 800461a:	f241 3288 	movw	r2, #5000	@ 0x1388
 800461e:	4293      	cmp	r3, r2
 8004620:	d901      	bls.n	8004626 <HAL_RCC_ClockConfig+0x10e>
      {
        return HAL_TIMEOUT;
 8004622:	2303      	movs	r3, #3
 8004624:	e04f      	b.n	80046c6 <HAL_RCC_ClockConfig+0x1ae>
    while (__HAL_RCC_GET_SYSCLK_SOURCE() != (RCC_ClkInitStruct->SYSCLKSource << RCC_CFGR_SWS_Pos))
 8004626:	4b2b      	ldr	r3, [pc, #172]	@ (80046d4 <HAL_RCC_ClockConfig+0x1bc>)
 8004628:	689b      	ldr	r3, [r3, #8]
 800462a:	f003 020c 	and.w	r2, r3, #12
 800462e:	687b      	ldr	r3, [r7, #4]
 8004630:	685b      	ldr	r3, [r3, #4]
 8004632:	009b      	lsls	r3, r3, #2
 8004634:	429a      	cmp	r2, r3
 8004636:	d1eb      	bne.n	8004610 <HAL_RCC_ClockConfig+0xf8>
      }
    }
  }

  /* Decreasing the number of wait states because of lower CPU frequency */
  if (FLatency < __HAL_FLASH_GET_LATENCY())
 8004638:	4b25      	ldr	r3, [pc, #148]	@ (80046d0 <HAL_RCC_ClockConfig+0x1b8>)
 800463a:	681b      	ldr	r3, [r3, #0]
 800463c:	f003 0307 	and.w	r3, r3, #7
 8004640:	683a      	ldr	r2, [r7, #0]
 8004642:	429a      	cmp	r2, r3
 8004644:	d20c      	bcs.n	8004660 <HAL_RCC_ClockConfig+0x148>
  {
    /* Program the new number of wait states to the LATENCY bits in the FLASH_ACR register */
    __HAL_FLASH_SET_LATENCY(FLatency);
 8004646:	4b22      	ldr	r3, [pc, #136]	@ (80046d0 <HAL_RCC_ClockConfig+0x1b8>)
 8004648:	683a      	ldr	r2, [r7, #0]
 800464a:	b2d2      	uxtb	r2, r2
 800464c:	701a      	strb	r2, [r3, #0]

    /* Check that the new number of wait states is taken into account to access the Flash
    memory by reading the FLASH_ACR register */
    if (__HAL_FLASH_GET_LATENCY() != FLatency)
 800464e:	4b20      	ldr	r3, [pc, #128]	@ (80046d0 <HAL_RCC_ClockConfig+0x1b8>)
 8004650:	681b      	ldr	r3, [r3, #0]
 8004652:	f003 0307 	and.w	r3, r3, #7
 8004656:	683a      	ldr	r2, [r7, #0]
 8004658:	429a      	cmp	r2, r3
 800465a:	d001      	beq.n	8004660 <HAL_RCC_ClockConfig+0x148>
    {
      return HAL_ERROR;
 800465c:	2301      	movs	r3, #1
 800465e:	e032      	b.n	80046c6 <HAL_RCC_ClockConfig+0x1ae>
    }
  }

  /*-------------------------- PCLK1 Configuration ---------------------------*/
  if (((RCC_ClkInitStruct->ClockType) & RCC_CLOCKTYPE_PCLK1) == RCC_CLOCKTYPE_PCLK1)
 8004660:	687b      	ldr	r3, [r7, #4]
 8004662:	681b      	ldr	r3, [r3, #0]
 8004664:	f003 0304 	and.w	r3, r3, #4
 8004668:	2b00      	cmp	r3, #0
 800466a:	d008      	beq.n	800467e <HAL_RCC_ClockConfig+0x166>
  {
    assert_param(IS_RCC_PCLK(RCC_ClkInitStruct->APB1CLKDivider));
    MODIFY_REG(RCC->CFGR, RCC_CFGR_PPRE1, RCC_ClkInitStruct->APB1CLKDivider);
 800466c:	4b19      	ldr	r3, [pc, #100]	@ (80046d4 <HAL_RCC_ClockConfig+0x1bc>)
 800466e:	689b      	ldr	r3, [r3, #8]
 8004670:	f423 52e0 	bic.w	r2, r3, #7168	@ 0x1c00
 8004674:	687b      	ldr	r3, [r7, #4]
 8004676:	68db      	ldr	r3, [r3, #12]
 8004678:	4916      	ldr	r1, [pc, #88]	@ (80046d4 <HAL_RCC_ClockConfig+0x1bc>)
 800467a:	4313      	orrs	r3, r2
 800467c:	608b      	str	r3, [r1, #8]
  }

  /*-------------------------- PCLK2 Configuration ---------------------------*/
  if (((RCC_ClkInitStruct->ClockType) & RCC_CLOCKTYPE_PCLK2) == RCC_CLOCKTYPE_PCLK2)
 800467e:	687b      	ldr	r3, [r7, #4]
 8004680:	681b      	ldr	r3, [r3, #0]
 8004682:	f003 0308 	and.w	r3, r3, #8
 8004686:	2b00      	cmp	r3, #0
 8004688:	d009      	beq.n	800469e <HAL_RCC_ClockConfig+0x186>
  {
    assert_param(IS_RCC_PCLK(RCC_ClkInitStruct->APB2CLKDivider));
    MODIFY_REG(RCC->CFGR, RCC_CFGR_PPRE2, ((RCC_ClkInitStruct->APB2CLKDivider) << 3U));
 800468a:	4b12      	ldr	r3, [pc, #72]	@ (80046d4 <HAL_RCC_ClockConfig+0x1bc>)
 800468c:	689b      	ldr	r3, [r3, #8]
 800468e:	f423 4260 	bic.w	r2, r3, #57344	@ 0xe000
 8004692:	687b      	ldr	r3, [r7, #4]
 8004694:	691b      	ldr	r3, [r3, #16]
 8004696:	00db      	lsls	r3, r3, #3
 8004698:	490e      	ldr	r1, [pc, #56]	@ (80046d4 <HAL_RCC_ClockConfig+0x1bc>)
 800469a:	4313      	orrs	r3, r2
 800469c:	608b      	str	r3, [r1, #8]
  }

  /* Update the SystemCoreClock global variable */
  SystemCoreClock = HAL_RCC_GetSysClockFreq() >> AHBPrescTable[(RCC->CFGR & RCC_CFGR_HPRE) >> RCC_CFGR_HPRE_Pos];
 800469e:	f000 f821 	bl	80046e4 <HAL_RCC_GetSysClockFreq>
 80046a2:	4602      	mov	r2, r0
 80046a4:	4b0b      	ldr	r3, [pc, #44]	@ (80046d4 <HAL_RCC_ClockConfig+0x1bc>)
 80046a6:	689b      	ldr	r3, [r3, #8]
 80046a8:	091b      	lsrs	r3, r3, #4
 80046aa:	f003 030f 	and.w	r3, r3, #15
 80046ae:	490a      	ldr	r1, [pc, #40]	@ (80046d8 <HAL_RCC_ClockConfig+0x1c0>)
 80046b0:	5ccb      	ldrb	r3, [r1, r3]
 80046b2:	fa22 f303 	lsr.w	r3, r2, r3
 80046b6:	4a09      	ldr	r2, [pc, #36]	@ (80046dc <HAL_RCC_ClockConfig+0x1c4>)
 80046b8:	6013      	str	r3, [r2, #0]

  /* Configure the source of time base considering new system clocks settings */
  HAL_InitTick(uwTickPrio);
 80046ba:	4b09      	ldr	r3, [pc, #36]	@ (80046e0 <HAL_RCC_ClockConfig+0x1c8>)
 80046bc:	681b      	ldr	r3, [r3, #0]
 80046be:	4618      	mov	r0, r3
 80046c0:	f7ff f946 	bl	8003950 <HAL_InitTick>

  return HAL_OK;
 80046c4:	2300      	movs	r3, #0
}
 80046c6:	4618      	mov	r0, r3
 80046c8:	3710      	adds	r7, #16
 80046ca:	46bd      	mov	sp, r7
 80046cc:	bd80      	pop	{r7, pc}
 80046ce:	bf00      	nop
 80046d0:	40023c00 	.word	0x40023c00
 80046d4:	40023800 	.word	0x40023800
 80046d8:	080060a8 	.word	0x080060a8
 80046dc:	20000000 	.word	0x20000000
 80046e0:	20000004 	.word	0x20000004

080046e4 <HAL_RCC_GetSysClockFreq>:
  *
  *
  * @retval SYSCLK frequency
  */
__weak uint32_t HAL_RCC_GetSysClockFreq(void)
{
 80046e4:	e92d 4fb0 	stmdb	sp!, {r4, r5, r7, r8, r9, sl, fp, lr}
 80046e8:	b094      	sub	sp, #80	@ 0x50
 80046ea:	af00      	add	r7, sp, #0
  uint32_t pllm = 0U;
 80046ec:	2300      	movs	r3, #0
 80046ee:	647b      	str	r3, [r7, #68]	@ 0x44
  uint32_t pllvco = 0U;
 80046f0:	2300      	movs	r3, #0
 80046f2:	64fb      	str	r3, [r7, #76]	@ 0x4c
  uint32_t pllp = 0U;
 80046f4:	2300      	movs	r3, #0
 80046f6:	643b      	str	r3, [r7, #64]	@ 0x40
  uint32_t sysclockfreq = 0U;
 80046f8:	2300      	movs	r3, #0
 80046fa:	64bb      	str	r3, [r7, #72]	@ 0x48

  /* Get SYSCLK source -------------------------------------------------------*/
  switch (RCC->CFGR & RCC_CFGR_SWS)
 80046fc:	4b79      	ldr	r3, [pc, #484]	@ (80048e4 <HAL_RCC_GetSysClockFreq+0x200>)
 80046fe:	689b      	ldr	r3, [r3, #8]
 8004700:	f003 030c 	and.w	r3, r3, #12
 8004704:	2b08      	cmp	r3, #8
 8004706:	d00d      	beq.n	8004724 <HAL_RCC_GetSysClockFreq+0x40>
 8004708:	2b08      	cmp	r3, #8
 800470a:	f200 80e1 	bhi.w	80048d0 <HAL_RCC_GetSysClockFreq+0x1ec>
 800470e:	2b00      	cmp	r3, #0
 8004710:	d002      	beq.n	8004718 <HAL_RCC_GetSysClockFreq+0x34>
 8004712:	2b04      	cmp	r3, #4
 8004714:	d003      	beq.n	800471e <HAL_RCC_GetSysClockFreq+0x3a>
 8004716:	e0db      	b.n	80048d0 <HAL_RCC_GetSysClockFreq+0x1ec>
  {
    case RCC_CFGR_SWS_HSI:  /* HSI used as system clock source */
    {
      sysclockfreq = HSI_VALUE;
 8004718:	4b73      	ldr	r3, [pc, #460]	@ (80048e8 <HAL_RCC_GetSysClockFreq+0x204>)
 800471a:	64bb      	str	r3, [r7, #72]	@ 0x48
      break;
 800471c:	e0db      	b.n	80048d6 <HAL_RCC_GetSysClockFreq+0x1f2>
    }
    case RCC_CFGR_SWS_HSE:  /* HSE used as system clock  source */
    {
      sysclockfreq = HSE_VALUE;
 800471e:	4b73      	ldr	r3, [pc, #460]	@ (80048ec <HAL_RCC_GetSysClockFreq+0x208>)
 8004720:	64bb      	str	r3, [r7, #72]	@ 0x48
      break;
 8004722:	e0d8      	b.n	80048d6 <HAL_RCC_GetSysClockFreq+0x1f2>
    }
    case RCC_CFGR_SWS_PLL:  /* PLL used as system clock  source */
    {
      /* PLL_VCO = (HSE_VALUE or HSI_VALUE / PLLM) * PLLN
      SYSCLK = PLL_VCO / PLLP */
      pllm = RCC->PLLCFGR & RCC_PLLCFGR_PLLM;
 8004724:	4b6f      	ldr	r3, [pc, #444]	@ (80048e4 <HAL_RCC_GetSysClockFreq+0x200>)
 8004726:	685b      	ldr	r3, [r3, #4]
 8004728:	f003 033f 	and.w	r3, r3, #63	@ 0x3f
 800472c:	647b      	str	r3, [r7, #68]	@ 0x44
      if (__HAL_RCC_GET_PLL_OSCSOURCE() != RCC_PLLSOURCE_HSI)
 800472e:	4b6d      	ldr	r3, [pc, #436]	@ (80048e4 <HAL_RCC_GetSysClockFreq+0x200>)
 8004730:	685b      	ldr	r3, [r3, #4]
 8004732:	f403 0380 	and.w	r3, r3, #4194304	@ 0x400000
 8004736:	2b00      	cmp	r3, #0
 8004738:	d063      	beq.n	8004802 <HAL_RCC_GetSysClockFreq+0x11e>
      {
        /* HSE used as PLL clock source */
        pllvco = (uint32_t)((((uint64_t) HSE_VALUE * ((uint64_t)((RCC->PLLCFGR & RCC_PLLCFGR_PLLN) >> RCC_PLLCFGR_PLLN_Pos)))) / (uint64_t)pllm);
 800473a:	4b6a      	ldr	r3, [pc, #424]	@ (80048e4 <HAL_RCC_GetSysClockFreq+0x200>)
 800473c:	685b      	ldr	r3, [r3, #4]
 800473e:	099b      	lsrs	r3, r3, #6
 8004740:	2200      	movs	r2, #0
 8004742:	63bb      	str	r3, [r7, #56]	@ 0x38
 8004744:	63fa      	str	r2, [r7, #60]	@ 0x3c
 8004746:	6bbb      	ldr	r3, [r7, #56]	@ 0x38
 8004748:	f3c3 0308 	ubfx	r3, r3, #0, #9
 800474c:	633b      	str	r3, [r7, #48]	@ 0x30
 800474e:	2300      	movs	r3, #0
 8004750:	637b      	str	r3, [r7, #52]	@ 0x34
 8004752:	e9d7 450c 	ldrd	r4, r5, [r7, #48]	@ 0x30
 8004756:	4622      	mov	r2, r4
 8004758:	462b      	mov	r3, r5
 800475a:	f04f 0000 	mov.w	r0, #0
 800475e:	f04f 0100 	mov.w	r1, #0
 8004762:	0159      	lsls	r1, r3, #5
 8004764:	ea41 61d2 	orr.w	r1, r1, r2, lsr #27
 8004768:	0150      	lsls	r0, r2, #5
 800476a:	4602      	mov	r2, r0
 800476c:	460b      	mov	r3, r1
 800476e:	4621      	mov	r1, r4
 8004770:	1a51      	subs	r1, r2, r1
 8004772:	6139      	str	r1, [r7, #16]
 8004774:	4629      	mov	r1, r5
 8004776:	eb63 0301 	sbc.w	r3, r3, r1
 800477a:	617b      	str	r3, [r7, #20]
 800477c:	f04f 0200 	mov.w	r2, #0
 8004780:	f04f 0300 	mov.w	r3, #0
 8004784:	e9d7 ab04 	ldrd	sl, fp, [r7, #16]
 8004788:	4659      	mov	r1, fp
 800478a:	018b      	lsls	r3, r1, #6
 800478c:	4651      	mov	r1, sl
 800478e:	ea43 6391 	orr.w	r3, r3, r1, lsr #26
 8004792:	4651      	mov	r1, sl
 8004794:	018a      	lsls	r2, r1, #6
 8004796:	4651      	mov	r1, sl
 8004798:	ebb2 0801 	subs.w	r8, r2, r1
 800479c:	4659      	mov	r1, fp
 800479e:	eb63 0901 	sbc.w	r9, r3, r1
 80047a2:	f04f 0200 	mov.w	r2, #0
 80047a6:	f04f 0300 	mov.w	r3, #0
 80047aa:	ea4f 03c9 	mov.w	r3, r9, lsl #3
 80047ae:	ea43 7358 	orr.w	r3, r3, r8, lsr #29
 80047b2:	ea4f 02c8 	mov.w	r2, r8, lsl #3
 80047b6:	4690      	mov	r8, r2
 80047b8:	4699      	mov	r9, r3
 80047ba:	4623      	mov	r3, r4
 80047bc:	eb18 0303 	adds.w	r3, r8, r3
 80047c0:	60bb      	str	r3, [r7, #8]
 80047c2:	462b      	mov	r3, r5
 80047c4:	eb49 0303 	adc.w	r3, r9, r3
 80047c8:	60fb      	str	r3, [r7, #12]
 80047ca:	f04f 0200 	mov.w	r2, #0
 80047ce:	f04f 0300 	mov.w	r3, #0
 80047d2:	e9d7 4502 	ldrd	r4, r5, [r7, #8]
 80047d6:	4629      	mov	r1, r5
 80047d8:	024b      	lsls	r3, r1, #9
 80047da:	4621      	mov	r1, r4
 80047dc:	ea43 53d1 	orr.w	r3, r3, r1, lsr #23
 80047e0:	4621      	mov	r1, r4
 80047e2:	024a      	lsls	r2, r1, #9
 80047e4:	4610      	mov	r0, r2
 80047e6:	4619      	mov	r1, r3
 80047e8:	6c7b      	ldr	r3, [r7, #68]	@ 0x44
 80047ea:	2200      	movs	r2, #0
 80047ec:	62bb      	str	r3, [r7, #40]	@ 0x28
 80047ee:	62fa      	str	r2, [r7, #44]	@ 0x2c
 80047f0:	e9d7 230a 	ldrd	r2, r3, [r7, #40]	@ 0x28
 80047f4:	f7fb fd44 	bl	8000280 <__aeabi_uldivmod>
 80047f8:	4602      	mov	r2, r0
 80047fa:	460b      	mov	r3, r1
 80047fc:	4613      	mov	r3, r2
 80047fe:	64fb      	str	r3, [r7, #76]	@ 0x4c
 8004800:	e058      	b.n	80048b4 <HAL_RCC_GetSysClockFreq+0x1d0>
      }
      else
      {
        /* HSI used as PLL clock source */
        pllvco = (uint32_t)((((uint64_t) HSI_VALUE * ((uint64_t)((RCC->PLLCFGR & RCC_PLLCFGR_PLLN) >> RCC_PLLCFGR_PLLN_Pos)))) / (uint64_t)pllm);
 8004802:	4b38      	ldr	r3, [pc, #224]	@ (80048e4 <HAL_RCC_GetSysClockFreq+0x200>)
 8004804:	685b      	ldr	r3, [r3, #4]
 8004806:	099b      	lsrs	r3, r3, #6
 8004808:	2200      	movs	r2, #0
 800480a:	4618      	mov	r0, r3
 800480c:	4611      	mov	r1, r2
 800480e:	f3c0 0308 	ubfx	r3, r0, #0, #9
 8004812:	623b      	str	r3, [r7, #32]
 8004814:	2300      	movs	r3, #0
 8004816:	627b      	str	r3, [r7, #36]	@ 0x24
 8004818:	e9d7 8908 	ldrd	r8, r9, [r7, #32]
 800481c:	4642      	mov	r2, r8
 800481e:	464b      	mov	r3, r9
 8004820:	f04f 0000 	mov.w	r0, #0
 8004824:	f04f 0100 	mov.w	r1, #0
 8004828:	0159      	lsls	r1, r3, #5
 800482a:	ea41 61d2 	orr.w	r1, r1, r2, lsr #27
 800482e:	0150      	lsls	r0, r2, #5
 8004830:	4602      	mov	r2, r0
 8004832:	460b      	mov	r3, r1
 8004834:	4641      	mov	r1, r8
 8004836:	ebb2 0a01 	subs.w	sl, r2, r1
 800483a:	4649      	mov	r1, r9
 800483c:	eb63 0b01 	sbc.w	fp, r3, r1
 8004840:	f04f 0200 	mov.w	r2, #0
 8004844:	f04f 0300 	mov.w	r3, #0
 8004848:	ea4f 138b 	mov.w	r3, fp, lsl #6
 800484c:	ea43 639a 	orr.w	r3, r3, sl, lsr #26
 8004850:	ea4f 128a 	mov.w	r2, sl, lsl #6
 8004854:	ebb2 040a 	subs.w	r4, r2, sl
 8004858:	eb63 050b 	sbc.w	r5, r3, fp
 800485c:	f04f 0200 	mov.w	r2, #0
 8004860:	f04f 0300 	mov.w	r3, #0
 8004864:	00eb      	lsls	r3, r5, #3
 8004866:	ea43 7354 	orr.w	r3, r3, r4, lsr #29
 800486a:	00e2      	lsls	r2, r4, #3
 800486c:	4614      	mov	r4, r2
 800486e:	461d      	mov	r5, r3
 8004870:	4643      	mov	r3, r8
 8004872:	18e3      	adds	r3, r4, r3
 8004874:	603b      	str	r3, [r7, #0]
 8004876:	464b      	mov	r3, r9
 8004878:	eb45 0303 	adc.w	r3, r5, r3
 800487c:	607b      	str	r3, [r7, #4]
 800487e:	f04f 0200 	mov.w	r2, #0
 8004882:	f04f 0300 	mov.w	r3, #0
 8004886:	e9d7 4500 	ldrd	r4, r5, [r7]
 800488a:	4629      	mov	r1, r5
 800488c:	028b      	lsls	r3, r1, #10
 800488e:	4621      	mov	r1, r4
 8004890:	ea43 5391 	orr.w	r3, r3, r1, lsr #22
 8004894:	4621      	mov	r1, r4
 8004896:	028a      	lsls	r2, r1, #10
 8004898:	4610      	mov	r0, r2
 800489a:	4619      	mov	r1, r3
 800489c:	6c7b      	ldr	r3, [r7, #68]	@ 0x44
 800489e:	2200      	movs	r2, #0
 80048a0:	61bb      	str	r3, [r7, #24]
 80048a2:	61fa      	str	r2, [r7, #28]
 80048a4:	e9d7 2306 	ldrd	r2, r3, [r7, #24]
 80048a8:	f7fb fcea 	bl	8000280 <__aeabi_uldivmod>
 80048ac:	4602      	mov	r2, r0
 80048ae:	460b      	mov	r3, r1
 80048b0:	4613      	mov	r3, r2
 80048b2:	64fb      	str	r3, [r7, #76]	@ 0x4c
      }
      pllp = ((((RCC->PLLCFGR & RCC_PLLCFGR_PLLP) >> RCC_PLLCFGR_PLLP_Pos) + 1U) * 2U);
 80048b4:	4b0b      	ldr	r3, [pc, #44]	@ (80048e4 <HAL_RCC_GetSysClockFreq+0x200>)
 80048b6:	685b      	ldr	r3, [r3, #4]
 80048b8:	0c1b      	lsrs	r3, r3, #16
 80048ba:	f003 0303 	and.w	r3, r3, #3
 80048be:	3301      	adds	r3, #1
 80048c0:	005b      	lsls	r3, r3, #1
 80048c2:	643b      	str	r3, [r7, #64]	@ 0x40

      sysclockfreq = pllvco / pllp;
 80048c4:	6cfa      	ldr	r2, [r7, #76]	@ 0x4c
 80048c6:	6c3b      	ldr	r3, [r7, #64]	@ 0x40
 80048c8:	fbb2 f3f3 	udiv	r3, r2, r3
 80048cc:	64bb      	str	r3, [r7, #72]	@ 0x48
      break;
 80048ce:	e002      	b.n	80048d6 <HAL_RCC_GetSysClockFreq+0x1f2>
    }
    default:
    {
      sysclockfreq = HSI_VALUE;
 80048d0:	4b05      	ldr	r3, [pc, #20]	@ (80048e8 <HAL_RCC_GetSysClockFreq+0x204>)
 80048d2:	64bb      	str	r3, [r7, #72]	@ 0x48
      break;
 80048d4:	bf00      	nop
    }
  }
  return sysclockfreq;
 80048d6:	6cbb      	ldr	r3, [r7, #72]	@ 0x48
}
 80048d8:	4618      	mov	r0, r3
 80048da:	3750      	adds	r7, #80	@ 0x50
 80048dc:	46bd      	mov	sp, r7
 80048de:	e8bd 8fb0 	ldmia.w	sp!, {r4, r5, r7, r8, r9, sl, fp, pc}
 80048e2:	bf00      	nop
 80048e4:	40023800 	.word	0x40023800
 80048e8:	00f42400 	.word	0x00f42400
 80048ec:	007a1200 	.word	0x007a1200

080048f0 <HAL_RCC_GetHCLKFreq>:
  * @note   The SystemCoreClock CMSIS variable is used to store System Clock Frequency
  *         and updated within this function
  * @retval HCLK frequency
  */
uint32_t HAL_RCC_GetHCLKFreq(void)
{
 80048f0:	b480      	push	{r7}
 80048f2:	af00      	add	r7, sp, #0
  return SystemCoreClock;
 80048f4:	4b03      	ldr	r3, [pc, #12]	@ (8004904 <HAL_RCC_GetHCLKFreq+0x14>)
 80048f6:	681b      	ldr	r3, [r3, #0]
}
 80048f8:	4618      	mov	r0, r3
 80048fa:	46bd      	mov	sp, r7
 80048fc:	f85d 7b04 	ldr.w	r7, [sp], #4
 8004900:	4770      	bx	lr
 8004902:	bf00      	nop
 8004904:	20000000 	.word	0x20000000

08004908 <HAL_RCC_GetPCLK1Freq>:
  * @note   Each time PCLK1 changes, this function must be called to update the
  *         right PCLK1 value. Otherwise, any configuration based on this function will be incorrect.
  * @retval PCLK1 frequency
  */
uint32_t HAL_RCC_GetPCLK1Freq(void)
{
 8004908:	b580      	push	{r7, lr}
 800490a:	af00      	add	r7, sp, #0
  /* Get HCLK source and Compute PCLK1 frequency ---------------------------*/
  return (HAL_RCC_GetHCLKFreq() >> APBPrescTable[(RCC->CFGR & RCC_CFGR_PPRE1) >> RCC_CFGR_PPRE1_Pos]);
 800490c:	f7ff fff0 	bl	80048f0 <HAL_RCC_GetHCLKFreq>
 8004910:	4602      	mov	r2, r0
 8004912:	4b05      	ldr	r3, [pc, #20]	@ (8004928 <HAL_RCC_GetPCLK1Freq+0x20>)
 8004914:	689b      	ldr	r3, [r3, #8]
 8004916:	0a9b      	lsrs	r3, r3, #10
 8004918:	f003 0307 	and.w	r3, r3, #7
 800491c:	4903      	ldr	r1, [pc, #12]	@ (800492c <HAL_RCC_GetPCLK1Freq+0x24>)
 800491e:	5ccb      	ldrb	r3, [r1, r3]
 8004920:	fa22 f303 	lsr.w	r3, r2, r3
}
 8004924:	4618      	mov	r0, r3
 8004926:	bd80      	pop	{r7, pc}
 8004928:	40023800 	.word	0x40023800
 800492c:	080060b8 	.word	0x080060b8

08004930 <HAL_RCC_GetPCLK2Freq>:
  * @note   Each time PCLK2 changes, this function must be called to update the
  *         right PCLK2 value. Otherwise, any configuration based on this function will be incorrect.
  * @retval PCLK2 frequency
  */
uint32_t HAL_RCC_GetPCLK2Freq(void)
{
 8004930:	b580      	push	{r7, lr}
 8004932:	af00      	add	r7, sp, #0
  /* Get HCLK source and Compute PCLK2 frequency ---------------------------*/
  return (HAL_RCC_GetHCLKFreq() >> APBPrescTable[(RCC->CFGR & RCC_CFGR_PPRE2) >> RCC_CFGR_PPRE2_Pos]);
 8004934:	f7ff ffdc 	bl	80048f0 <HAL_RCC_GetHCLKFreq>
 8004938:	4602      	mov	r2, r0
 800493a:	4b05      	ldr	r3, [pc, #20]	@ (8004950 <HAL_RCC_GetPCLK2Freq+0x20>)
 800493c:	689b      	ldr	r3, [r3, #8]
 800493e:	0b5b      	lsrs	r3, r3, #13
 8004940:	f003 0307 	and.w	r3, r3, #7
 8004944:	4903      	ldr	r1, [pc, #12]	@ (8004954 <HAL_RCC_GetPCLK2Freq+0x24>)
 8004946:	5ccb      	ldrb	r3, [r1, r3]
 8004948:	fa22 f303 	lsr.w	r3, r2, r3
}
 800494c:	4618      	mov	r0, r3
 800494e:	bd80      	pop	{r7, pc}
 8004950:	40023800 	.word	0x40023800
 8004954:	080060b8 	.word	0x080060b8

08004958 <HAL_UART_Init>:
  * @param  huart  Pointer to a UART_HandleTypeDef structure that contains
  *                the configuration information for the specified UART module.
  * @retval HAL status
  */
HAL_StatusTypeDef HAL_UART_Init(UART_HandleTypeDef *huart)
{
 8004958:	b580      	push	{r7, lr}
 800495a:	b082      	sub	sp, #8
 800495c:	af00      	add	r7, sp, #0
 800495e:	6078      	str	r0, [r7, #4]
  /* Check the UART handle allocation */
  if (huart == NULL)
 8004960:	687b      	ldr	r3, [r7, #4]
 8004962:	2b00      	cmp	r3, #0
 8004964:	d101      	bne.n	800496a <HAL_UART_Init+0x12>
  {
    return HAL_ERROR;
 8004966:	2301      	movs	r3, #1
 8004968:	e042      	b.n	80049f0 <HAL_UART_Init+0x98>
    assert_param(IS_UART_INSTANCE(huart->Instance));
  }
  assert_param(IS_UART_WORD_LENGTH(huart->Init.WordLength));
  assert_param(IS_UART_OVERSAMPLING(huart->Init.OverSampling));

  if (huart->gState == HAL_UART_STATE_RESET)
 800496a:	687b      	ldr	r3, [r7, #4]
 800496c:	f893 3041 	ldrb.w	r3, [r3, #65]	@ 0x41
 8004970:	b2db      	uxtb	r3, r3
 8004972:	2b00      	cmp	r3, #0
 8004974:	d106      	bne.n	8004984 <HAL_UART_Init+0x2c>
  {
    /* Allocate lock resource and initialize it */
    huart->Lock = HAL_UNLOCKED;
 8004976:	687b      	ldr	r3, [r7, #4]
 8004978:	2200      	movs	r2, #0
 800497a:	f883 2040 	strb.w	r2, [r3, #64]	@ 0x40

    /* Init the low level hardware */
    huart->MspInitCallback(huart);
#else
    /* Init the low level hardware : GPIO, CLOCK */
    HAL_UART_MspInit(huart);
 800497e:	6878      	ldr	r0, [r7, #4]
 8004980:	f7fe fed4 	bl	800372c <HAL_UART_MspInit>
#endif /* (USE_HAL_UART_REGISTER_CALLBACKS) */
  }

  huart->gState = HAL_UART_STATE_BUSY;
 8004984:	687b      	ldr	r3, [r7, #4]
 8004986:	2224      	movs	r2, #36	@ 0x24
 8004988:	f883 2041 	strb.w	r2, [r3, #65]	@ 0x41

  /* Disable the peripheral */
  __HAL_UART_DISABLE(huart);
 800498c:	687b      	ldr	r3, [r7, #4]
 800498e:	681b      	ldr	r3, [r3, #0]
 8004990:	68da      	ldr	r2, [r3, #12]
 8004992:	687b      	ldr	r3, [r7, #4]
 8004994:	681b      	ldr	r3, [r3, #0]
 8004996:	f422 5200 	bic.w	r2, r2, #8192	@ 0x2000
 800499a:	60da      	str	r2, [r3, #12]

  /* Set the UART Communication parameters */
  UART_SetConfig(huart);
 800499c:	6878      	ldr	r0, [r7, #4]
 800499e:	f000 fa09 	bl	8004db4 <UART_SetConfig>

  /* In asynchronous mode, the following bits must be kept cleared:
     - LINEN and CLKEN bits in the USART_CR2 register,
     - SCEN, HDSEL and IREN  bits in the USART_CR3 register.*/
  CLEAR_BIT(huart->Instance->CR2, (USART_CR2_LINEN | USART_CR2_CLKEN));
 80049a2:	687b      	ldr	r3, [r7, #4]
 80049a4:	681b      	ldr	r3, [r3, #0]
 80049a6:	691a      	ldr	r2, [r3, #16]
 80049a8:	687b      	ldr	r3, [r7, #4]
 80049aa:	681b      	ldr	r3, [r3, #0]
 80049ac:	f422 4290 	bic.w	r2, r2, #18432	@ 0x4800
 80049b0:	611a      	str	r2, [r3, #16]
  CLEAR_BIT(huart->Instance->CR3, (USART_CR3_SCEN | USART_CR3_HDSEL | USART_CR3_IREN));
 80049b2:	687b      	ldr	r3, [r7, #4]
 80049b4:	681b      	ldr	r3, [r3, #0]
 80049b6:	695a      	ldr	r2, [r3, #20]
 80049b8:	687b      	ldr	r3, [r7, #4]
 80049ba:	681b      	ldr	r3, [r3, #0]
 80049bc:	f022 022a 	bic.w	r2, r2, #42	@ 0x2a
 80049c0:	615a      	str	r2, [r3, #20]

  /* Enable the peripheral */
  __HAL_UART_ENABLE(huart);
 80049c2:	687b      	ldr	r3, [r7, #4]
 80049c4:	681b      	ldr	r3, [r3, #0]
 80049c6:	68da      	ldr	r2, [r3, #12]
 80049c8:	687b      	ldr	r3, [r7, #4]
 80049ca:	681b      	ldr	r3, [r3, #0]
 80049cc:	f442 5200 	orr.w	r2, r2, #8192	@ 0x2000
 80049d0:	60da      	str	r2, [r3, #12]

  /* Initialize the UART state */
  huart->ErrorCode = HAL_UART_ERROR_NONE;
 80049d2:	687b      	ldr	r3, [r7, #4]
 80049d4:	2200      	movs	r2, #0
 80049d6:	645a      	str	r2, [r3, #68]	@ 0x44
  huart->gState = HAL_UART_STATE_READY;
 80049d8:	687b      	ldr	r3, [r7, #4]
 80049da:	2220      	movs	r2, #32
 80049dc:	f883 2041 	strb.w	r2, [r3, #65]	@ 0x41
  huart->RxState = HAL_UART_STATE_READY;
 80049e0:	687b      	ldr	r3, [r7, #4]
 80049e2:	2220      	movs	r2, #32
 80049e4:	f883 2042 	strb.w	r2, [r3, #66]	@ 0x42
  huart->RxEventType = HAL_UART_RXEVENT_TC;
 80049e8:	687b      	ldr	r3, [r7, #4]
 80049ea:	2200      	movs	r2, #0
 80049ec:	635a      	str	r2, [r3, #52]	@ 0x34

  return HAL_OK;
 80049ee:	2300      	movs	r3, #0
}
 80049f0:	4618      	mov	r0, r3
 80049f2:	3708      	adds	r7, #8
 80049f4:	46bd      	mov	sp, r7
 80049f6:	bd80      	pop	{r7, pc}

080049f8 <HAL_UART_Transmit>:
  * @param  Size  Amount of data elements (u8 or u16) to be sent
  * @param  Timeout Timeout duration
  * @retval HAL status
  */
HAL_StatusTypeDef HAL_UART_Transmit(UART_HandleTypeDef *huart, const uint8_t *pData, uint16_t Size, uint32_t Timeout)
{
 80049f8:	b580      	push	{r7, lr}
 80049fa:	b08a      	sub	sp, #40	@ 0x28
 80049fc:	af02      	add	r7, sp, #8
 80049fe:	60f8      	str	r0, [r7, #12]
 8004a00:	60b9      	str	r1, [r7, #8]
 8004a02:	603b      	str	r3, [r7, #0]
 8004a04:	4613      	mov	r3, r2
 8004a06:	80fb      	strh	r3, [r7, #6]
  const uint8_t  *pdata8bits;
  const uint16_t *pdata16bits;
  uint32_t tickstart = 0U;
 8004a08:	2300      	movs	r3, #0
 8004a0a:	617b      	str	r3, [r7, #20]

  /* Check that a Tx process is not already ongoing */
  if (huart->gState == HAL_UART_STATE_READY)
 8004a0c:	68fb      	ldr	r3, [r7, #12]
 8004a0e:	f893 3041 	ldrb.w	r3, [r3, #65]	@ 0x41
 8004a12:	b2db      	uxtb	r3, r3
 8004a14:	2b20      	cmp	r3, #32
 8004a16:	d175      	bne.n	8004b04 <HAL_UART_Transmit+0x10c>
  {
    if ((pData == NULL) || (Size == 0U))
 8004a18:	68bb      	ldr	r3, [r7, #8]
 8004a1a:	2b00      	cmp	r3, #0
 8004a1c:	d002      	beq.n	8004a24 <HAL_UART_Transmit+0x2c>
 8004a1e:	88fb      	ldrh	r3, [r7, #6]
 8004a20:	2b00      	cmp	r3, #0
 8004a22:	d101      	bne.n	8004a28 <HAL_UART_Transmit+0x30>
    {
      return  HAL_ERROR;
 8004a24:	2301      	movs	r3, #1
 8004a26:	e06e      	b.n	8004b06 <HAL_UART_Transmit+0x10e>
    }

    huart->ErrorCode = HAL_UART_ERROR_NONE;
 8004a28:	68fb      	ldr	r3, [r7, #12]
 8004a2a:	2200      	movs	r2, #0
 8004a2c:	645a      	str	r2, [r3, #68]	@ 0x44
    huart->gState = HAL_UART_STATE_BUSY_TX;
 8004a2e:	68fb      	ldr	r3, [r7, #12]
 8004a30:	2221      	movs	r2, #33	@ 0x21
 8004a32:	f883 2041 	strb.w	r2, [r3, #65]	@ 0x41

    /* Init tickstart for timeout management */
    tickstart = HAL_GetTick();
 8004a36:	f7fe ffcf 	bl	80039d8 <HAL_GetTick>
 8004a3a:	6178      	str	r0, [r7, #20]

    huart->TxXferSize = Size;
 8004a3c:	68fb      	ldr	r3, [r7, #12]
 8004a3e:	88fa      	ldrh	r2, [r7, #6]
 8004a40:	849a      	strh	r2, [r3, #36]	@ 0x24
    huart->TxXferCount = Size;
 8004a42:	68fb      	ldr	r3, [r7, #12]
 8004a44:	88fa      	ldrh	r2, [r7, #6]
 8004a46:	84da      	strh	r2, [r3, #38]	@ 0x26

    /* In case of 9bits/No Parity transfer, pData needs to be handled as a uint16_t pointer */
    if ((huart->Init.WordLength == UART_WORDLENGTH_9B) && (huart->Init.Parity == UART_PARITY_NONE))
 8004a48:	68fb      	ldr	r3, [r7, #12]
 8004a4a:	689b      	ldr	r3, [r3, #8]
 8004a4c:	f5b3 5f80 	cmp.w	r3, #4096	@ 0x1000
 8004a50:	d108      	bne.n	8004a64 <HAL_UART_Transmit+0x6c>
 8004a52:	68fb      	ldr	r3, [r7, #12]
 8004a54:	691b      	ldr	r3, [r3, #16]
 8004a56:	2b00      	cmp	r3, #0
 8004a58:	d104      	bne.n	8004a64 <HAL_UART_Transmit+0x6c>
    {
      pdata8bits  = NULL;
 8004a5a:	2300      	movs	r3, #0
 8004a5c:	61fb      	str	r3, [r7, #28]
      pdata16bits = (const uint16_t *) pData;
 8004a5e:	68bb      	ldr	r3, [r7, #8]
 8004a60:	61bb      	str	r3, [r7, #24]
 8004a62:	e003      	b.n	8004a6c <HAL_UART_Transmit+0x74>
    }
    else
    {
      pdata8bits  = pData;
 8004a64:	68bb      	ldr	r3, [r7, #8]
 8004a66:	61fb      	str	r3, [r7, #28]
      pdata16bits = NULL;
 8004a68:	2300      	movs	r3, #0
 8004a6a:	61bb      	str	r3, [r7, #24]
    }

    while (huart->TxXferCount > 0U)
 8004a6c:	e02e      	b.n	8004acc <HAL_UART_Transmit+0xd4>
    {
      if (UART_WaitOnFlagUntilTimeout(huart, UART_FLAG_TXE, RESET, tickstart, Timeout) != HAL_OK)
 8004a6e:	683b      	ldr	r3, [r7, #0]
 8004a70:	9300      	str	r3, [sp, #0]
 8004a72:	697b      	ldr	r3, [r7, #20]
 8004a74:	2200      	movs	r2, #0
 8004a76:	2180      	movs	r1, #128	@ 0x80
 8004a78:	68f8      	ldr	r0, [r7, #12]
 8004a7a:	f000 f8df 	bl	8004c3c <UART_WaitOnFlagUntilTimeout>
 8004a7e:	4603      	mov	r3, r0
 8004a80:	2b00      	cmp	r3, #0
 8004a82:	d005      	beq.n	8004a90 <HAL_UART_Transmit+0x98>
      {
        huart->gState = HAL_UART_STATE_READY;
 8004a84:	68fb      	ldr	r3, [r7, #12]
 8004a86:	2220      	movs	r2, #32
 8004a88:	f883 2041 	strb.w	r2, [r3, #65]	@ 0x41

        return HAL_TIMEOUT;
 8004a8c:	2303      	movs	r3, #3
 8004a8e:	e03a      	b.n	8004b06 <HAL_UART_Transmit+0x10e>
      }
      if (pdata8bits == NULL)
 8004a90:	69fb      	ldr	r3, [r7, #28]
 8004a92:	2b00      	cmp	r3, #0
 8004a94:	d10b      	bne.n	8004aae <HAL_UART_Transmit+0xb6>
      {
        huart->Instance->DR = (uint16_t)(*pdata16bits & 0x01FFU);
 8004a96:	69bb      	ldr	r3, [r7, #24]
 8004a98:	881b      	ldrh	r3, [r3, #0]
 8004a9a:	461a      	mov	r2, r3
 8004a9c:	68fb      	ldr	r3, [r7, #12]
 8004a9e:	681b      	ldr	r3, [r3, #0]
 8004aa0:	f3c2 0208 	ubfx	r2, r2, #0, #9
 8004aa4:	605a      	str	r2, [r3, #4]
        pdata16bits++;
 8004aa6:	69bb      	ldr	r3, [r7, #24]
 8004aa8:	3302      	adds	r3, #2
 8004aaa:	61bb      	str	r3, [r7, #24]
 8004aac:	e007      	b.n	8004abe <HAL_UART_Transmit+0xc6>
      }
      else
      {
        huart->Instance->DR = (uint8_t)(*pdata8bits & 0xFFU);
 8004aae:	69fb      	ldr	r3, [r7, #28]
 8004ab0:	781a      	ldrb	r2, [r3, #0]
 8004ab2:	68fb      	ldr	r3, [r7, #12]
 8004ab4:	681b      	ldr	r3, [r3, #0]
 8004ab6:	605a      	str	r2, [r3, #4]
        pdata8bits++;
 8004ab8:	69fb      	ldr	r3, [r7, #28]
 8004aba:	3301      	adds	r3, #1
 8004abc:	61fb      	str	r3, [r7, #28]
      }
      huart->TxXferCount--;
 8004abe:	68fb      	ldr	r3, [r7, #12]
 8004ac0:	8cdb      	ldrh	r3, [r3, #38]	@ 0x26
 8004ac2:	b29b      	uxth	r3, r3
 8004ac4:	3b01      	subs	r3, #1
 8004ac6:	b29a      	uxth	r2, r3
 8004ac8:	68fb      	ldr	r3, [r7, #12]
 8004aca:	84da      	strh	r2, [r3, #38]	@ 0x26
    while (huart->TxXferCount > 0U)
 8004acc:	68fb      	ldr	r3, [r7, #12]
 8004ace:	8cdb      	ldrh	r3, [r3, #38]	@ 0x26
 8004ad0:	b29b      	uxth	r3, r3
 8004ad2:	2b00      	cmp	r3, #0
 8004ad4:	d1cb      	bne.n	8004a6e <HAL_UART_Transmit+0x76>
    }

    if (UART_WaitOnFlagUntilTimeout(huart, UART_FLAG_TC, RESET, tickstart, Timeout) != HAL_OK)
 8004ad6:	683b      	ldr	r3, [r7, #0]
 8004ad8:	9300      	str	r3, [sp, #0]
 8004ada:	697b      	ldr	r3, [r7, #20]
 8004adc:	2200      	movs	r2, #0
 8004ade:	2140      	movs	r1, #64	@ 0x40
 8004ae0:	68f8      	ldr	r0, [r7, #12]
 8004ae2:	f000 f8ab 	bl	8004c3c <UART_WaitOnFlagUntilTimeout>
 8004ae6:	4603      	mov	r3, r0
 8004ae8:	2b00      	cmp	r3, #0
 8004aea:	d005      	beq.n	8004af8 <HAL_UART_Transmit+0x100>
    {
      huart->gState = HAL_UART_STATE_READY;
 8004aec:	68fb      	ldr	r3, [r7, #12]
 8004aee:	2220      	movs	r2, #32
 8004af0:	f883 2041 	strb.w	r2, [r3, #65]	@ 0x41

      return HAL_TIMEOUT;
 8004af4:	2303      	movs	r3, #3
 8004af6:	e006      	b.n	8004b06 <HAL_UART_Transmit+0x10e>
    }

    /* At end of Tx process, restore huart->gState to Ready */
    huart->gState = HAL_UART_STATE_READY;
 8004af8:	68fb      	ldr	r3, [r7, #12]
 8004afa:	2220      	movs	r2, #32
 8004afc:	f883 2041 	strb.w	r2, [r3, #65]	@ 0x41

    return HAL_OK;
 8004b00:	2300      	movs	r3, #0
 8004b02:	e000      	b.n	8004b06 <HAL_UART_Transmit+0x10e>
  }
  else
  {
    return HAL_BUSY;
 8004b04:	2302      	movs	r3, #2
  }
}
 8004b06:	4618      	mov	r0, r3
 8004b08:	3720      	adds	r7, #32
 8004b0a:	46bd      	mov	sp, r7
 8004b0c:	bd80      	pop	{r7, pc}

08004b0e <HAL_UART_Receive>:
  * @param  Size  Amount of data elements (u8 or u16) to be received.
  * @param  Timeout Timeout duration
  * @retval HAL status
  */
HAL_StatusTypeDef HAL_UART_Receive(UART_HandleTypeDef *huart, uint8_t *pData, uint16_t Size, uint32_t Timeout)
{
 8004b0e:	b580      	push	{r7, lr}
 8004b10:	b08a      	sub	sp, #40	@ 0x28
 8004b12:	af02      	add	r7, sp, #8
 8004b14:	60f8      	str	r0, [r7, #12]
 8004b16:	60b9      	str	r1, [r7, #8]
 8004b18:	603b      	str	r3, [r7, #0]
 8004b1a:	4613      	mov	r3, r2
 8004b1c:	80fb      	strh	r3, [r7, #6]
  uint8_t  *pdata8bits;
  uint16_t *pdata16bits;
  uint32_t tickstart = 0U;
 8004b1e:	2300      	movs	r3, #0
 8004b20:	617b      	str	r3, [r7, #20]

  /* Check that a Rx process is not already ongoing */
  if (huart->RxState == HAL_UART_STATE_READY)
 8004b22:	68fb      	ldr	r3, [r7, #12]
 8004b24:	f893 3042 	ldrb.w	r3, [r3, #66]	@ 0x42
 8004b28:	b2db      	uxtb	r3, r3
 8004b2a:	2b20      	cmp	r3, #32
 8004b2c:	f040 8081 	bne.w	8004c32 <HAL_UART_Receive+0x124>
  {
    if ((pData == NULL) || (Size == 0U))
 8004b30:	68bb      	ldr	r3, [r7, #8]
 8004b32:	2b00      	cmp	r3, #0
 8004b34:	d002      	beq.n	8004b3c <HAL_UART_Receive+0x2e>
 8004b36:	88fb      	ldrh	r3, [r7, #6]
 8004b38:	2b00      	cmp	r3, #0
 8004b3a:	d101      	bne.n	8004b40 <HAL_UART_Receive+0x32>
    {
      return  HAL_ERROR;
 8004b3c:	2301      	movs	r3, #1
 8004b3e:	e079      	b.n	8004c34 <HAL_UART_Receive+0x126>
    }

    huart->ErrorCode = HAL_UART_ERROR_NONE;
 8004b40:	68fb      	ldr	r3, [r7, #12]
 8004b42:	2200      	movs	r2, #0
 8004b44:	645a      	str	r2, [r3, #68]	@ 0x44
    huart->RxState = HAL_UART_STATE_BUSY_RX;
 8004b46:	68fb      	ldr	r3, [r7, #12]
 8004b48:	2222      	movs	r2, #34	@ 0x22
 8004b4a:	f883 2042 	strb.w	r2, [r3, #66]	@ 0x42
    huart->ReceptionType = HAL_UART_RECEPTION_STANDARD;
 8004b4e:	68fb      	ldr	r3, [r7, #12]
 8004b50:	2200      	movs	r2, #0
 8004b52:	631a      	str	r2, [r3, #48]	@ 0x30

    /* Init tickstart for timeout management */
    tickstart = HAL_GetTick();
 8004b54:	f7fe ff40 	bl	80039d8 <HAL_GetTick>
 8004b58:	6178      	str	r0, [r7, #20]

    huart->RxXferSize = Size;
 8004b5a:	68fb      	ldr	r3, [r7, #12]
 8004b5c:	88fa      	ldrh	r2, [r7, #6]
 8004b5e:	859a      	strh	r2, [r3, #44]	@ 0x2c
    huart->RxXferCount = Size;
 8004b60:	68fb      	ldr	r3, [r7, #12]
 8004b62:	88fa      	ldrh	r2, [r7, #6]
 8004b64:	85da      	strh	r2, [r3, #46]	@ 0x2e

    /* In case of 9bits/No Parity transfer, pRxData needs to be handled as a uint16_t pointer */
    if ((huart->Init.WordLength == UART_WORDLENGTH_9B) && (huart->Init.Parity == UART_PARITY_NONE))
 8004b66:	68fb      	ldr	r3, [r7, #12]
 8004b68:	689b      	ldr	r3, [r3, #8]
 8004b6a:	f5b3 5f80 	cmp.w	r3, #4096	@ 0x1000
 8004b6e:	d108      	bne.n	8004b82 <HAL_UART_Receive+0x74>
 8004b70:	68fb      	ldr	r3, [r7, #12]
 8004b72:	691b      	ldr	r3, [r3, #16]
 8004b74:	2b00      	cmp	r3, #0
 8004b76:	d104      	bne.n	8004b82 <HAL_UART_Receive+0x74>
    {
      pdata8bits  = NULL;
 8004b78:	2300      	movs	r3, #0
 8004b7a:	61fb      	str	r3, [r7, #28]
      pdata16bits = (uint16_t *) pData;
 8004b7c:	68bb      	ldr	r3, [r7, #8]
 8004b7e:	61bb      	str	r3, [r7, #24]
 8004b80:	e003      	b.n	8004b8a <HAL_UART_Receive+0x7c>
    }
    else
    {
      pdata8bits  = pData;
 8004b82:	68bb      	ldr	r3, [r7, #8]
 8004b84:	61fb      	str	r3, [r7, #28]
      pdata16bits = NULL;
 8004b86:	2300      	movs	r3, #0
 8004b88:	61bb      	str	r3, [r7, #24]
    }

    /* Check the remain data to be received */
    while (huart->RxXferCount > 0U)
 8004b8a:	e047      	b.n	8004c1c <HAL_UART_Receive+0x10e>
    {
      if (UART_WaitOnFlagUntilTimeout(huart, UART_FLAG_RXNE, RESET, tickstart, Timeout) != HAL_OK)
 8004b8c:	683b      	ldr	r3, [r7, #0]
 8004b8e:	9300      	str	r3, [sp, #0]
 8004b90:	697b      	ldr	r3, [r7, #20]
 8004b92:	2200      	movs	r2, #0
 8004b94:	2120      	movs	r1, #32
 8004b96:	68f8      	ldr	r0, [r7, #12]
 8004b98:	f000 f850 	bl	8004c3c <UART_WaitOnFlagUntilTimeout>
 8004b9c:	4603      	mov	r3, r0
 8004b9e:	2b00      	cmp	r3, #0
 8004ba0:	d005      	beq.n	8004bae <HAL_UART_Receive+0xa0>
      {
        huart->RxState = HAL_UART_STATE_READY;
 8004ba2:	68fb      	ldr	r3, [r7, #12]
 8004ba4:	2220      	movs	r2, #32
 8004ba6:	f883 2042 	strb.w	r2, [r3, #66]	@ 0x42

        return HAL_TIMEOUT;
 8004baa:	2303      	movs	r3, #3
 8004bac:	e042      	b.n	8004c34 <HAL_UART_Receive+0x126>
      }
      if (pdata8bits == NULL)
 8004bae:	69fb      	ldr	r3, [r7, #28]
 8004bb0:	2b00      	cmp	r3, #0
 8004bb2:	d10c      	bne.n	8004bce <HAL_UART_Receive+0xc0>
      {
        *pdata16bits = (uint16_t)(huart->Instance->DR & 0x01FF);
 8004bb4:	68fb      	ldr	r3, [r7, #12]
 8004bb6:	681b      	ldr	r3, [r3, #0]
 8004bb8:	685b      	ldr	r3, [r3, #4]
 8004bba:	b29b      	uxth	r3, r3
 8004bbc:	f3c3 0308 	ubfx	r3, r3, #0, #9
 8004bc0:	b29a      	uxth	r2, r3
 8004bc2:	69bb      	ldr	r3, [r7, #24]
 8004bc4:	801a      	strh	r2, [r3, #0]
        pdata16bits++;
 8004bc6:	69bb      	ldr	r3, [r7, #24]
 8004bc8:	3302      	adds	r3, #2
 8004bca:	61bb      	str	r3, [r7, #24]
 8004bcc:	e01f      	b.n	8004c0e <HAL_UART_Receive+0x100>
      }
      else
      {
        if ((huart->Init.WordLength == UART_WORDLENGTH_9B) || ((huart->Init.WordLength == UART_WORDLENGTH_8B) && (huart->Init.Parity == UART_PARITY_NONE)))
 8004bce:	68fb      	ldr	r3, [r7, #12]
 8004bd0:	689b      	ldr	r3, [r3, #8]
 8004bd2:	f5b3 5f80 	cmp.w	r3, #4096	@ 0x1000
 8004bd6:	d007      	beq.n	8004be8 <HAL_UART_Receive+0xda>
 8004bd8:	68fb      	ldr	r3, [r7, #12]
 8004bda:	689b      	ldr	r3, [r3, #8]
 8004bdc:	2b00      	cmp	r3, #0
 8004bde:	d10a      	bne.n	8004bf6 <HAL_UART_Receive+0xe8>
 8004be0:	68fb      	ldr	r3, [r7, #12]
 8004be2:	691b      	ldr	r3, [r3, #16]
 8004be4:	2b00      	cmp	r3, #0
 8004be6:	d106      	bne.n	8004bf6 <HAL_UART_Receive+0xe8>
        {
          *pdata8bits = (uint8_t)(huart->Instance->DR & (uint8_t)0x00FF);
 8004be8:	68fb      	ldr	r3, [r7, #12]
 8004bea:	681b      	ldr	r3, [r3, #0]
 8004bec:	685b      	ldr	r3, [r3, #4]
 8004bee:	b2da      	uxtb	r2, r3
 8004bf0:	69fb      	ldr	r3, [r7, #28]
 8004bf2:	701a      	strb	r2, [r3, #0]
 8004bf4:	e008      	b.n	8004c08 <HAL_UART_Receive+0xfa>
        }
        else
        {
          *pdata8bits = (uint8_t)(huart->Instance->DR & (uint8_t)0x007F);
 8004bf6:	68fb      	ldr	r3, [r7, #12]
 8004bf8:	681b      	ldr	r3, [r3, #0]
 8004bfa:	685b      	ldr	r3, [r3, #4]
 8004bfc:	b2db      	uxtb	r3, r3
 8004bfe:	f003 037f 	and.w	r3, r3, #127	@ 0x7f
 8004c02:	b2da      	uxtb	r2, r3
 8004c04:	69fb      	ldr	r3, [r7, #28]
 8004c06:	701a      	strb	r2, [r3, #0]
        }
        pdata8bits++;
 8004c08:	69fb      	ldr	r3, [r7, #28]
 8004c0a:	3301      	adds	r3, #1
 8004c0c:	61fb      	str	r3, [r7, #28]
      }
      huart->RxXferCount--;
 8004c0e:	68fb      	ldr	r3, [r7, #12]
 8004c10:	8ddb      	ldrh	r3, [r3, #46]	@ 0x2e
 8004c12:	b29b      	uxth	r3, r3
 8004c14:	3b01      	subs	r3, #1
 8004c16:	b29a      	uxth	r2, r3
 8004c18:	68fb      	ldr	r3, [r7, #12]
 8004c1a:	85da      	strh	r2, [r3, #46]	@ 0x2e
    while (huart->RxXferCount > 0U)
 8004c1c:	68fb      	ldr	r3, [r7, #12]
 8004c1e:	8ddb      	ldrh	r3, [r3, #46]	@ 0x2e
 8004c20:	b29b      	uxth	r3, r3
 8004c22:	2b00      	cmp	r3, #0
 8004c24:	d1b2      	bne.n	8004b8c <HAL_UART_Receive+0x7e>
    }

    /* At end of Rx process, restore huart->RxState to Ready */
    huart->RxState = HAL_UART_STATE_READY;
 8004c26:	68fb      	ldr	r3, [r7, #12]
 8004c28:	2220      	movs	r2, #32
 8004c2a:	f883 2042 	strb.w	r2, [r3, #66]	@ 0x42

    return HAL_OK;
 8004c2e:	2300      	movs	r3, #0
 8004c30:	e000      	b.n	8004c34 <HAL_UART_Receive+0x126>
  }
  else
  {
    return HAL_BUSY;
 8004c32:	2302      	movs	r3, #2
  }
}
 8004c34:	4618      	mov	r0, r3
 8004c36:	3720      	adds	r7, #32
 8004c38:	46bd      	mov	sp, r7
 8004c3a:	bd80      	pop	{r7, pc}

08004c3c <UART_WaitOnFlagUntilTimeout>:
  * @param  Timeout Timeout duration
  * @retval HAL status
  */
static HAL_StatusTypeDef UART_WaitOnFlagUntilTimeout(UART_HandleTypeDef *huart, uint32_t Flag, FlagStatus Status,
                                                     uint32_t Tickstart, uint32_t Timeout)
{
 8004c3c:	b580      	push	{r7, lr}
 8004c3e:	b086      	sub	sp, #24
 8004c40:	af00      	add	r7, sp, #0
 8004c42:	60f8      	str	r0, [r7, #12]
 8004c44:	60b9      	str	r1, [r7, #8]
 8004c46:	603b      	str	r3, [r7, #0]
 8004c48:	4613      	mov	r3, r2
 8004c4a:	71fb      	strb	r3, [r7, #7]
  /* Wait until flag is set */
  while ((__HAL_UART_GET_FLAG(huart, Flag) ? SET : RESET) == Status)
 8004c4c:	e03b      	b.n	8004cc6 <UART_WaitOnFlagUntilTimeout+0x8a>
  {
    /* Check for the Timeout */
    if (Timeout != HAL_MAX_DELAY)
 8004c4e:	6a3b      	ldr	r3, [r7, #32]
 8004c50:	f1b3 3fff 	cmp.w	r3, #4294967295
 8004c54:	d037      	beq.n	8004cc6 <UART_WaitOnFlagUntilTimeout+0x8a>
    {
      if (((HAL_GetTick() - Tickstart) > Timeout) || (Timeout == 0U))
 8004c56:	f7fe febf 	bl	80039d8 <HAL_GetTick>
 8004c5a:	4602      	mov	r2, r0
 8004c5c:	683b      	ldr	r3, [r7, #0]
 8004c5e:	1ad3      	subs	r3, r2, r3
 8004c60:	6a3a      	ldr	r2, [r7, #32]
 8004c62:	429a      	cmp	r2, r3
 8004c64:	d302      	bcc.n	8004c6c <UART_WaitOnFlagUntilTimeout+0x30>
 8004c66:	6a3b      	ldr	r3, [r7, #32]
 8004c68:	2b00      	cmp	r3, #0
 8004c6a:	d101      	bne.n	8004c70 <UART_WaitOnFlagUntilTimeout+0x34>
      {

        return HAL_TIMEOUT;
 8004c6c:	2303      	movs	r3, #3
 8004c6e:	e03a      	b.n	8004ce6 <UART_WaitOnFlagUntilTimeout+0xaa>
      }

      if ((READ_BIT(huart->Instance->CR1, USART_CR1_RE) != 0U) && (Flag != UART_FLAG_TXE) && (Flag != UART_FLAG_TC))
 8004c70:	68fb      	ldr	r3, [r7, #12]
 8004c72:	681b      	ldr	r3, [r3, #0]
 8004c74:	68db      	ldr	r3, [r3, #12]
 8004c76:	f003 0304 	and.w	r3, r3, #4
 8004c7a:	2b00      	cmp	r3, #0
 8004c7c:	d023      	beq.n	8004cc6 <UART_WaitOnFlagUntilTimeout+0x8a>
 8004c7e:	68bb      	ldr	r3, [r7, #8]
 8004c80:	2b80      	cmp	r3, #128	@ 0x80
 8004c82:	d020      	beq.n	8004cc6 <UART_WaitOnFlagUntilTimeout+0x8a>
 8004c84:	68bb      	ldr	r3, [r7, #8]
 8004c86:	2b40      	cmp	r3, #64	@ 0x40
 8004c88:	d01d      	beq.n	8004cc6 <UART_WaitOnFlagUntilTimeout+0x8a>
      {
        if (__HAL_UART_GET_FLAG(huart, UART_FLAG_ORE) == SET)
 8004c8a:	68fb      	ldr	r3, [r7, #12]
 8004c8c:	681b      	ldr	r3, [r3, #0]
 8004c8e:	681b      	ldr	r3, [r3, #0]
 8004c90:	f003 0308 	and.w	r3, r3, #8
 8004c94:	2b08      	cmp	r3, #8
 8004c96:	d116      	bne.n	8004cc6 <UART_WaitOnFlagUntilTimeout+0x8a>
        {
          /* Clear Overrun Error flag*/
          __HAL_UART_CLEAR_OREFLAG(huart);
 8004c98:	2300      	movs	r3, #0
 8004c9a:	617b      	str	r3, [r7, #20]
 8004c9c:	68fb      	ldr	r3, [r7, #12]
 8004c9e:	681b      	ldr	r3, [r3, #0]
 8004ca0:	681b      	ldr	r3, [r3, #0]
 8004ca2:	617b      	str	r3, [r7, #20]
 8004ca4:	68fb      	ldr	r3, [r7, #12]
 8004ca6:	681b      	ldr	r3, [r3, #0]
 8004ca8:	685b      	ldr	r3, [r3, #4]
 8004caa:	617b      	str	r3, [r7, #20]
 8004cac:	697b      	ldr	r3, [r7, #20]

          /* Blocking error : transfer is aborted
          Set the UART state ready to be able to start again the process,
          Disable Rx Interrupts if ongoing */
          UART_EndRxTransfer(huart);
 8004cae:	68f8      	ldr	r0, [r7, #12]
 8004cb0:	f000 f81d 	bl	8004cee <UART_EndRxTransfer>

          huart->ErrorCode = HAL_UART_ERROR_ORE;
 8004cb4:	68fb      	ldr	r3, [r7, #12]
 8004cb6:	2208      	movs	r2, #8
 8004cb8:	645a      	str	r2, [r3, #68]	@ 0x44

          /* Process Unlocked */
          __HAL_UNLOCK(huart);
 8004cba:	68fb      	ldr	r3, [r7, #12]
 8004cbc:	2200      	movs	r2, #0
 8004cbe:	f883 2040 	strb.w	r2, [r3, #64]	@ 0x40

          return HAL_ERROR;
 8004cc2:	2301      	movs	r3, #1
 8004cc4:	e00f      	b.n	8004ce6 <UART_WaitOnFlagUntilTimeout+0xaa>
  while ((__HAL_UART_GET_FLAG(huart, Flag) ? SET : RESET) == Status)
 8004cc6:	68fb      	ldr	r3, [r7, #12]
 8004cc8:	681b      	ldr	r3, [r3, #0]
 8004cca:	681a      	ldr	r2, [r3, #0]
 8004ccc:	68bb      	ldr	r3, [r7, #8]
 8004cce:	4013      	ands	r3, r2
 8004cd0:	68ba      	ldr	r2, [r7, #8]
 8004cd2:	429a      	cmp	r2, r3
 8004cd4:	bf0c      	ite	eq
 8004cd6:	2301      	moveq	r3, #1
 8004cd8:	2300      	movne	r3, #0
 8004cda:	b2db      	uxtb	r3, r3
 8004cdc:	461a      	mov	r2, r3
 8004cde:	79fb      	ldrb	r3, [r7, #7]
 8004ce0:	429a      	cmp	r2, r3
 8004ce2:	d0b4      	beq.n	8004c4e <UART_WaitOnFlagUntilTimeout+0x12>
        }
      }
    }
  }
  return HAL_OK;
 8004ce4:	2300      	movs	r3, #0
}
 8004ce6:	4618      	mov	r0, r3
 8004ce8:	3718      	adds	r7, #24
 8004cea:	46bd      	mov	sp, r7
 8004cec:	bd80      	pop	{r7, pc}

08004cee <UART_EndRxTransfer>:
  * @brief  End ongoing Rx transfer on UART peripheral (following error detection or Reception completion).
  * @param  huart UART handle.
  * @retval None
  */
static void UART_EndRxTransfer(UART_HandleTypeDef *huart)
{
 8004cee:	b480      	push	{r7}
 8004cf0:	b095      	sub	sp, #84	@ 0x54
 8004cf2:	af00      	add	r7, sp, #0
 8004cf4:	6078      	str	r0, [r7, #4]
  /* Disable RXNE, PE and ERR (Frame error, noise error, overrun error) interrupts */
  ATOMIC_CLEAR_BIT(huart->Instance->CR1, (USART_CR1_RXNEIE | USART_CR1_PEIE));
 8004cf6:	687b      	ldr	r3, [r7, #4]
 8004cf8:	681b      	ldr	r3, [r3, #0]
 8004cfa:	330c      	adds	r3, #12
 8004cfc:	637b      	str	r3, [r7, #52]	@ 0x34
   __ASM volatile ("ldrex %0, %1" : "=r" (result) : "Q" (*addr) );
 8004cfe:	6b7b      	ldr	r3, [r7, #52]	@ 0x34
 8004d00:	e853 3f00 	ldrex	r3, [r3]
 8004d04:	633b      	str	r3, [r7, #48]	@ 0x30
   return(result);
 8004d06:	6b3b      	ldr	r3, [r7, #48]	@ 0x30
 8004d08:	f423 7390 	bic.w	r3, r3, #288	@ 0x120
 8004d0c:	64fb      	str	r3, [r7, #76]	@ 0x4c
 8004d0e:	687b      	ldr	r3, [r7, #4]
 8004d10:	681b      	ldr	r3, [r3, #0]
 8004d12:	330c      	adds	r3, #12
 8004d14:	6cfa      	ldr	r2, [r7, #76]	@ 0x4c
 8004d16:	643a      	str	r2, [r7, #64]	@ 0x40
 8004d18:	63fb      	str	r3, [r7, #60]	@ 0x3c
   __ASM volatile ("strex %0, %2, %1" : "=&r" (result), "=Q" (*addr) : "r" (value) );
 8004d1a:	6bf9      	ldr	r1, [r7, #60]	@ 0x3c
 8004d1c:	6c3a      	ldr	r2, [r7, #64]	@ 0x40
 8004d1e:	e841 2300 	strex	r3, r2, [r1]
 8004d22:	63bb      	str	r3, [r7, #56]	@ 0x38
   return(result);
 8004d24:	6bbb      	ldr	r3, [r7, #56]	@ 0x38
 8004d26:	2b00      	cmp	r3, #0
 8004d28:	d1e5      	bne.n	8004cf6 <UART_EndRxTransfer+0x8>
  ATOMIC_CLEAR_BIT(huart->Instance->CR3, USART_CR3_EIE);
 8004d2a:	687b      	ldr	r3, [r7, #4]
 8004d2c:	681b      	ldr	r3, [r3, #0]
 8004d2e:	3314      	adds	r3, #20
 8004d30:	623b      	str	r3, [r7, #32]
   __ASM volatile ("ldrex %0, %1" : "=r" (result) : "Q" (*addr) );
 8004d32:	6a3b      	ldr	r3, [r7, #32]
 8004d34:	e853 3f00 	ldrex	r3, [r3]
 8004d38:	61fb      	str	r3, [r7, #28]
   return(result);
 8004d3a:	69fb      	ldr	r3, [r7, #28]
 8004d3c:	f023 0301 	bic.w	r3, r3, #1
 8004d40:	64bb      	str	r3, [r7, #72]	@ 0x48
 8004d42:	687b      	ldr	r3, [r7, #4]
 8004d44:	681b      	ldr	r3, [r3, #0]
 8004d46:	3314      	adds	r3, #20
 8004d48:	6cba      	ldr	r2, [r7, #72]	@ 0x48
 8004d4a:	62fa      	str	r2, [r7, #44]	@ 0x2c
 8004d4c:	62bb      	str	r3, [r7, #40]	@ 0x28
   __ASM volatile ("strex %0, %2, %1" : "=&r" (result), "=Q" (*addr) : "r" (value) );
 8004d4e:	6ab9      	ldr	r1, [r7, #40]	@ 0x28
 8004d50:	6afa      	ldr	r2, [r7, #44]	@ 0x2c
 8004d52:	e841 2300 	strex	r3, r2, [r1]
 8004d56:	627b      	str	r3, [r7, #36]	@ 0x24
   return(result);
 8004d58:	6a7b      	ldr	r3, [r7, #36]	@ 0x24
 8004d5a:	2b00      	cmp	r3, #0
 8004d5c:	d1e5      	bne.n	8004d2a <UART_EndRxTransfer+0x3c>

  /* In case of reception waiting for IDLE event, disable also the IDLE IE interrupt source */
  if (huart->ReceptionType == HAL_UART_RECEPTION_TOIDLE)
 8004d5e:	687b      	ldr	r3, [r7, #4]
 8004d60:	6b1b      	ldr	r3, [r3, #48]	@ 0x30
 8004d62:	2b01      	cmp	r3, #1
 8004d64:	d119      	bne.n	8004d9a <UART_EndRxTransfer+0xac>
  {
    ATOMIC_CLEAR_BIT(huart->Instance->CR1, USART_CR1_IDLEIE);
 8004d66:	687b      	ldr	r3, [r7, #4]
 8004d68:	681b      	ldr	r3, [r3, #0]
 8004d6a:	330c      	adds	r3, #12
 8004d6c:	60fb      	str	r3, [r7, #12]
   __ASM volatile ("ldrex %0, %1" : "=r" (result) : "Q" (*addr) );
 8004d6e:	68fb      	ldr	r3, [r7, #12]
 8004d70:	e853 3f00 	ldrex	r3, [r3]
 8004d74:	60bb      	str	r3, [r7, #8]
   return(result);
 8004d76:	68bb      	ldr	r3, [r7, #8]
 8004d78:	f023 0310 	bic.w	r3, r3, #16
 8004d7c:	647b      	str	r3, [r7, #68]	@ 0x44
 8004d7e:	687b      	ldr	r3, [r7, #4]
 8004d80:	681b      	ldr	r3, [r3, #0]
 8004d82:	330c      	adds	r3, #12
 8004d84:	6c7a      	ldr	r2, [r7, #68]	@ 0x44
 8004d86:	61ba      	str	r2, [r7, #24]
 8004d88:	617b      	str	r3, [r7, #20]
   __ASM volatile ("strex %0, %2, %1" : "=&r" (result), "=Q" (*addr) : "r" (value) );
 8004d8a:	6979      	ldr	r1, [r7, #20]
 8004d8c:	69ba      	ldr	r2, [r7, #24]
 8004d8e:	e841 2300 	strex	r3, r2, [r1]
 8004d92:	613b      	str	r3, [r7, #16]
   return(result);
 8004d94:	693b      	ldr	r3, [r7, #16]
 8004d96:	2b00      	cmp	r3, #0
 8004d98:	d1e5      	bne.n	8004d66 <UART_EndRxTransfer+0x78>
  }

  /* At end of Rx process, restore huart->RxState to Ready */
  huart->RxState = HAL_UART_STATE_READY;
 8004d9a:	687b      	ldr	r3, [r7, #4]
 8004d9c:	2220      	movs	r2, #32
 8004d9e:	f883 2042 	strb.w	r2, [r3, #66]	@ 0x42
  huart->ReceptionType = HAL_UART_RECEPTION_STANDARD;
 8004da2:	687b      	ldr	r3, [r7, #4]
 8004da4:	2200      	movs	r2, #0
 8004da6:	631a      	str	r2, [r3, #48]	@ 0x30
}
 8004da8:	bf00      	nop
 8004daa:	3754      	adds	r7, #84	@ 0x54
 8004dac:	46bd      	mov	sp, r7
 8004dae:	f85d 7b04 	ldr.w	r7, [sp], #4
 8004db2:	4770      	bx	lr

08004db4 <UART_SetConfig>:
  * @param  huart  Pointer to a UART_HandleTypeDef structure that contains
  *                the configuration information for the specified UART module.
  * @retval None
  */
static void UART_SetConfig(UART_HandleTypeDef *huart)
{
 8004db4:	e92d 4fb0 	stmdb	sp!, {r4, r5, r7, r8, r9, sl, fp, lr}
 8004db8:	b0c0      	sub	sp, #256	@ 0x100
 8004dba:	af00      	add	r7, sp, #0
 8004dbc:	f8c7 00f4 	str.w	r0, [r7, #244]	@ 0xf4
  assert_param(IS_UART_MODE(huart->Init.Mode));

  /*-------------------------- USART CR2 Configuration -----------------------*/
  /* Configure the UART Stop Bits: Set STOP[13:12] bits
     according to huart->Init.StopBits value */
  MODIFY_REG(huart->Instance->CR2, USART_CR2_STOP, huart->Init.StopBits);
 8004dc0:	f8d7 30f4 	ldr.w	r3, [r7, #244]	@ 0xf4
 8004dc4:	681b      	ldr	r3, [r3, #0]
 8004dc6:	691b      	ldr	r3, [r3, #16]
 8004dc8:	f423 5040 	bic.w	r0, r3, #12288	@ 0x3000
 8004dcc:	f8d7 30f4 	ldr.w	r3, [r7, #244]	@ 0xf4
 8004dd0:	68d9      	ldr	r1, [r3, #12]
 8004dd2:	f8d7 30f4 	ldr.w	r3, [r7, #244]	@ 0xf4
 8004dd6:	681a      	ldr	r2, [r3, #0]
 8004dd8:	ea40 0301 	orr.w	r3, r0, r1
 8004ddc:	6113      	str	r3, [r2, #16]
     Set the M bits according to huart->Init.WordLength value
     Set PCE and PS bits according to huart->Init.Parity value
     Set TE and RE bits according to huart->Init.Mode value
     Set OVER8 bit according to huart->Init.OverSampling value */

  tmpreg = (uint32_t)huart->Init.WordLength | huart->Init.Parity | huart->Init.Mode | huart->Init.OverSampling;
 8004dde:	f8d7 30f4 	ldr.w	r3, [r7, #244]	@ 0xf4
 8004de2:	689a      	ldr	r2, [r3, #8]
 8004de4:	f8d7 30f4 	ldr.w	r3, [r7, #244]	@ 0xf4
 8004de8:	691b      	ldr	r3, [r3, #16]
 8004dea:	431a      	orrs	r2, r3
 8004dec:	f8d7 30f4 	ldr.w	r3, [r7, #244]	@ 0xf4
 8004df0:	695b      	ldr	r3, [r3, #20]
 8004df2:	431a      	orrs	r2, r3
 8004df4:	f8d7 30f4 	ldr.w	r3, [r7, #244]	@ 0xf4
 8004df8:	69db      	ldr	r3, [r3, #28]
 8004dfa:	4313      	orrs	r3, r2
 8004dfc:	f8c7 30f8 	str.w	r3, [r7, #248]	@ 0xf8
  MODIFY_REG(huart->Instance->CR1,
 8004e00:	f8d7 30f4 	ldr.w	r3, [r7, #244]	@ 0xf4
 8004e04:	681b      	ldr	r3, [r3, #0]
 8004e06:	68db      	ldr	r3, [r3, #12]
 8004e08:	f423 4116 	bic.w	r1, r3, #38400	@ 0x9600
 8004e0c:	f021 010c 	bic.w	r1, r1, #12
 8004e10:	f8d7 30f4 	ldr.w	r3, [r7, #244]	@ 0xf4
 8004e14:	681a      	ldr	r2, [r3, #0]
 8004e16:	f8d7 30f8 	ldr.w	r3, [r7, #248]	@ 0xf8
 8004e1a:	430b      	orrs	r3, r1
 8004e1c:	60d3      	str	r3, [r2, #12]
             (uint32_t)(USART_CR1_M | USART_CR1_PCE | USART_CR1_PS | USART_CR1_TE | USART_CR1_RE | USART_CR1_OVER8),
             tmpreg);

  /*-------------------------- USART CR3 Configuration -----------------------*/
  /* Configure the UART HFC: Set CTSE and RTSE bits according to huart->Init.HwFlowCtl value */
  MODIFY_REG(huart->Instance->CR3, (USART_CR3_RTSE | USART_CR3_CTSE), huart->Init.HwFlowCtl);
 8004e1e:	f8d7 30f4 	ldr.w	r3, [r7, #244]	@ 0xf4
 8004e22:	681b      	ldr	r3, [r3, #0]
 8004e24:	695b      	ldr	r3, [r3, #20]
 8004e26:	f423 7040 	bic.w	r0, r3, #768	@ 0x300
 8004e2a:	f8d7 30f4 	ldr.w	r3, [r7, #244]	@ 0xf4
 8004e2e:	6999      	ldr	r1, [r3, #24]
 8004e30:	f8d7 30f4 	ldr.w	r3, [r7, #244]	@ 0xf4
 8004e34:	681a      	ldr	r2, [r3, #0]
 8004e36:	ea40 0301 	orr.w	r3, r0, r1
 8004e3a:	6153      	str	r3, [r2, #20]
    if ((huart->Instance == USART1) || (huart->Instance == USART6) || (huart->Instance == UART9) || (huart->Instance == UART10))
    {
      pclk = HAL_RCC_GetPCLK2Freq();
    }
#elif defined(USART6)
    if ((huart->Instance == USART1) || (huart->Instance == USART6))
 8004e3c:	f8d7 30f4 	ldr.w	r3, [r7, #244]	@ 0xf4
 8004e40:	681a      	ldr	r2, [r3, #0]
 8004e42:	4b8f      	ldr	r3, [pc, #572]	@ (8005080 <UART_SetConfig+0x2cc>)
 8004e44:	429a      	cmp	r2, r3
 8004e46:	d005      	beq.n	8004e54 <UART_SetConfig+0xa0>
 8004e48:	f8d7 30f4 	ldr.w	r3, [r7, #244]	@ 0xf4
 8004e4c:	681a      	ldr	r2, [r3, #0]
 8004e4e:	4b8d      	ldr	r3, [pc, #564]	@ (8005084 <UART_SetConfig+0x2d0>)
 8004e50:	429a      	cmp	r2, r3
 8004e52:	d104      	bne.n	8004e5e <UART_SetConfig+0xaa>
    {
      pclk = HAL_RCC_GetPCLK2Freq();
 8004e54:	f7ff fd6c 	bl	8004930 <HAL_RCC_GetPCLK2Freq>
 8004e58:	f8c7 00fc 	str.w	r0, [r7, #252]	@ 0xfc
 8004e5c:	e003      	b.n	8004e66 <UART_SetConfig+0xb2>
      pclk = HAL_RCC_GetPCLK2Freq();
    }
#endif /* USART6 */
    else
    {
      pclk = HAL_RCC_GetPCLK1Freq();
 8004e5e:	f7ff fd53 	bl	8004908 <HAL_RCC_GetPCLK1Freq>
 8004e62:	f8c7 00fc 	str.w	r0, [r7, #252]	@ 0xfc
    }
  /*-------------------------- USART BRR Configuration ---------------------*/
  if (huart->Init.OverSampling == UART_OVERSAMPLING_8)
 8004e66:	f8d7 30f4 	ldr.w	r3, [r7, #244]	@ 0xf4
 8004e6a:	69db      	ldr	r3, [r3, #28]
 8004e6c:	f5b3 4f00 	cmp.w	r3, #32768	@ 0x8000
 8004e70:	f040 810c 	bne.w	800508c <UART_SetConfig+0x2d8>
  {
    huart->Instance->BRR = UART_BRR_SAMPLING8(pclk, huart->Init.BaudRate);
 8004e74:	f8d7 30fc 	ldr.w	r3, [r7, #252]	@ 0xfc
 8004e78:	2200      	movs	r2, #0
 8004e7a:	f8c7 30e8 	str.w	r3, [r7, #232]	@ 0xe8
 8004e7e:	f8c7 20ec 	str.w	r2, [r7, #236]	@ 0xec
 8004e82:	e9d7 453a 	ldrd	r4, r5, [r7, #232]	@ 0xe8
 8004e86:	4622      	mov	r2, r4
 8004e88:	462b      	mov	r3, r5
 8004e8a:	1891      	adds	r1, r2, r2
 8004e8c:	65b9      	str	r1, [r7, #88]	@ 0x58
 8004e8e:	415b      	adcs	r3, r3
 8004e90:	65fb      	str	r3, [r7, #92]	@ 0x5c
 8004e92:	e9d7 2316 	ldrd	r2, r3, [r7, #88]	@ 0x58
 8004e96:	4621      	mov	r1, r4
 8004e98:	eb12 0801 	adds.w	r8, r2, r1
 8004e9c:	4629      	mov	r1, r5
 8004e9e:	eb43 0901 	adc.w	r9, r3, r1
 8004ea2:	f04f 0200 	mov.w	r2, #0
 8004ea6:	f04f 0300 	mov.w	r3, #0
 8004eaa:	ea4f 03c9 	mov.w	r3, r9, lsl #3
 8004eae:	ea43 7358 	orr.w	r3, r3, r8, lsr #29
 8004eb2:	ea4f 02c8 	mov.w	r2, r8, lsl #3
 8004eb6:	4690      	mov	r8, r2
 8004eb8:	4699      	mov	r9, r3
 8004eba:	4623      	mov	r3, r4
 8004ebc:	eb18 0303 	adds.w	r3, r8, r3
 8004ec0:	f8c7 30e0 	str.w	r3, [r7, #224]	@ 0xe0
 8004ec4:	462b      	mov	r3, r5
 8004ec6:	eb49 0303 	adc.w	r3, r9, r3
 8004eca:	f8c7 30e4 	str.w	r3, [r7, #228]	@ 0xe4
 8004ece:	f8d7 30f4 	ldr.w	r3, [r7, #244]	@ 0xf4
 8004ed2:	685b      	ldr	r3, [r3, #4]
 8004ed4:	2200      	movs	r2, #0
 8004ed6:	f8c7 30d8 	str.w	r3, [r7, #216]	@ 0xd8
 8004eda:	f8c7 20dc 	str.w	r2, [r7, #220]	@ 0xdc
 8004ede:	e9d7 1236 	ldrd	r1, r2, [r7, #216]	@ 0xd8
 8004ee2:	460b      	mov	r3, r1
 8004ee4:	18db      	adds	r3, r3, r3
 8004ee6:	653b      	str	r3, [r7, #80]	@ 0x50
 8004ee8:	4613      	mov	r3, r2
 8004eea:	eb42 0303 	adc.w	r3, r2, r3
 8004eee:	657b      	str	r3, [r7, #84]	@ 0x54
 8004ef0:	e9d7 2314 	ldrd	r2, r3, [r7, #80]	@ 0x50
 8004ef4:	e9d7 0138 	ldrd	r0, r1, [r7, #224]	@ 0xe0
 8004ef8:	f7fb f9c2 	bl	8000280 <__aeabi_uldivmod>
 8004efc:	4602      	mov	r2, r0
 8004efe:	460b      	mov	r3, r1
 8004f00:	4b61      	ldr	r3, [pc, #388]	@ (8005088 <UART_SetConfig+0x2d4>)
 8004f02:	fba3 2302 	umull	r2, r3, r3, r2
 8004f06:	095b      	lsrs	r3, r3, #5
 8004f08:	011c      	lsls	r4, r3, #4
 8004f0a:	f8d7 30fc 	ldr.w	r3, [r7, #252]	@ 0xfc
 8004f0e:	2200      	movs	r2, #0
 8004f10:	f8c7 30d0 	str.w	r3, [r7, #208]	@ 0xd0
 8004f14:	f8c7 20d4 	str.w	r2, [r7, #212]	@ 0xd4
 8004f18:	e9d7 8934 	ldrd	r8, r9, [r7, #208]	@ 0xd0
 8004f1c:	4642      	mov	r2, r8
 8004f1e:	464b      	mov	r3, r9
 8004f20:	1891      	adds	r1, r2, r2
 8004f22:	64b9      	str	r1, [r7, #72]	@ 0x48
 8004f24:	415b      	adcs	r3, r3
 8004f26:	64fb      	str	r3, [r7, #76]	@ 0x4c
 8004f28:	e9d7 2312 	ldrd	r2, r3, [r7, #72]	@ 0x48
 8004f2c:	4641      	mov	r1, r8
 8004f2e:	eb12 0a01 	adds.w	sl, r2, r1
 8004f32:	4649      	mov	r1, r9
 8004f34:	eb43 0b01 	adc.w	fp, r3, r1
 8004f38:	f04f 0200 	mov.w	r2, #0
 8004f3c:	f04f 0300 	mov.w	r3, #0
 8004f40:	ea4f 03cb 	mov.w	r3, fp, lsl #3
 8004f44:	ea43 735a 	orr.w	r3, r3, sl, lsr #29
 8004f48:	ea4f 02ca 	mov.w	r2, sl, lsl #3
 8004f4c:	4692      	mov	sl, r2
 8004f4e:	469b      	mov	fp, r3
 8004f50:	4643      	mov	r3, r8
 8004f52:	eb1a 0303 	adds.w	r3, sl, r3
 8004f56:	f8c7 30c8 	str.w	r3, [r7, #200]	@ 0xc8
 8004f5a:	464b      	mov	r3, r9
 8004f5c:	eb4b 0303 	adc.w	r3, fp, r3
 8004f60:	f8c7 30cc 	str.w	r3, [r7, #204]	@ 0xcc
 8004f64:	f8d7 30f4 	ldr.w	r3, [r7, #244]	@ 0xf4
 8004f68:	685b      	ldr	r3, [r3, #4]
 8004f6a:	2200      	movs	r2, #0
 8004f6c:	f8c7 30c0 	str.w	r3, [r7, #192]	@ 0xc0
 8004f70:	f8c7 20c4 	str.w	r2, [r7, #196]	@ 0xc4
 8004f74:	e9d7 1230 	ldrd	r1, r2, [r7, #192]	@ 0xc0
 8004f78:	460b      	mov	r3, r1
 8004f7a:	18db      	adds	r3, r3, r3
 8004f7c:	643b      	str	r3, [r7, #64]	@ 0x40
 8004f7e:	4613      	mov	r3, r2
 8004f80:	eb42 0303 	adc.w	r3, r2, r3
 8004f84:	647b      	str	r3, [r7, #68]	@ 0x44
 8004f86:	e9d7 2310 	ldrd	r2, r3, [r7, #64]	@ 0x40
 8004f8a:	e9d7 0132 	ldrd	r0, r1, [r7, #200]	@ 0xc8
 8004f8e:	f7fb f977 	bl	8000280 <__aeabi_uldivmod>
 8004f92:	4602      	mov	r2, r0
 8004f94:	460b      	mov	r3, r1
 8004f96:	4611      	mov	r1, r2
 8004f98:	4b3b      	ldr	r3, [pc, #236]	@ (8005088 <UART_SetConfig+0x2d4>)
 8004f9a:	fba3 2301 	umull	r2, r3, r3, r1
 8004f9e:	095b      	lsrs	r3, r3, #5
 8004fa0:	2264      	movs	r2, #100	@ 0x64
 8004fa2:	fb02 f303 	mul.w	r3, r2, r3
 8004fa6:	1acb      	subs	r3, r1, r3
 8004fa8:	00db      	lsls	r3, r3, #3
 8004faa:	f103 0232 	add.w	r2, r3, #50	@ 0x32
 8004fae:	4b36      	ldr	r3, [pc, #216]	@ (8005088 <UART_SetConfig+0x2d4>)
 8004fb0:	fba3 2302 	umull	r2, r3, r3, r2
 8004fb4:	095b      	lsrs	r3, r3, #5
 8004fb6:	005b      	lsls	r3, r3, #1
 8004fb8:	f403 73f8 	and.w	r3, r3, #496	@ 0x1f0
 8004fbc:	441c      	add	r4, r3
 8004fbe:	f8d7 30fc 	ldr.w	r3, [r7, #252]	@ 0xfc
 8004fc2:	2200      	movs	r2, #0
 8004fc4:	f8c7 30b8 	str.w	r3, [r7, #184]	@ 0xb8
 8004fc8:	f8c7 20bc 	str.w	r2, [r7, #188]	@ 0xbc
 8004fcc:	e9d7 892e 	ldrd	r8, r9, [r7, #184]	@ 0xb8
 8004fd0:	4642      	mov	r2, r8
 8004fd2:	464b      	mov	r3, r9
 8004fd4:	1891      	adds	r1, r2, r2
 8004fd6:	63b9      	str	r1, [r7, #56]	@ 0x38
 8004fd8:	415b      	adcs	r3, r3
 8004fda:	63fb      	str	r3, [r7, #60]	@ 0x3c
 8004fdc:	e9d7 230e 	ldrd	r2, r3, [r7, #56]	@ 0x38
 8004fe0:	4641      	mov	r1, r8
 8004fe2:	1851      	adds	r1, r2, r1
 8004fe4:	6339      	str	r1, [r7, #48]	@ 0x30
 8004fe6:	4649      	mov	r1, r9
 8004fe8:	414b      	adcs	r3, r1
 8004fea:	637b      	str	r3, [r7, #52]	@ 0x34
 8004fec:	f04f 0200 	mov.w	r2, #0
 8004ff0:	f04f 0300 	mov.w	r3, #0
 8004ff4:	e9d7 ab0c 	ldrd	sl, fp, [r7, #48]	@ 0x30
 8004ff8:	4659      	mov	r1, fp
 8004ffa:	00cb      	lsls	r3, r1, #3
 8004ffc:	4651      	mov	r1, sl
 8004ffe:	ea43 7351 	orr.w	r3, r3, r1, lsr #29
 8005002:	4651      	mov	r1, sl
 8005004:	00ca      	lsls	r2, r1, #3
 8005006:	4610      	mov	r0, r2
 8005008:	4619      	mov	r1, r3
 800500a:	4603      	mov	r3, r0
 800500c:	4642      	mov	r2, r8
 800500e:	189b      	adds	r3, r3, r2
 8005010:	f8c7 30b0 	str.w	r3, [r7, #176]	@ 0xb0
 8005014:	464b      	mov	r3, r9
 8005016:	460a      	mov	r2, r1
 8005018:	eb42 0303 	adc.w	r3, r2, r3
 800501c:	f8c7 30b4 	str.w	r3, [r7, #180]	@ 0xb4
 8005020:	f8d7 30f4 	ldr.w	r3, [r7, #244]	@ 0xf4
 8005024:	685b      	ldr	r3, [r3, #4]
 8005026:	2200      	movs	r2, #0
 8005028:	f8c7 30a8 	str.w	r3, [r7, #168]	@ 0xa8
 800502c:	f8c7 20ac 	str.w	r2, [r7, #172]	@ 0xac
 8005030:	e9d7 122a 	ldrd	r1, r2, [r7, #168]	@ 0xa8
 8005034:	460b      	mov	r3, r1
 8005036:	18db      	adds	r3, r3, r3
 8005038:	62bb      	str	r3, [r7, #40]	@ 0x28
 800503a:	4613      	mov	r3, r2
 800503c:	eb42 0303 	adc.w	r3, r2, r3
 8005040:	62fb      	str	r3, [r7, #44]	@ 0x2c
 8005042:	e9d7 230a 	ldrd	r2, r3, [r7, #40]	@ 0x28
 8005046:	e9d7 012c 	ldrd	r0, r1, [r7, #176]	@ 0xb0
 800504a:	f7fb f919 	bl	8000280 <__aeabi_uldivmod>
 800504e:	4602      	mov	r2, r0
 8005050:	460b      	mov	r3, r1
 8005052:	4b0d      	ldr	r3, [pc, #52]	@ (8005088 <UART_SetConfig+0x2d4>)
 8005054:	fba3 1302 	umull	r1, r3, r3, r2
 8005058:	095b      	lsrs	r3, r3, #5
 800505a:	2164      	movs	r1, #100	@ 0x64
 800505c:	fb01 f303 	mul.w	r3, r1, r3
 8005060:	1ad3      	subs	r3, r2, r3
 8005062:	00db      	lsls	r3, r3, #3
 8005064:	3332      	adds	r3, #50	@ 0x32
 8005066:	4a08      	ldr	r2, [pc, #32]	@ (8005088 <UART_SetConfig+0x2d4>)
 8005068:	fba2 2303 	umull	r2, r3, r2, r3
 800506c:	095b      	lsrs	r3, r3, #5
 800506e:	f003 0207 	and.w	r2, r3, #7
 8005072:	f8d7 30f4 	ldr.w	r3, [r7, #244]	@ 0xf4
 8005076:	681b      	ldr	r3, [r3, #0]
 8005078:	4422      	add	r2, r4
 800507a:	609a      	str	r2, [r3, #8]
  }
  else
  {
    huart->Instance->BRR = UART_BRR_SAMPLING16(pclk, huart->Init.BaudRate);
  }
}
 800507c:	e106      	b.n	800528c <UART_SetConfig+0x4d8>
 800507e:	bf00      	nop
 8005080:	40011000 	.word	0x40011000
 8005084:	40011400 	.word	0x40011400
 8005088:	51eb851f 	.word	0x51eb851f
    huart->Instance->BRR = UART_BRR_SAMPLING16(pclk, huart->Init.BaudRate);
 800508c:	f8d7 30fc 	ldr.w	r3, [r7, #252]	@ 0xfc
 8005090:	2200      	movs	r2, #0
 8005092:	f8c7 30a0 	str.w	r3, [r7, #160]	@ 0xa0
 8005096:	f8c7 20a4 	str.w	r2, [r7, #164]	@ 0xa4
 800509a:	e9d7 8928 	ldrd	r8, r9, [r7, #160]	@ 0xa0
 800509e:	4642      	mov	r2, r8
 80050a0:	464b      	mov	r3, r9
 80050a2:	1891      	adds	r1, r2, r2
 80050a4:	6239      	str	r1, [r7, #32]
 80050a6:	415b      	adcs	r3, r3
 80050a8:	627b      	str	r3, [r7, #36]	@ 0x24
 80050aa:	e9d7 2308 	ldrd	r2, r3, [r7, #32]
 80050ae:	4641      	mov	r1, r8
 80050b0:	1854      	adds	r4, r2, r1
 80050b2:	4649      	mov	r1, r9
 80050b4:	eb43 0501 	adc.w	r5, r3, r1
 80050b8:	f04f 0200 	mov.w	r2, #0
 80050bc:	f04f 0300 	mov.w	r3, #0
 80050c0:	00eb      	lsls	r3, r5, #3
 80050c2:	ea43 7354 	orr.w	r3, r3, r4, lsr #29
 80050c6:	00e2      	lsls	r2, r4, #3
 80050c8:	4614      	mov	r4, r2
 80050ca:	461d      	mov	r5, r3
 80050cc:	4643      	mov	r3, r8
 80050ce:	18e3      	adds	r3, r4, r3
 80050d0:	f8c7 3098 	str.w	r3, [r7, #152]	@ 0x98
 80050d4:	464b      	mov	r3, r9
 80050d6:	eb45 0303 	adc.w	r3, r5, r3
 80050da:	f8c7 309c 	str.w	r3, [r7, #156]	@ 0x9c
 80050de:	f8d7 30f4 	ldr.w	r3, [r7, #244]	@ 0xf4
 80050e2:	685b      	ldr	r3, [r3, #4]
 80050e4:	2200      	movs	r2, #0
 80050e6:	f8c7 3090 	str.w	r3, [r7, #144]	@ 0x90
 80050ea:	f8c7 2094 	str.w	r2, [r7, #148]	@ 0x94
 80050ee:	f04f 0200 	mov.w	r2, #0
 80050f2:	f04f 0300 	mov.w	r3, #0
 80050f6:	e9d7 4524 	ldrd	r4, r5, [r7, #144]	@ 0x90
 80050fa:	4629      	mov	r1, r5
 80050fc:	008b      	lsls	r3, r1, #2
 80050fe:	4621      	mov	r1, r4
 8005100:	ea43 7391 	orr.w	r3, r3, r1, lsr #30
 8005104:	4621      	mov	r1, r4
 8005106:	008a      	lsls	r2, r1, #2
 8005108:	e9d7 0126 	ldrd	r0, r1, [r7, #152]	@ 0x98
 800510c:	f7fb f8b8 	bl	8000280 <__aeabi_uldivmod>
 8005110:	4602      	mov	r2, r0
 8005112:	460b      	mov	r3, r1
 8005114:	4b60      	ldr	r3, [pc, #384]	@ (8005298 <UART_SetConfig+0x4e4>)
 8005116:	fba3 2302 	umull	r2, r3, r3, r2
 800511a:	095b      	lsrs	r3, r3, #5
 800511c:	011c      	lsls	r4, r3, #4
 800511e:	f8d7 30fc 	ldr.w	r3, [r7, #252]	@ 0xfc
 8005122:	2200      	movs	r2, #0
 8005124:	f8c7 3088 	str.w	r3, [r7, #136]	@ 0x88
 8005128:	f8c7 208c 	str.w	r2, [r7, #140]	@ 0x8c
 800512c:	e9d7 8922 	ldrd	r8, r9, [r7, #136]	@ 0x88
 8005130:	4642      	mov	r2, r8
 8005132:	464b      	mov	r3, r9
 8005134:	1891      	adds	r1, r2, r2
 8005136:	61b9      	str	r1, [r7, #24]
 8005138:	415b      	adcs	r3, r3
 800513a:	61fb      	str	r3, [r7, #28]
 800513c:	e9d7 2306 	ldrd	r2, r3, [r7, #24]
 8005140:	4641      	mov	r1, r8
 8005142:	1851      	adds	r1, r2, r1
 8005144:	6139      	str	r1, [r7, #16]
 8005146:	4649      	mov	r1, r9
 8005148:	414b      	adcs	r3, r1
 800514a:	617b      	str	r3, [r7, #20]
 800514c:	f04f 0200 	mov.w	r2, #0
 8005150:	f04f 0300 	mov.w	r3, #0
 8005154:	e9d7 ab04 	ldrd	sl, fp, [r7, #16]
 8005158:	4659      	mov	r1, fp
 800515a:	00cb      	lsls	r3, r1, #3
 800515c:	4651      	mov	r1, sl
 800515e:	ea43 7351 	orr.w	r3, r3, r1, lsr #29
 8005162:	4651      	mov	r1, sl
 8005164:	00ca      	lsls	r2, r1, #3
 8005166:	4610      	mov	r0, r2
 8005168:	4619      	mov	r1, r3
 800516a:	4603      	mov	r3, r0
 800516c:	4642      	mov	r2, r8
 800516e:	189b      	adds	r3, r3, r2
 8005170:	f8c7 3080 	str.w	r3, [r7, #128]	@ 0x80
 8005174:	464b      	mov	r3, r9
 8005176:	460a      	mov	r2, r1
 8005178:	eb42 0303 	adc.w	r3, r2, r3
 800517c:	f8c7 3084 	str.w	r3, [r7, #132]	@ 0x84
 8005180:	f8d7 30f4 	ldr.w	r3, [r7, #244]	@ 0xf4
 8005184:	685b      	ldr	r3, [r3, #4]
 8005186:	2200      	movs	r2, #0
 8005188:	67bb      	str	r3, [r7, #120]	@ 0x78
 800518a:	67fa      	str	r2, [r7, #124]	@ 0x7c
 800518c:	f04f 0200 	mov.w	r2, #0
 8005190:	f04f 0300 	mov.w	r3, #0
 8005194:	e9d7 891e 	ldrd	r8, r9, [r7, #120]	@ 0x78
 8005198:	4649      	mov	r1, r9
 800519a:	008b      	lsls	r3, r1, #2
 800519c:	4641      	mov	r1, r8
 800519e:	ea43 7391 	orr.w	r3, r3, r1, lsr #30
 80051a2:	4641      	mov	r1, r8
 80051a4:	008a      	lsls	r2, r1, #2
 80051a6:	e9d7 0120 	ldrd	r0, r1, [r7, #128]	@ 0x80
 80051aa:	f7fb f869 	bl	8000280 <__aeabi_uldivmod>
 80051ae:	4602      	mov	r2, r0
 80051b0:	460b      	mov	r3, r1
 80051b2:	4611      	mov	r1, r2
 80051b4:	4b38      	ldr	r3, [pc, #224]	@ (8005298 <UART_SetConfig+0x4e4>)
 80051b6:	fba3 2301 	umull	r2, r3, r3, r1
 80051ba:	095b      	lsrs	r3, r3, #5
 80051bc:	2264      	movs	r2, #100	@ 0x64
 80051be:	fb02 f303 	mul.w	r3, r2, r3
 80051c2:	1acb      	subs	r3, r1, r3
 80051c4:	011b      	lsls	r3, r3, #4
 80051c6:	3332      	adds	r3, #50	@ 0x32
 80051c8:	4a33      	ldr	r2, [pc, #204]	@ (8005298 <UART_SetConfig+0x4e4>)
 80051ca:	fba2 2303 	umull	r2, r3, r2, r3
 80051ce:	095b      	lsrs	r3, r3, #5
 80051d0:	f003 03f0 	and.w	r3, r3, #240	@ 0xf0
 80051d4:	441c      	add	r4, r3
 80051d6:	f8d7 30fc 	ldr.w	r3, [r7, #252]	@ 0xfc
 80051da:	2200      	movs	r2, #0
 80051dc:	673b      	str	r3, [r7, #112]	@ 0x70
 80051de:	677a      	str	r2, [r7, #116]	@ 0x74
 80051e0:	e9d7 891c 	ldrd	r8, r9, [r7, #112]	@ 0x70
 80051e4:	4642      	mov	r2, r8
 80051e6:	464b      	mov	r3, r9
 80051e8:	1891      	adds	r1, r2, r2
 80051ea:	60b9      	str	r1, [r7, #8]
 80051ec:	415b      	adcs	r3, r3
 80051ee:	60fb      	str	r3, [r7, #12]
 80051f0:	e9d7 2302 	ldrd	r2, r3, [r7, #8]
 80051f4:	4641      	mov	r1, r8
 80051f6:	1851      	adds	r1, r2, r1
 80051f8:	6039      	str	r1, [r7, #0]
 80051fa:	4649      	mov	r1, r9
 80051fc:	414b      	adcs	r3, r1
 80051fe:	607b      	str	r3, [r7, #4]
 8005200:	f04f 0200 	mov.w	r2, #0
 8005204:	f04f 0300 	mov.w	r3, #0
 8005208:	e9d7 ab00 	ldrd	sl, fp, [r7]
 800520c:	4659      	mov	r1, fp
 800520e:	00cb      	lsls	r3, r1, #3
 8005210:	4651      	mov	r1, sl
 8005212:	ea43 7351 	orr.w	r3, r3, r1, lsr #29
 8005216:	4651      	mov	r1, sl
 8005218:	00ca      	lsls	r2, r1, #3
 800521a:	4610      	mov	r0, r2
 800521c:	4619      	mov	r1, r3
 800521e:	4603      	mov	r3, r0
 8005220:	4642      	mov	r2, r8
 8005222:	189b      	adds	r3, r3, r2
 8005224:	66bb      	str	r3, [r7, #104]	@ 0x68
 8005226:	464b      	mov	r3, r9
 8005228:	460a      	mov	r2, r1
 800522a:	eb42 0303 	adc.w	r3, r2, r3
 800522e:	66fb      	str	r3, [r7, #108]	@ 0x6c
 8005230:	f8d7 30f4 	ldr.w	r3, [r7, #244]	@ 0xf4
 8005234:	685b      	ldr	r3, [r3, #4]
 8005236:	2200      	movs	r2, #0
 8005238:	663b      	str	r3, [r7, #96]	@ 0x60
 800523a:	667a      	str	r2, [r7, #100]	@ 0x64
 800523c:	f04f 0200 	mov.w	r2, #0
 8005240:	f04f 0300 	mov.w	r3, #0
 8005244:	e9d7 8918 	ldrd	r8, r9, [r7, #96]	@ 0x60
 8005248:	4649      	mov	r1, r9
 800524a:	008b      	lsls	r3, r1, #2
 800524c:	4641      	mov	r1, r8
 800524e:	ea43 7391 	orr.w	r3, r3, r1, lsr #30
 8005252:	4641      	mov	r1, r8
 8005254:	008a      	lsls	r2, r1, #2
 8005256:	e9d7 011a 	ldrd	r0, r1, [r7, #104]	@ 0x68
 800525a:	f7fb f811 	bl	8000280 <__aeabi_uldivmod>
 800525e:	4602      	mov	r2, r0
 8005260:	460b      	mov	r3, r1
 8005262:	4b0d      	ldr	r3, [pc, #52]	@ (8005298 <UART_SetConfig+0x4e4>)
 8005264:	fba3 1302 	umull	r1, r3, r3, r2
 8005268:	095b      	lsrs	r3, r3, #5
 800526a:	2164      	movs	r1, #100	@ 0x64
 800526c:	fb01 f303 	mul.w	r3, r1, r3
 8005270:	1ad3      	subs	r3, r2, r3
 8005272:	011b      	lsls	r3, r3, #4
 8005274:	3332      	adds	r3, #50	@ 0x32
 8005276:	4a08      	ldr	r2, [pc, #32]	@ (8005298 <UART_SetConfig+0x4e4>)
 8005278:	fba2 2303 	umull	r2, r3, r2, r3
 800527c:	095b      	lsrs	r3, r3, #5
 800527e:	f003 020f 	and.w	r2, r3, #15
 8005282:	f8d7 30f4 	ldr.w	r3, [r7, #244]	@ 0xf4
 8005286:	681b      	ldr	r3, [r3, #0]
 8005288:	4422      	add	r2, r4
 800528a:	609a      	str	r2, [r3, #8]
}
 800528c:	bf00      	nop
 800528e:	f507 7780 	add.w	r7, r7, #256	@ 0x100
 8005292:	46bd      	mov	sp, r7
 8005294:	e8bd 8fb0 	ldmia.w	sp!, {r4, r5, r7, r8, r9, sl, fp, pc}
 8005298:	51eb851f 	.word	0x51eb851f

0800529c <sniprintf>:
 800529c:	b40c      	push	{r2, r3}
 800529e:	b530      	push	{r4, r5, lr}
 80052a0:	4b18      	ldr	r3, [pc, #96]	@ (8005304 <sniprintf+0x68>)
 80052a2:	1e0c      	subs	r4, r1, #0
 80052a4:	681d      	ldr	r5, [r3, #0]
 80052a6:	b09d      	sub	sp, #116	@ 0x74
 80052a8:	da08      	bge.n	80052bc <sniprintf+0x20>
 80052aa:	238b      	movs	r3, #139	@ 0x8b
 80052ac:	602b      	str	r3, [r5, #0]
 80052ae:	f04f 30ff 	mov.w	r0, #4294967295
 80052b2:	b01d      	add	sp, #116	@ 0x74
 80052b4:	e8bd 4030 	ldmia.w	sp!, {r4, r5, lr}
 80052b8:	b002      	add	sp, #8
 80052ba:	4770      	bx	lr
 80052bc:	f44f 7302 	mov.w	r3, #520	@ 0x208
 80052c0:	f8ad 3014 	strh.w	r3, [sp, #20]
 80052c4:	f04f 0300 	mov.w	r3, #0
 80052c8:	931b      	str	r3, [sp, #108]	@ 0x6c
 80052ca:	bf14      	ite	ne
 80052cc:	f104 33ff 	addne.w	r3, r4, #4294967295
 80052d0:	4623      	moveq	r3, r4
 80052d2:	9304      	str	r3, [sp, #16]
 80052d4:	9307      	str	r3, [sp, #28]
 80052d6:	f64f 73ff 	movw	r3, #65535	@ 0xffff
 80052da:	9002      	str	r0, [sp, #8]
 80052dc:	9006      	str	r0, [sp, #24]
 80052de:	f8ad 3016 	strh.w	r3, [sp, #22]
 80052e2:	9a20      	ldr	r2, [sp, #128]	@ 0x80
 80052e4:	ab21      	add	r3, sp, #132	@ 0x84
 80052e6:	a902      	add	r1, sp, #8
 80052e8:	4628      	mov	r0, r5
 80052ea:	9301      	str	r3, [sp, #4]
 80052ec:	f000 f9e4 	bl	80056b8 <_svfiprintf_r>
 80052f0:	1c43      	adds	r3, r0, #1
 80052f2:	bfbc      	itt	lt
 80052f4:	238b      	movlt	r3, #139	@ 0x8b
 80052f6:	602b      	strlt	r3, [r5, #0]
 80052f8:	2c00      	cmp	r4, #0
 80052fa:	d0da      	beq.n	80052b2 <sniprintf+0x16>
 80052fc:	9b02      	ldr	r3, [sp, #8]
 80052fe:	2200      	movs	r2, #0
 8005300:	701a      	strb	r2, [r3, #0]
 8005302:	e7d6      	b.n	80052b2 <sniprintf+0x16>
 8005304:	2000000c 	.word	0x2000000c

08005308 <memmove>:
 8005308:	4288      	cmp	r0, r1
 800530a:	b510      	push	{r4, lr}
 800530c:	eb01 0402 	add.w	r4, r1, r2
 8005310:	d902      	bls.n	8005318 <memmove+0x10>
 8005312:	4284      	cmp	r4, r0
 8005314:	4623      	mov	r3, r4
 8005316:	d807      	bhi.n	8005328 <memmove+0x20>
 8005318:	1e43      	subs	r3, r0, #1
 800531a:	42a1      	cmp	r1, r4
 800531c:	d008      	beq.n	8005330 <memmove+0x28>
 800531e:	f811 2b01 	ldrb.w	r2, [r1], #1
 8005322:	f803 2f01 	strb.w	r2, [r3, #1]!
 8005326:	e7f8      	b.n	800531a <memmove+0x12>
 8005328:	4402      	add	r2, r0
 800532a:	4601      	mov	r1, r0
 800532c:	428a      	cmp	r2, r1
 800532e:	d100      	bne.n	8005332 <memmove+0x2a>
 8005330:	bd10      	pop	{r4, pc}
 8005332:	f813 4d01 	ldrb.w	r4, [r3, #-1]!
 8005336:	f802 4d01 	strb.w	r4, [r2, #-1]!
 800533a:	e7f7      	b.n	800532c <memmove+0x24>

0800533c <memset>:
 800533c:	4402      	add	r2, r0
 800533e:	4603      	mov	r3, r0
 8005340:	4293      	cmp	r3, r2
 8005342:	d100      	bne.n	8005346 <memset+0xa>
 8005344:	4770      	bx	lr
 8005346:	f803 1b01 	strb.w	r1, [r3], #1
 800534a:	e7f9      	b.n	8005340 <memset+0x4>

0800534c <strncmp>:
 800534c:	b510      	push	{r4, lr}
 800534e:	b16a      	cbz	r2, 800536c <strncmp+0x20>
 8005350:	3901      	subs	r1, #1
 8005352:	1884      	adds	r4, r0, r2
 8005354:	f810 2b01 	ldrb.w	r2, [r0], #1
 8005358:	f811 3f01 	ldrb.w	r3, [r1, #1]!
 800535c:	429a      	cmp	r2, r3
 800535e:	d103      	bne.n	8005368 <strncmp+0x1c>
 8005360:	42a0      	cmp	r0, r4
 8005362:	d001      	beq.n	8005368 <strncmp+0x1c>
 8005364:	2a00      	cmp	r2, #0
 8005366:	d1f5      	bne.n	8005354 <strncmp+0x8>
 8005368:	1ad0      	subs	r0, r2, r3
 800536a:	bd10      	pop	{r4, pc}
 800536c:	4610      	mov	r0, r2
 800536e:	e7fc      	b.n	800536a <strncmp+0x1e>

08005370 <strstr>:
 8005370:	780a      	ldrb	r2, [r1, #0]
 8005372:	b570      	push	{r4, r5, r6, lr}
 8005374:	b96a      	cbnz	r2, 8005392 <strstr+0x22>
 8005376:	bd70      	pop	{r4, r5, r6, pc}
 8005378:	429a      	cmp	r2, r3
 800537a:	d109      	bne.n	8005390 <strstr+0x20>
 800537c:	460c      	mov	r4, r1
 800537e:	4605      	mov	r5, r0
 8005380:	f814 3f01 	ldrb.w	r3, [r4, #1]!
 8005384:	2b00      	cmp	r3, #0
 8005386:	d0f6      	beq.n	8005376 <strstr+0x6>
 8005388:	f815 6f01 	ldrb.w	r6, [r5, #1]!
 800538c:	429e      	cmp	r6, r3
 800538e:	d0f7      	beq.n	8005380 <strstr+0x10>
 8005390:	3001      	adds	r0, #1
 8005392:	7803      	ldrb	r3, [r0, #0]
 8005394:	2b00      	cmp	r3, #0
 8005396:	d1ef      	bne.n	8005378 <strstr+0x8>
 8005398:	4618      	mov	r0, r3
 800539a:	e7ec      	b.n	8005376 <strstr+0x6>

0800539c <__errno>:
 800539c:	4b01      	ldr	r3, [pc, #4]	@ (80053a4 <__errno+0x8>)
 800539e:	6818      	ldr	r0, [r3, #0]
 80053a0:	4770      	bx	lr
 80053a2:	bf00      	nop
 80053a4:	2000000c 	.word	0x2000000c

080053a8 <__libc_init_array>:
 80053a8:	b570      	push	{r4, r5, r6, lr}
 80053aa:	4d0d      	ldr	r5, [pc, #52]	@ (80053e0 <__libc_init_array+0x38>)
 80053ac:	4c0d      	ldr	r4, [pc, #52]	@ (80053e4 <__libc_init_array+0x3c>)
 80053ae:	1b64      	subs	r4, r4, r5
 80053b0:	10a4      	asrs	r4, r4, #2
 80053b2:	2600      	movs	r6, #0
 80053b4:	42a6      	cmp	r6, r4
 80053b6:	d109      	bne.n	80053cc <__libc_init_array+0x24>
 80053b8:	4d0b      	ldr	r5, [pc, #44]	@ (80053e8 <__libc_init_array+0x40>)
 80053ba:	4c0c      	ldr	r4, [pc, #48]	@ (80053ec <__libc_init_array+0x44>)
 80053bc:	f000 fc4a 	bl	8005c54 <_init>
 80053c0:	1b64      	subs	r4, r4, r5
 80053c2:	10a4      	asrs	r4, r4, #2
 80053c4:	2600      	movs	r6, #0
 80053c6:	42a6      	cmp	r6, r4
 80053c8:	d105      	bne.n	80053d6 <__libc_init_array+0x2e>
 80053ca:	bd70      	pop	{r4, r5, r6, pc}
 80053cc:	f855 3b04 	ldr.w	r3, [r5], #4
 80053d0:	4798      	blx	r3
 80053d2:	3601      	adds	r6, #1
 80053d4:	e7ee      	b.n	80053b4 <__libc_init_array+0xc>
 80053d6:	f855 3b04 	ldr.w	r3, [r5], #4
 80053da:	4798      	blx	r3
 80053dc:	3601      	adds	r6, #1
 80053de:	e7f2      	b.n	80053c6 <__libc_init_array+0x1e>
 80053e0:	080060fc 	.word	0x080060fc
 80053e4:	080060fc 	.word	0x080060fc
 80053e8:	080060fc 	.word	0x080060fc
 80053ec:	08006100 	.word	0x08006100

080053f0 <__retarget_lock_acquire_recursive>:
 80053f0:	4770      	bx	lr

080053f2 <__retarget_lock_release_recursive>:
 80053f2:	4770      	bx	lr

080053f4 <memcpy>:
 80053f4:	440a      	add	r2, r1
 80053f6:	4291      	cmp	r1, r2
 80053f8:	f100 33ff 	add.w	r3, r0, #4294967295
 80053fc:	d100      	bne.n	8005400 <memcpy+0xc>
 80053fe:	4770      	bx	lr
 8005400:	b510      	push	{r4, lr}
 8005402:	f811 4b01 	ldrb.w	r4, [r1], #1
 8005406:	f803 4f01 	strb.w	r4, [r3, #1]!
 800540a:	4291      	cmp	r1, r2
 800540c:	d1f9      	bne.n	8005402 <memcpy+0xe>
 800540e:	bd10      	pop	{r4, pc}

08005410 <_free_r>:
 8005410:	b538      	push	{r3, r4, r5, lr}
 8005412:	4605      	mov	r5, r0
 8005414:	2900      	cmp	r1, #0
 8005416:	d041      	beq.n	800549c <_free_r+0x8c>
 8005418:	f851 3c04 	ldr.w	r3, [r1, #-4]
 800541c:	1f0c      	subs	r4, r1, #4
 800541e:	2b00      	cmp	r3, #0
 8005420:	bfb8      	it	lt
 8005422:	18e4      	addlt	r4, r4, r3
 8005424:	f000 f8e0 	bl	80055e8 <__malloc_lock>
 8005428:	4a1d      	ldr	r2, [pc, #116]	@ (80054a0 <_free_r+0x90>)
 800542a:	6813      	ldr	r3, [r2, #0]
 800542c:	b933      	cbnz	r3, 800543c <_free_r+0x2c>
 800542e:	6063      	str	r3, [r4, #4]
 8005430:	6014      	str	r4, [r2, #0]
 8005432:	4628      	mov	r0, r5
 8005434:	e8bd 4038 	ldmia.w	sp!, {r3, r4, r5, lr}
 8005438:	f000 b8dc 	b.w	80055f4 <__malloc_unlock>
 800543c:	42a3      	cmp	r3, r4
 800543e:	d908      	bls.n	8005452 <_free_r+0x42>
 8005440:	6820      	ldr	r0, [r4, #0]
 8005442:	1821      	adds	r1, r4, r0
 8005444:	428b      	cmp	r3, r1
 8005446:	bf01      	itttt	eq
 8005448:	6819      	ldreq	r1, [r3, #0]
 800544a:	685b      	ldreq	r3, [r3, #4]
 800544c:	1809      	addeq	r1, r1, r0
 800544e:	6021      	streq	r1, [r4, #0]
 8005450:	e7ed      	b.n	800542e <_free_r+0x1e>
 8005452:	461a      	mov	r2, r3
 8005454:	685b      	ldr	r3, [r3, #4]
 8005456:	b10b      	cbz	r3, 800545c <_free_r+0x4c>
 8005458:	42a3      	cmp	r3, r4
 800545a:	d9fa      	bls.n	8005452 <_free_r+0x42>
 800545c:	6811      	ldr	r1, [r2, #0]
 800545e:	1850      	adds	r0, r2, r1
 8005460:	42a0      	cmp	r0, r4
 8005462:	d10b      	bne.n	800547c <_free_r+0x6c>
 8005464:	6820      	ldr	r0, [r4, #0]
 8005466:	4401      	add	r1, r0
 8005468:	1850      	adds	r0, r2, r1
 800546a:	4283      	cmp	r3, r0
 800546c:	6011      	str	r1, [r2, #0]
 800546e:	d1e0      	bne.n	8005432 <_free_r+0x22>
 8005470:	6818      	ldr	r0, [r3, #0]
 8005472:	685b      	ldr	r3, [r3, #4]
 8005474:	6053      	str	r3, [r2, #4]
 8005476:	4408      	add	r0, r1
 8005478:	6010      	str	r0, [r2, #0]
 800547a:	e7da      	b.n	8005432 <_free_r+0x22>
 800547c:	d902      	bls.n	8005484 <_free_r+0x74>
 800547e:	230c      	movs	r3, #12
 8005480:	602b      	str	r3, [r5, #0]
 8005482:	e7d6      	b.n	8005432 <_free_r+0x22>
 8005484:	6820      	ldr	r0, [r4, #0]
 8005486:	1821      	adds	r1, r4, r0
 8005488:	428b      	cmp	r3, r1
 800548a:	bf04      	itt	eq
 800548c:	6819      	ldreq	r1, [r3, #0]
 800548e:	685b      	ldreq	r3, [r3, #4]
 8005490:	6063      	str	r3, [r4, #4]
 8005492:	bf04      	itt	eq
 8005494:	1809      	addeq	r1, r1, r0
 8005496:	6021      	streq	r1, [r4, #0]
 8005498:	6054      	str	r4, [r2, #4]
 800549a:	e7ca      	b.n	8005432 <_free_r+0x22>
 800549c:	bd38      	pop	{r3, r4, r5, pc}
 800549e:	bf00      	nop
 80054a0:	20000558 	.word	0x20000558

080054a4 <sbrk_aligned>:
 80054a4:	b570      	push	{r4, r5, r6, lr}
 80054a6:	4e0f      	ldr	r6, [pc, #60]	@ (80054e4 <sbrk_aligned+0x40>)
 80054a8:	460c      	mov	r4, r1
 80054aa:	6831      	ldr	r1, [r6, #0]
 80054ac:	4605      	mov	r5, r0
 80054ae:	b911      	cbnz	r1, 80054b6 <sbrk_aligned+0x12>
 80054b0:	f000 fb8a 	bl	8005bc8 <_sbrk_r>
 80054b4:	6030      	str	r0, [r6, #0]
 80054b6:	4621      	mov	r1, r4
 80054b8:	4628      	mov	r0, r5
 80054ba:	f000 fb85 	bl	8005bc8 <_sbrk_r>
 80054be:	1c43      	adds	r3, r0, #1
 80054c0:	d103      	bne.n	80054ca <sbrk_aligned+0x26>
 80054c2:	f04f 34ff 	mov.w	r4, #4294967295
 80054c6:	4620      	mov	r0, r4
 80054c8:	bd70      	pop	{r4, r5, r6, pc}
 80054ca:	1cc4      	adds	r4, r0, #3
 80054cc:	f024 0403 	bic.w	r4, r4, #3
 80054d0:	42a0      	cmp	r0, r4
 80054d2:	d0f8      	beq.n	80054c6 <sbrk_aligned+0x22>
 80054d4:	1a21      	subs	r1, r4, r0
 80054d6:	4628      	mov	r0, r5
 80054d8:	f000 fb76 	bl	8005bc8 <_sbrk_r>
 80054dc:	3001      	adds	r0, #1
 80054de:	d1f2      	bne.n	80054c6 <sbrk_aligned+0x22>
 80054e0:	e7ef      	b.n	80054c2 <sbrk_aligned+0x1e>
 80054e2:	bf00      	nop
 80054e4:	20000554 	.word	0x20000554

080054e8 <_malloc_r>:
 80054e8:	e92d 43f8 	stmdb	sp!, {r3, r4, r5, r6, r7, r8, r9, lr}
 80054ec:	1ccd      	adds	r5, r1, #3
 80054ee:	f025 0503 	bic.w	r5, r5, #3
 80054f2:	3508      	adds	r5, #8
 80054f4:	2d0c      	cmp	r5, #12
 80054f6:	bf38      	it	cc
 80054f8:	250c      	movcc	r5, #12
 80054fa:	2d00      	cmp	r5, #0
 80054fc:	4606      	mov	r6, r0
 80054fe:	db01      	blt.n	8005504 <_malloc_r+0x1c>
 8005500:	42a9      	cmp	r1, r5
 8005502:	d904      	bls.n	800550e <_malloc_r+0x26>
 8005504:	230c      	movs	r3, #12
 8005506:	6033      	str	r3, [r6, #0]
 8005508:	2000      	movs	r0, #0
 800550a:	e8bd 83f8 	ldmia.w	sp!, {r3, r4, r5, r6, r7, r8, r9, pc}
 800550e:	f8df 80d4 	ldr.w	r8, [pc, #212]	@ 80055e4 <_malloc_r+0xfc>
 8005512:	f000 f869 	bl	80055e8 <__malloc_lock>
 8005516:	f8d8 3000 	ldr.w	r3, [r8]
 800551a:	461c      	mov	r4, r3
 800551c:	bb44      	cbnz	r4, 8005570 <_malloc_r+0x88>
 800551e:	4629      	mov	r1, r5
 8005520:	4630      	mov	r0, r6
 8005522:	f7ff ffbf 	bl	80054a4 <sbrk_aligned>
 8005526:	1c43      	adds	r3, r0, #1
 8005528:	4604      	mov	r4, r0
 800552a:	d158      	bne.n	80055de <_malloc_r+0xf6>
 800552c:	f8d8 4000 	ldr.w	r4, [r8]
 8005530:	4627      	mov	r7, r4
 8005532:	2f00      	cmp	r7, #0
 8005534:	d143      	bne.n	80055be <_malloc_r+0xd6>
 8005536:	2c00      	cmp	r4, #0
 8005538:	d04b      	beq.n	80055d2 <_malloc_r+0xea>
 800553a:	6823      	ldr	r3, [r4, #0]
 800553c:	4639      	mov	r1, r7
 800553e:	4630      	mov	r0, r6
 8005540:	eb04 0903 	add.w	r9, r4, r3
 8005544:	f000 fb40 	bl	8005bc8 <_sbrk_r>
 8005548:	4581      	cmp	r9, r0
 800554a:	d142      	bne.n	80055d2 <_malloc_r+0xea>
 800554c:	6821      	ldr	r1, [r4, #0]
 800554e:	1a6d      	subs	r5, r5, r1
 8005550:	4629      	mov	r1, r5
 8005552:	4630      	mov	r0, r6
 8005554:	f7ff ffa6 	bl	80054a4 <sbrk_aligned>
 8005558:	3001      	adds	r0, #1
 800555a:	d03a      	beq.n	80055d2 <_malloc_r+0xea>
 800555c:	6823      	ldr	r3, [r4, #0]
 800555e:	442b      	add	r3, r5
 8005560:	6023      	str	r3, [r4, #0]
 8005562:	f8d8 3000 	ldr.w	r3, [r8]
 8005566:	685a      	ldr	r2, [r3, #4]
 8005568:	bb62      	cbnz	r2, 80055c4 <_malloc_r+0xdc>
 800556a:	f8c8 7000 	str.w	r7, [r8]
 800556e:	e00f      	b.n	8005590 <_malloc_r+0xa8>
 8005570:	6822      	ldr	r2, [r4, #0]
 8005572:	1b52      	subs	r2, r2, r5
 8005574:	d420      	bmi.n	80055b8 <_malloc_r+0xd0>
 8005576:	2a0b      	cmp	r2, #11
 8005578:	d917      	bls.n	80055aa <_malloc_r+0xc2>
 800557a:	1961      	adds	r1, r4, r5
 800557c:	42a3      	cmp	r3, r4
 800557e:	6025      	str	r5, [r4, #0]
 8005580:	bf18      	it	ne
 8005582:	6059      	strne	r1, [r3, #4]
 8005584:	6863      	ldr	r3, [r4, #4]
 8005586:	bf08      	it	eq
 8005588:	f8c8 1000 	streq.w	r1, [r8]
 800558c:	5162      	str	r2, [r4, r5]
 800558e:	604b      	str	r3, [r1, #4]
 8005590:	4630      	mov	r0, r6
 8005592:	f000 f82f 	bl	80055f4 <__malloc_unlock>
 8005596:	f104 000b 	add.w	r0, r4, #11
 800559a:	1d23      	adds	r3, r4, #4
 800559c:	f020 0007 	bic.w	r0, r0, #7
 80055a0:	1ac2      	subs	r2, r0, r3
 80055a2:	bf1c      	itt	ne
 80055a4:	1a1b      	subne	r3, r3, r0
 80055a6:	50a3      	strne	r3, [r4, r2]
 80055a8:	e7af      	b.n	800550a <_malloc_r+0x22>
 80055aa:	6862      	ldr	r2, [r4, #4]
 80055ac:	42a3      	cmp	r3, r4
 80055ae:	bf0c      	ite	eq
 80055b0:	f8c8 2000 	streq.w	r2, [r8]
 80055b4:	605a      	strne	r2, [r3, #4]
 80055b6:	e7eb      	b.n	8005590 <_malloc_r+0xa8>
 80055b8:	4623      	mov	r3, r4
 80055ba:	6864      	ldr	r4, [r4, #4]
 80055bc:	e7ae      	b.n	800551c <_malloc_r+0x34>
 80055be:	463c      	mov	r4, r7
 80055c0:	687f      	ldr	r7, [r7, #4]
 80055c2:	e7b6      	b.n	8005532 <_malloc_r+0x4a>
 80055c4:	461a      	mov	r2, r3
 80055c6:	685b      	ldr	r3, [r3, #4]
 80055c8:	42a3      	cmp	r3, r4
 80055ca:	d1fb      	bne.n	80055c4 <_malloc_r+0xdc>
 80055cc:	2300      	movs	r3, #0
 80055ce:	6053      	str	r3, [r2, #4]
 80055d0:	e7de      	b.n	8005590 <_malloc_r+0xa8>
 80055d2:	230c      	movs	r3, #12
 80055d4:	6033      	str	r3, [r6, #0]
 80055d6:	4630      	mov	r0, r6
 80055d8:	f000 f80c 	bl	80055f4 <__malloc_unlock>
 80055dc:	e794      	b.n	8005508 <_malloc_r+0x20>
 80055de:	6005      	str	r5, [r0, #0]
 80055e0:	e7d6      	b.n	8005590 <_malloc_r+0xa8>
 80055e2:	bf00      	nop
 80055e4:	20000558 	.word	0x20000558

080055e8 <__malloc_lock>:
 80055e8:	4801      	ldr	r0, [pc, #4]	@ (80055f0 <__malloc_lock+0x8>)
 80055ea:	f7ff bf01 	b.w	80053f0 <__retarget_lock_acquire_recursive>
 80055ee:	bf00      	nop
 80055f0:	20000550 	.word	0x20000550

080055f4 <__malloc_unlock>:
 80055f4:	4801      	ldr	r0, [pc, #4]	@ (80055fc <__malloc_unlock+0x8>)
 80055f6:	f7ff befc 	b.w	80053f2 <__retarget_lock_release_recursive>
 80055fa:	bf00      	nop
 80055fc:	20000550 	.word	0x20000550

08005600 <__ssputs_r>:
 8005600:	e92d 47f0 	stmdb	sp!, {r4, r5, r6, r7, r8, r9, sl, lr}
 8005604:	688e      	ldr	r6, [r1, #8]
 8005606:	461f      	mov	r7, r3
 8005608:	42be      	cmp	r6, r7
 800560a:	680b      	ldr	r3, [r1, #0]
 800560c:	4682      	mov	sl, r0
 800560e:	460c      	mov	r4, r1
 8005610:	4690      	mov	r8, r2
 8005612:	d82d      	bhi.n	8005670 <__ssputs_r+0x70>
 8005614:	f9b1 200c 	ldrsh.w	r2, [r1, #12]
 8005618:	f412 6f90 	tst.w	r2, #1152	@ 0x480
 800561c:	d026      	beq.n	800566c <__ssputs_r+0x6c>
 800561e:	6965      	ldr	r5, [r4, #20]
 8005620:	6909      	ldr	r1, [r1, #16]
 8005622:	eb05 0545 	add.w	r5, r5, r5, lsl #1
 8005626:	eba3 0901 	sub.w	r9, r3, r1
 800562a:	eb05 75d5 	add.w	r5, r5, r5, lsr #31
 800562e:	1c7b      	adds	r3, r7, #1
 8005630:	444b      	add	r3, r9
 8005632:	106d      	asrs	r5, r5, #1
 8005634:	429d      	cmp	r5, r3
 8005636:	bf38      	it	cc
 8005638:	461d      	movcc	r5, r3
 800563a:	0553      	lsls	r3, r2, #21
 800563c:	d527      	bpl.n	800568e <__ssputs_r+0x8e>
 800563e:	4629      	mov	r1, r5
 8005640:	f7ff ff52 	bl	80054e8 <_malloc_r>
 8005644:	4606      	mov	r6, r0
 8005646:	b360      	cbz	r0, 80056a2 <__ssputs_r+0xa2>
 8005648:	6921      	ldr	r1, [r4, #16]
 800564a:	464a      	mov	r2, r9
 800564c:	f7ff fed2 	bl	80053f4 <memcpy>
 8005650:	89a3      	ldrh	r3, [r4, #12]
 8005652:	f423 6390 	bic.w	r3, r3, #1152	@ 0x480
 8005656:	f043 0380 	orr.w	r3, r3, #128	@ 0x80
 800565a:	81a3      	strh	r3, [r4, #12]
 800565c:	6126      	str	r6, [r4, #16]
 800565e:	6165      	str	r5, [r4, #20]
 8005660:	444e      	add	r6, r9
 8005662:	eba5 0509 	sub.w	r5, r5, r9
 8005666:	6026      	str	r6, [r4, #0]
 8005668:	60a5      	str	r5, [r4, #8]
 800566a:	463e      	mov	r6, r7
 800566c:	42be      	cmp	r6, r7
 800566e:	d900      	bls.n	8005672 <__ssputs_r+0x72>
 8005670:	463e      	mov	r6, r7
 8005672:	6820      	ldr	r0, [r4, #0]
 8005674:	4632      	mov	r2, r6
 8005676:	4641      	mov	r1, r8
 8005678:	f7ff fe46 	bl	8005308 <memmove>
 800567c:	68a3      	ldr	r3, [r4, #8]
 800567e:	1b9b      	subs	r3, r3, r6
 8005680:	60a3      	str	r3, [r4, #8]
 8005682:	6823      	ldr	r3, [r4, #0]
 8005684:	4433      	add	r3, r6
 8005686:	6023      	str	r3, [r4, #0]
 8005688:	2000      	movs	r0, #0
 800568a:	e8bd 87f0 	ldmia.w	sp!, {r4, r5, r6, r7, r8, r9, sl, pc}
 800568e:	462a      	mov	r2, r5
 8005690:	f000 faaa 	bl	8005be8 <_realloc_r>
 8005694:	4606      	mov	r6, r0
 8005696:	2800      	cmp	r0, #0
 8005698:	d1e0      	bne.n	800565c <__ssputs_r+0x5c>
 800569a:	6921      	ldr	r1, [r4, #16]
 800569c:	4650      	mov	r0, sl
 800569e:	f7ff feb7 	bl	8005410 <_free_r>
 80056a2:	230c      	movs	r3, #12
 80056a4:	f8ca 3000 	str.w	r3, [sl]
 80056a8:	89a3      	ldrh	r3, [r4, #12]
 80056aa:	f043 0340 	orr.w	r3, r3, #64	@ 0x40
 80056ae:	81a3      	strh	r3, [r4, #12]
 80056b0:	f04f 30ff 	mov.w	r0, #4294967295
 80056b4:	e7e9      	b.n	800568a <__ssputs_r+0x8a>
	...

080056b8 <_svfiprintf_r>:
 80056b8:	e92d 4ff0 	stmdb	sp!, {r4, r5, r6, r7, r8, r9, sl, fp, lr}
 80056bc:	4698      	mov	r8, r3
 80056be:	898b      	ldrh	r3, [r1, #12]
 80056c0:	061b      	lsls	r3, r3, #24
 80056c2:	b09d      	sub	sp, #116	@ 0x74
 80056c4:	4607      	mov	r7, r0
 80056c6:	460d      	mov	r5, r1
 80056c8:	4614      	mov	r4, r2
 80056ca:	d510      	bpl.n	80056ee <_svfiprintf_r+0x36>
 80056cc:	690b      	ldr	r3, [r1, #16]
 80056ce:	b973      	cbnz	r3, 80056ee <_svfiprintf_r+0x36>
 80056d0:	2140      	movs	r1, #64	@ 0x40
 80056d2:	f7ff ff09 	bl	80054e8 <_malloc_r>
 80056d6:	6028      	str	r0, [r5, #0]
 80056d8:	6128      	str	r0, [r5, #16]
 80056da:	b930      	cbnz	r0, 80056ea <_svfiprintf_r+0x32>
 80056dc:	230c      	movs	r3, #12
 80056de:	603b      	str	r3, [r7, #0]
 80056e0:	f04f 30ff 	mov.w	r0, #4294967295
 80056e4:	b01d      	add	sp, #116	@ 0x74
 80056e6:	e8bd 8ff0 	ldmia.w	sp!, {r4, r5, r6, r7, r8, r9, sl, fp, pc}
 80056ea:	2340      	movs	r3, #64	@ 0x40
 80056ec:	616b      	str	r3, [r5, #20]
 80056ee:	2300      	movs	r3, #0
 80056f0:	9309      	str	r3, [sp, #36]	@ 0x24
 80056f2:	2320      	movs	r3, #32
 80056f4:	f88d 3029 	strb.w	r3, [sp, #41]	@ 0x29
 80056f8:	f8cd 800c 	str.w	r8, [sp, #12]
 80056fc:	2330      	movs	r3, #48	@ 0x30
 80056fe:	f8df 819c 	ldr.w	r8, [pc, #412]	@ 800589c <_svfiprintf_r+0x1e4>
 8005702:	f88d 302a 	strb.w	r3, [sp, #42]	@ 0x2a
 8005706:	f04f 0901 	mov.w	r9, #1
 800570a:	4623      	mov	r3, r4
 800570c:	469a      	mov	sl, r3
 800570e:	f813 2b01 	ldrb.w	r2, [r3], #1
 8005712:	b10a      	cbz	r2, 8005718 <_svfiprintf_r+0x60>
 8005714:	2a25      	cmp	r2, #37	@ 0x25
 8005716:	d1f9      	bne.n	800570c <_svfiprintf_r+0x54>
 8005718:	ebba 0b04 	subs.w	fp, sl, r4
 800571c:	d00b      	beq.n	8005736 <_svfiprintf_r+0x7e>
 800571e:	465b      	mov	r3, fp
 8005720:	4622      	mov	r2, r4
 8005722:	4629      	mov	r1, r5
 8005724:	4638      	mov	r0, r7
 8005726:	f7ff ff6b 	bl	8005600 <__ssputs_r>
 800572a:	3001      	adds	r0, #1
 800572c:	f000 80a7 	beq.w	800587e <_svfiprintf_r+0x1c6>
 8005730:	9a09      	ldr	r2, [sp, #36]	@ 0x24
 8005732:	445a      	add	r2, fp
 8005734:	9209      	str	r2, [sp, #36]	@ 0x24
 8005736:	f89a 3000 	ldrb.w	r3, [sl]
 800573a:	2b00      	cmp	r3, #0
 800573c:	f000 809f 	beq.w	800587e <_svfiprintf_r+0x1c6>
 8005740:	2300      	movs	r3, #0
 8005742:	f04f 32ff 	mov.w	r2, #4294967295
 8005746:	e9cd 2305 	strd	r2, r3, [sp, #20]
 800574a:	f10a 0a01 	add.w	sl, sl, #1
 800574e:	9304      	str	r3, [sp, #16]
 8005750:	9307      	str	r3, [sp, #28]
 8005752:	f88d 3053 	strb.w	r3, [sp, #83]	@ 0x53
 8005756:	931a      	str	r3, [sp, #104]	@ 0x68
 8005758:	4654      	mov	r4, sl
 800575a:	2205      	movs	r2, #5
 800575c:	f814 1b01 	ldrb.w	r1, [r4], #1
 8005760:	484e      	ldr	r0, [pc, #312]	@ (800589c <_svfiprintf_r+0x1e4>)
 8005762:	f7fa fd3d 	bl	80001e0 <memchr>
 8005766:	9a04      	ldr	r2, [sp, #16]
 8005768:	b9d8      	cbnz	r0, 80057a2 <_svfiprintf_r+0xea>
 800576a:	06d0      	lsls	r0, r2, #27
 800576c:	bf44      	itt	mi
 800576e:	2320      	movmi	r3, #32
 8005770:	f88d 3053 	strbmi.w	r3, [sp, #83]	@ 0x53
 8005774:	0711      	lsls	r1, r2, #28
 8005776:	bf44      	itt	mi
 8005778:	232b      	movmi	r3, #43	@ 0x2b
 800577a:	f88d 3053 	strbmi.w	r3, [sp, #83]	@ 0x53
 800577e:	f89a 3000 	ldrb.w	r3, [sl]
 8005782:	2b2a      	cmp	r3, #42	@ 0x2a
 8005784:	d015      	beq.n	80057b2 <_svfiprintf_r+0xfa>
 8005786:	9a07      	ldr	r2, [sp, #28]
 8005788:	4654      	mov	r4, sl
 800578a:	2000      	movs	r0, #0
 800578c:	f04f 0c0a 	mov.w	ip, #10
 8005790:	4621      	mov	r1, r4
 8005792:	f811 3b01 	ldrb.w	r3, [r1], #1
 8005796:	3b30      	subs	r3, #48	@ 0x30
 8005798:	2b09      	cmp	r3, #9
 800579a:	d94b      	bls.n	8005834 <_svfiprintf_r+0x17c>
 800579c:	b1b0      	cbz	r0, 80057cc <_svfiprintf_r+0x114>
 800579e:	9207      	str	r2, [sp, #28]
 80057a0:	e014      	b.n	80057cc <_svfiprintf_r+0x114>
 80057a2:	eba0 0308 	sub.w	r3, r0, r8
 80057a6:	fa09 f303 	lsl.w	r3, r9, r3
 80057aa:	4313      	orrs	r3, r2
 80057ac:	9304      	str	r3, [sp, #16]
 80057ae:	46a2      	mov	sl, r4
 80057b0:	e7d2      	b.n	8005758 <_svfiprintf_r+0xa0>
 80057b2:	9b03      	ldr	r3, [sp, #12]
 80057b4:	1d19      	adds	r1, r3, #4
 80057b6:	681b      	ldr	r3, [r3, #0]
 80057b8:	9103      	str	r1, [sp, #12]
 80057ba:	2b00      	cmp	r3, #0
 80057bc:	bfbb      	ittet	lt
 80057be:	425b      	neglt	r3, r3
 80057c0:	f042 0202 	orrlt.w	r2, r2, #2
 80057c4:	9307      	strge	r3, [sp, #28]
 80057c6:	9307      	strlt	r3, [sp, #28]
 80057c8:	bfb8      	it	lt
 80057ca:	9204      	strlt	r2, [sp, #16]
 80057cc:	7823      	ldrb	r3, [r4, #0]
 80057ce:	2b2e      	cmp	r3, #46	@ 0x2e
 80057d0:	d10a      	bne.n	80057e8 <_svfiprintf_r+0x130>
 80057d2:	7863      	ldrb	r3, [r4, #1]
 80057d4:	2b2a      	cmp	r3, #42	@ 0x2a
 80057d6:	d132      	bne.n	800583e <_svfiprintf_r+0x186>
 80057d8:	9b03      	ldr	r3, [sp, #12]
 80057da:	1d1a      	adds	r2, r3, #4
 80057dc:	681b      	ldr	r3, [r3, #0]
 80057de:	9203      	str	r2, [sp, #12]
 80057e0:	ea43 73e3 	orr.w	r3, r3, r3, asr #31
 80057e4:	3402      	adds	r4, #2
 80057e6:	9305      	str	r3, [sp, #20]
 80057e8:	f8df a0c0 	ldr.w	sl, [pc, #192]	@ 80058ac <_svfiprintf_r+0x1f4>
 80057ec:	7821      	ldrb	r1, [r4, #0]
 80057ee:	2203      	movs	r2, #3
 80057f0:	4650      	mov	r0, sl
 80057f2:	f7fa fcf5 	bl	80001e0 <memchr>
 80057f6:	b138      	cbz	r0, 8005808 <_svfiprintf_r+0x150>
 80057f8:	9b04      	ldr	r3, [sp, #16]
 80057fa:	eba0 000a 	sub.w	r0, r0, sl
 80057fe:	2240      	movs	r2, #64	@ 0x40
 8005800:	4082      	lsls	r2, r0
 8005802:	4313      	orrs	r3, r2
 8005804:	3401      	adds	r4, #1
 8005806:	9304      	str	r3, [sp, #16]
 8005808:	f814 1b01 	ldrb.w	r1, [r4], #1
 800580c:	4824      	ldr	r0, [pc, #144]	@ (80058a0 <_svfiprintf_r+0x1e8>)
 800580e:	f88d 1028 	strb.w	r1, [sp, #40]	@ 0x28
 8005812:	2206      	movs	r2, #6
 8005814:	f7fa fce4 	bl	80001e0 <memchr>
 8005818:	2800      	cmp	r0, #0
 800581a:	d036      	beq.n	800588a <_svfiprintf_r+0x1d2>
 800581c:	4b21      	ldr	r3, [pc, #132]	@ (80058a4 <_svfiprintf_r+0x1ec>)
 800581e:	bb1b      	cbnz	r3, 8005868 <_svfiprintf_r+0x1b0>
 8005820:	9b03      	ldr	r3, [sp, #12]
 8005822:	3307      	adds	r3, #7
 8005824:	f023 0307 	bic.w	r3, r3, #7
 8005828:	3308      	adds	r3, #8
 800582a:	9303      	str	r3, [sp, #12]
 800582c:	9b09      	ldr	r3, [sp, #36]	@ 0x24
 800582e:	4433      	add	r3, r6
 8005830:	9309      	str	r3, [sp, #36]	@ 0x24
 8005832:	e76a      	b.n	800570a <_svfiprintf_r+0x52>
 8005834:	fb0c 3202 	mla	r2, ip, r2, r3
 8005838:	460c      	mov	r4, r1
 800583a:	2001      	movs	r0, #1
 800583c:	e7a8      	b.n	8005790 <_svfiprintf_r+0xd8>
 800583e:	2300      	movs	r3, #0
 8005840:	3401      	adds	r4, #1
 8005842:	9305      	str	r3, [sp, #20]
 8005844:	4619      	mov	r1, r3
 8005846:	f04f 0c0a 	mov.w	ip, #10
 800584a:	4620      	mov	r0, r4
 800584c:	f810 2b01 	ldrb.w	r2, [r0], #1
 8005850:	3a30      	subs	r2, #48	@ 0x30
 8005852:	2a09      	cmp	r2, #9
 8005854:	d903      	bls.n	800585e <_svfiprintf_r+0x1a6>
 8005856:	2b00      	cmp	r3, #0
 8005858:	d0c6      	beq.n	80057e8 <_svfiprintf_r+0x130>
 800585a:	9105      	str	r1, [sp, #20]
 800585c:	e7c4      	b.n	80057e8 <_svfiprintf_r+0x130>
 800585e:	fb0c 2101 	mla	r1, ip, r1, r2
 8005862:	4604      	mov	r4, r0
 8005864:	2301      	movs	r3, #1
 8005866:	e7f0      	b.n	800584a <_svfiprintf_r+0x192>
 8005868:	ab03      	add	r3, sp, #12
 800586a:	9300      	str	r3, [sp, #0]
 800586c:	462a      	mov	r2, r5
 800586e:	4b0e      	ldr	r3, [pc, #56]	@ (80058a8 <_svfiprintf_r+0x1f0>)
 8005870:	a904      	add	r1, sp, #16
 8005872:	4638      	mov	r0, r7
 8005874:	f3af 8000 	nop.w
 8005878:	1c42      	adds	r2, r0, #1
 800587a:	4606      	mov	r6, r0
 800587c:	d1d6      	bne.n	800582c <_svfiprintf_r+0x174>
 800587e:	89ab      	ldrh	r3, [r5, #12]
 8005880:	065b      	lsls	r3, r3, #25
 8005882:	f53f af2d 	bmi.w	80056e0 <_svfiprintf_r+0x28>
 8005886:	9809      	ldr	r0, [sp, #36]	@ 0x24
 8005888:	e72c      	b.n	80056e4 <_svfiprintf_r+0x2c>
 800588a:	ab03      	add	r3, sp, #12
 800588c:	9300      	str	r3, [sp, #0]
 800588e:	462a      	mov	r2, r5
 8005890:	4b05      	ldr	r3, [pc, #20]	@ (80058a8 <_svfiprintf_r+0x1f0>)
 8005892:	a904      	add	r1, sp, #16
 8005894:	4638      	mov	r0, r7
 8005896:	f000 f879 	bl	800598c <_printf_i>
 800589a:	e7ed      	b.n	8005878 <_svfiprintf_r+0x1c0>
 800589c:	080060c0 	.word	0x080060c0
 80058a0:	080060ca 	.word	0x080060ca
 80058a4:	00000000 	.word	0x00000000
 80058a8:	08005601 	.word	0x08005601
 80058ac:	080060c6 	.word	0x080060c6

080058b0 <_printf_common>:
 80058b0:	e92d 47f0 	stmdb	sp!, {r4, r5, r6, r7, r8, r9, sl, lr}
 80058b4:	4616      	mov	r6, r2
 80058b6:	4698      	mov	r8, r3
 80058b8:	688a      	ldr	r2, [r1, #8]
 80058ba:	690b      	ldr	r3, [r1, #16]
 80058bc:	f8dd 9020 	ldr.w	r9, [sp, #32]
 80058c0:	4293      	cmp	r3, r2
 80058c2:	bfb8      	it	lt
 80058c4:	4613      	movlt	r3, r2
 80058c6:	6033      	str	r3, [r6, #0]
 80058c8:	f891 2043 	ldrb.w	r2, [r1, #67]	@ 0x43
 80058cc:	4607      	mov	r7, r0
 80058ce:	460c      	mov	r4, r1
 80058d0:	b10a      	cbz	r2, 80058d6 <_printf_common+0x26>
 80058d2:	3301      	adds	r3, #1
 80058d4:	6033      	str	r3, [r6, #0]
 80058d6:	6823      	ldr	r3, [r4, #0]
 80058d8:	0699      	lsls	r1, r3, #26
 80058da:	bf42      	ittt	mi
 80058dc:	6833      	ldrmi	r3, [r6, #0]
 80058de:	3302      	addmi	r3, #2
 80058e0:	6033      	strmi	r3, [r6, #0]
 80058e2:	6825      	ldr	r5, [r4, #0]
 80058e4:	f015 0506 	ands.w	r5, r5, #6
 80058e8:	d106      	bne.n	80058f8 <_printf_common+0x48>
 80058ea:	f104 0a19 	add.w	sl, r4, #25
 80058ee:	68e3      	ldr	r3, [r4, #12]
 80058f0:	6832      	ldr	r2, [r6, #0]
 80058f2:	1a9b      	subs	r3, r3, r2
 80058f4:	42ab      	cmp	r3, r5
 80058f6:	dc26      	bgt.n	8005946 <_printf_common+0x96>
 80058f8:	f894 3043 	ldrb.w	r3, [r4, #67]	@ 0x43
 80058fc:	6822      	ldr	r2, [r4, #0]
 80058fe:	3b00      	subs	r3, #0
 8005900:	bf18      	it	ne
 8005902:	2301      	movne	r3, #1
 8005904:	0692      	lsls	r2, r2, #26
 8005906:	d42b      	bmi.n	8005960 <_printf_common+0xb0>
 8005908:	f104 0243 	add.w	r2, r4, #67	@ 0x43
 800590c:	4641      	mov	r1, r8
 800590e:	4638      	mov	r0, r7
 8005910:	47c8      	blx	r9
 8005912:	3001      	adds	r0, #1
 8005914:	d01e      	beq.n	8005954 <_printf_common+0xa4>
 8005916:	6823      	ldr	r3, [r4, #0]
 8005918:	6922      	ldr	r2, [r4, #16]
 800591a:	f003 0306 	and.w	r3, r3, #6
 800591e:	2b04      	cmp	r3, #4
 8005920:	bf02      	ittt	eq
 8005922:	68e5      	ldreq	r5, [r4, #12]
 8005924:	6833      	ldreq	r3, [r6, #0]
 8005926:	1aed      	subeq	r5, r5, r3
 8005928:	68a3      	ldr	r3, [r4, #8]
 800592a:	bf0c      	ite	eq
 800592c:	ea25 75e5 	biceq.w	r5, r5, r5, asr #31
 8005930:	2500      	movne	r5, #0
 8005932:	4293      	cmp	r3, r2
 8005934:	bfc4      	itt	gt
 8005936:	1a9b      	subgt	r3, r3, r2
 8005938:	18ed      	addgt	r5, r5, r3
 800593a:	2600      	movs	r6, #0
 800593c:	341a      	adds	r4, #26
 800593e:	42b5      	cmp	r5, r6
 8005940:	d11a      	bne.n	8005978 <_printf_common+0xc8>
 8005942:	2000      	movs	r0, #0
 8005944:	e008      	b.n	8005958 <_printf_common+0xa8>
 8005946:	2301      	movs	r3, #1
 8005948:	4652      	mov	r2, sl
 800594a:	4641      	mov	r1, r8
 800594c:	4638      	mov	r0, r7
 800594e:	47c8      	blx	r9
 8005950:	3001      	adds	r0, #1
 8005952:	d103      	bne.n	800595c <_printf_common+0xac>
 8005954:	f04f 30ff 	mov.w	r0, #4294967295
 8005958:	e8bd 87f0 	ldmia.w	sp!, {r4, r5, r6, r7, r8, r9, sl, pc}
 800595c:	3501      	adds	r5, #1
 800595e:	e7c6      	b.n	80058ee <_printf_common+0x3e>
 8005960:	18e1      	adds	r1, r4, r3
 8005962:	1c5a      	adds	r2, r3, #1
 8005964:	2030      	movs	r0, #48	@ 0x30
 8005966:	f881 0043 	strb.w	r0, [r1, #67]	@ 0x43
 800596a:	4422      	add	r2, r4
 800596c:	f894 1045 	ldrb.w	r1, [r4, #69]	@ 0x45
 8005970:	f882 1043 	strb.w	r1, [r2, #67]	@ 0x43
 8005974:	3302      	adds	r3, #2
 8005976:	e7c7      	b.n	8005908 <_printf_common+0x58>
 8005978:	2301      	movs	r3, #1
 800597a:	4622      	mov	r2, r4
 800597c:	4641      	mov	r1, r8
 800597e:	4638      	mov	r0, r7
 8005980:	47c8      	blx	r9
 8005982:	3001      	adds	r0, #1
 8005984:	d0e6      	beq.n	8005954 <_printf_common+0xa4>
 8005986:	3601      	adds	r6, #1
 8005988:	e7d9      	b.n	800593e <_printf_common+0x8e>
	...

0800598c <_printf_i>:
 800598c:	e92d 47ff 	stmdb	sp!, {r0, r1, r2, r3, r4, r5, r6, r7, r8, r9, sl, lr}
 8005990:	7e0f      	ldrb	r7, [r1, #24]
 8005992:	9e0c      	ldr	r6, [sp, #48]	@ 0x30
 8005994:	2f78      	cmp	r7, #120	@ 0x78
 8005996:	4691      	mov	r9, r2
 8005998:	4680      	mov	r8, r0
 800599a:	460c      	mov	r4, r1
 800599c:	469a      	mov	sl, r3
 800599e:	f101 0243 	add.w	r2, r1, #67	@ 0x43
 80059a2:	d807      	bhi.n	80059b4 <_printf_i+0x28>
 80059a4:	2f62      	cmp	r7, #98	@ 0x62
 80059a6:	d80a      	bhi.n	80059be <_printf_i+0x32>
 80059a8:	2f00      	cmp	r7, #0
 80059aa:	f000 80d1 	beq.w	8005b50 <_printf_i+0x1c4>
 80059ae:	2f58      	cmp	r7, #88	@ 0x58
 80059b0:	f000 80b8 	beq.w	8005b24 <_printf_i+0x198>
 80059b4:	f104 0642 	add.w	r6, r4, #66	@ 0x42
 80059b8:	f884 7042 	strb.w	r7, [r4, #66]	@ 0x42
 80059bc:	e03a      	b.n	8005a34 <_printf_i+0xa8>
 80059be:	f1a7 0363 	sub.w	r3, r7, #99	@ 0x63
 80059c2:	2b15      	cmp	r3, #21
 80059c4:	d8f6      	bhi.n	80059b4 <_printf_i+0x28>
 80059c6:	a101      	add	r1, pc, #4	@ (adr r1, 80059cc <_printf_i+0x40>)
 80059c8:	f851 f023 	ldr.w	pc, [r1, r3, lsl #2]
 80059cc:	08005a25 	.word	0x08005a25
 80059d0:	08005a39 	.word	0x08005a39
 80059d4:	080059b5 	.word	0x080059b5
 80059d8:	080059b5 	.word	0x080059b5
 80059dc:	080059b5 	.word	0x080059b5
 80059e0:	080059b5 	.word	0x080059b5
 80059e4:	08005a39 	.word	0x08005a39
 80059e8:	080059b5 	.word	0x080059b5
 80059ec:	080059b5 	.word	0x080059b5
 80059f0:	080059b5 	.word	0x080059b5
 80059f4:	080059b5 	.word	0x080059b5
 80059f8:	08005b37 	.word	0x08005b37
 80059fc:	08005a63 	.word	0x08005a63
 8005a00:	08005af1 	.word	0x08005af1
 8005a04:	080059b5 	.word	0x080059b5
 8005a08:	080059b5 	.word	0x080059b5
 8005a0c:	08005b59 	.word	0x08005b59
 8005a10:	080059b5 	.word	0x080059b5
 8005a14:	08005a63 	.word	0x08005a63
 8005a18:	080059b5 	.word	0x080059b5
 8005a1c:	080059b5 	.word	0x080059b5
 8005a20:	08005af9 	.word	0x08005af9
 8005a24:	6833      	ldr	r3, [r6, #0]
 8005a26:	1d1a      	adds	r2, r3, #4
 8005a28:	681b      	ldr	r3, [r3, #0]
 8005a2a:	6032      	str	r2, [r6, #0]
 8005a2c:	f104 0642 	add.w	r6, r4, #66	@ 0x42
 8005a30:	f884 3042 	strb.w	r3, [r4, #66]	@ 0x42
 8005a34:	2301      	movs	r3, #1
 8005a36:	e09c      	b.n	8005b72 <_printf_i+0x1e6>
 8005a38:	6833      	ldr	r3, [r6, #0]
 8005a3a:	6820      	ldr	r0, [r4, #0]
 8005a3c:	1d19      	adds	r1, r3, #4
 8005a3e:	6031      	str	r1, [r6, #0]
 8005a40:	0606      	lsls	r6, r0, #24
 8005a42:	d501      	bpl.n	8005a48 <_printf_i+0xbc>
 8005a44:	681d      	ldr	r5, [r3, #0]
 8005a46:	e003      	b.n	8005a50 <_printf_i+0xc4>
 8005a48:	0645      	lsls	r5, r0, #25
 8005a4a:	d5fb      	bpl.n	8005a44 <_printf_i+0xb8>
 8005a4c:	f9b3 5000 	ldrsh.w	r5, [r3]
 8005a50:	2d00      	cmp	r5, #0
 8005a52:	da03      	bge.n	8005a5c <_printf_i+0xd0>
 8005a54:	232d      	movs	r3, #45	@ 0x2d
 8005a56:	426d      	negs	r5, r5
 8005a58:	f884 3043 	strb.w	r3, [r4, #67]	@ 0x43
 8005a5c:	4858      	ldr	r0, [pc, #352]	@ (8005bc0 <_printf_i+0x234>)
 8005a5e:	230a      	movs	r3, #10
 8005a60:	e011      	b.n	8005a86 <_printf_i+0xfa>
 8005a62:	6821      	ldr	r1, [r4, #0]
 8005a64:	6833      	ldr	r3, [r6, #0]
 8005a66:	0608      	lsls	r0, r1, #24
 8005a68:	f853 5b04 	ldr.w	r5, [r3], #4
 8005a6c:	d402      	bmi.n	8005a74 <_printf_i+0xe8>
 8005a6e:	0649      	lsls	r1, r1, #25
 8005a70:	bf48      	it	mi
 8005a72:	b2ad      	uxthmi	r5, r5
 8005a74:	2f6f      	cmp	r7, #111	@ 0x6f
 8005a76:	4852      	ldr	r0, [pc, #328]	@ (8005bc0 <_printf_i+0x234>)
 8005a78:	6033      	str	r3, [r6, #0]
 8005a7a:	bf14      	ite	ne
 8005a7c:	230a      	movne	r3, #10
 8005a7e:	2308      	moveq	r3, #8
 8005a80:	2100      	movs	r1, #0
 8005a82:	f884 1043 	strb.w	r1, [r4, #67]	@ 0x43
 8005a86:	6866      	ldr	r6, [r4, #4]
 8005a88:	60a6      	str	r6, [r4, #8]
 8005a8a:	2e00      	cmp	r6, #0
 8005a8c:	db05      	blt.n	8005a9a <_printf_i+0x10e>
 8005a8e:	6821      	ldr	r1, [r4, #0]
 8005a90:	432e      	orrs	r6, r5
 8005a92:	f021 0104 	bic.w	r1, r1, #4
 8005a96:	6021      	str	r1, [r4, #0]
 8005a98:	d04b      	beq.n	8005b32 <_printf_i+0x1a6>
 8005a9a:	4616      	mov	r6, r2
 8005a9c:	fbb5 f1f3 	udiv	r1, r5, r3
 8005aa0:	fb03 5711 	mls	r7, r3, r1, r5
 8005aa4:	5dc7      	ldrb	r7, [r0, r7]
 8005aa6:	f806 7d01 	strb.w	r7, [r6, #-1]!
 8005aaa:	462f      	mov	r7, r5
 8005aac:	42bb      	cmp	r3, r7
 8005aae:	460d      	mov	r5, r1
 8005ab0:	d9f4      	bls.n	8005a9c <_printf_i+0x110>
 8005ab2:	2b08      	cmp	r3, #8
 8005ab4:	d10b      	bne.n	8005ace <_printf_i+0x142>
 8005ab6:	6823      	ldr	r3, [r4, #0]
 8005ab8:	07df      	lsls	r7, r3, #31
 8005aba:	d508      	bpl.n	8005ace <_printf_i+0x142>
 8005abc:	6923      	ldr	r3, [r4, #16]
 8005abe:	6861      	ldr	r1, [r4, #4]
 8005ac0:	4299      	cmp	r1, r3
 8005ac2:	bfde      	ittt	le
 8005ac4:	2330      	movle	r3, #48	@ 0x30
 8005ac6:	f806 3c01 	strble.w	r3, [r6, #-1]
 8005aca:	f106 36ff 	addle.w	r6, r6, #4294967295
 8005ace:	1b92      	subs	r2, r2, r6
 8005ad0:	6122      	str	r2, [r4, #16]
 8005ad2:	f8cd a000 	str.w	sl, [sp]
 8005ad6:	464b      	mov	r3, r9
 8005ad8:	aa03      	add	r2, sp, #12
 8005ada:	4621      	mov	r1, r4
 8005adc:	4640      	mov	r0, r8
 8005ade:	f7ff fee7 	bl	80058b0 <_printf_common>
 8005ae2:	3001      	adds	r0, #1
 8005ae4:	d14a      	bne.n	8005b7c <_printf_i+0x1f0>
 8005ae6:	f04f 30ff 	mov.w	r0, #4294967295
 8005aea:	b004      	add	sp, #16
 8005aec:	e8bd 87f0 	ldmia.w	sp!, {r4, r5, r6, r7, r8, r9, sl, pc}
 8005af0:	6823      	ldr	r3, [r4, #0]
 8005af2:	f043 0320 	orr.w	r3, r3, #32
 8005af6:	6023      	str	r3, [r4, #0]
 8005af8:	4832      	ldr	r0, [pc, #200]	@ (8005bc4 <_printf_i+0x238>)
 8005afa:	2778      	movs	r7, #120	@ 0x78
 8005afc:	f884 7045 	strb.w	r7, [r4, #69]	@ 0x45
 8005b00:	6823      	ldr	r3, [r4, #0]
 8005b02:	6831      	ldr	r1, [r6, #0]
 8005b04:	061f      	lsls	r7, r3, #24
 8005b06:	f851 5b04 	ldr.w	r5, [r1], #4
 8005b0a:	d402      	bmi.n	8005b12 <_printf_i+0x186>
 8005b0c:	065f      	lsls	r7, r3, #25
 8005b0e:	bf48      	it	mi
 8005b10:	b2ad      	uxthmi	r5, r5
 8005b12:	6031      	str	r1, [r6, #0]
 8005b14:	07d9      	lsls	r1, r3, #31
 8005b16:	bf44      	itt	mi
 8005b18:	f043 0320 	orrmi.w	r3, r3, #32
 8005b1c:	6023      	strmi	r3, [r4, #0]
 8005b1e:	b11d      	cbz	r5, 8005b28 <_printf_i+0x19c>
 8005b20:	2310      	movs	r3, #16
 8005b22:	e7ad      	b.n	8005a80 <_printf_i+0xf4>
 8005b24:	4826      	ldr	r0, [pc, #152]	@ (8005bc0 <_printf_i+0x234>)
 8005b26:	e7e9      	b.n	8005afc <_printf_i+0x170>
 8005b28:	6823      	ldr	r3, [r4, #0]
 8005b2a:	f023 0320 	bic.w	r3, r3, #32
 8005b2e:	6023      	str	r3, [r4, #0]
 8005b30:	e7f6      	b.n	8005b20 <_printf_i+0x194>
 8005b32:	4616      	mov	r6, r2
 8005b34:	e7bd      	b.n	8005ab2 <_printf_i+0x126>
 8005b36:	6833      	ldr	r3, [r6, #0]
 8005b38:	6825      	ldr	r5, [r4, #0]
 8005b3a:	6961      	ldr	r1, [r4, #20]
 8005b3c:	1d18      	adds	r0, r3, #4
 8005b3e:	6030      	str	r0, [r6, #0]
 8005b40:	062e      	lsls	r6, r5, #24
 8005b42:	681b      	ldr	r3, [r3, #0]
 8005b44:	d501      	bpl.n	8005b4a <_printf_i+0x1be>
 8005b46:	6019      	str	r1, [r3, #0]
 8005b48:	e002      	b.n	8005b50 <_printf_i+0x1c4>
 8005b4a:	0668      	lsls	r0, r5, #25
 8005b4c:	d5fb      	bpl.n	8005b46 <_printf_i+0x1ba>
 8005b4e:	8019      	strh	r1, [r3, #0]
 8005b50:	2300      	movs	r3, #0
 8005b52:	6123      	str	r3, [r4, #16]
 8005b54:	4616      	mov	r6, r2
 8005b56:	e7bc      	b.n	8005ad2 <_printf_i+0x146>
 8005b58:	6833      	ldr	r3, [r6, #0]
 8005b5a:	1d1a      	adds	r2, r3, #4
 8005b5c:	6032      	str	r2, [r6, #0]
 8005b5e:	681e      	ldr	r6, [r3, #0]
 8005b60:	6862      	ldr	r2, [r4, #4]
 8005b62:	2100      	movs	r1, #0
 8005b64:	4630      	mov	r0, r6
 8005b66:	f7fa fb3b 	bl	80001e0 <memchr>
 8005b6a:	b108      	cbz	r0, 8005b70 <_printf_i+0x1e4>
 8005b6c:	1b80      	subs	r0, r0, r6
 8005b6e:	6060      	str	r0, [r4, #4]
 8005b70:	6863      	ldr	r3, [r4, #4]
 8005b72:	6123      	str	r3, [r4, #16]
 8005b74:	2300      	movs	r3, #0
 8005b76:	f884 3043 	strb.w	r3, [r4, #67]	@ 0x43
 8005b7a:	e7aa      	b.n	8005ad2 <_printf_i+0x146>
 8005b7c:	6923      	ldr	r3, [r4, #16]
 8005b7e:	4632      	mov	r2, r6
 8005b80:	4649      	mov	r1, r9
 8005b82:	4640      	mov	r0, r8
 8005b84:	47d0      	blx	sl
 8005b86:	3001      	adds	r0, #1
 8005b88:	d0ad      	beq.n	8005ae6 <_printf_i+0x15a>
 8005b8a:	6823      	ldr	r3, [r4, #0]
 8005b8c:	079b      	lsls	r3, r3, #30
 8005b8e:	d413      	bmi.n	8005bb8 <_printf_i+0x22c>
 8005b90:	68e0      	ldr	r0, [r4, #12]
 8005b92:	9b03      	ldr	r3, [sp, #12]
 8005b94:	4298      	cmp	r0, r3
 8005b96:	bfb8      	it	lt
 8005b98:	4618      	movlt	r0, r3
 8005b9a:	e7a6      	b.n	8005aea <_printf_i+0x15e>
 8005b9c:	2301      	movs	r3, #1
 8005b9e:	4632      	mov	r2, r6
 8005ba0:	4649      	mov	r1, r9
 8005ba2:	4640      	mov	r0, r8
 8005ba4:	47d0      	blx	sl
 8005ba6:	3001      	adds	r0, #1
 8005ba8:	d09d      	beq.n	8005ae6 <_printf_i+0x15a>
 8005baa:	3501      	adds	r5, #1
 8005bac:	68e3      	ldr	r3, [r4, #12]
 8005bae:	9903      	ldr	r1, [sp, #12]
 8005bb0:	1a5b      	subs	r3, r3, r1
 8005bb2:	42ab      	cmp	r3, r5
 8005bb4:	dcf2      	bgt.n	8005b9c <_printf_i+0x210>
 8005bb6:	e7eb      	b.n	8005b90 <_printf_i+0x204>
 8005bb8:	2500      	movs	r5, #0
 8005bba:	f104 0619 	add.w	r6, r4, #25
 8005bbe:	e7f5      	b.n	8005bac <_printf_i+0x220>
 8005bc0:	080060d1 	.word	0x080060d1
 8005bc4:	080060e2 	.word	0x080060e2

08005bc8 <_sbrk_r>:
 8005bc8:	b538      	push	{r3, r4, r5, lr}
 8005bca:	4d06      	ldr	r5, [pc, #24]	@ (8005be4 <_sbrk_r+0x1c>)
 8005bcc:	2300      	movs	r3, #0
 8005bce:	4604      	mov	r4, r0
 8005bd0:	4608      	mov	r0, r1
 8005bd2:	602b      	str	r3, [r5, #0]
 8005bd4:	f7fd fe28 	bl	8003828 <_sbrk>
 8005bd8:	1c43      	adds	r3, r0, #1
 8005bda:	d102      	bne.n	8005be2 <_sbrk_r+0x1a>
 8005bdc:	682b      	ldr	r3, [r5, #0]
 8005bde:	b103      	cbz	r3, 8005be2 <_sbrk_r+0x1a>
 8005be0:	6023      	str	r3, [r4, #0]
 8005be2:	bd38      	pop	{r3, r4, r5, pc}
 8005be4:	2000054c 	.word	0x2000054c

08005be8 <_realloc_r>:
 8005be8:	e92d 41f0 	stmdb	sp!, {r4, r5, r6, r7, r8, lr}
 8005bec:	4607      	mov	r7, r0
 8005bee:	4614      	mov	r4, r2
 8005bf0:	460d      	mov	r5, r1
 8005bf2:	b921      	cbnz	r1, 8005bfe <_realloc_r+0x16>
 8005bf4:	e8bd 41f0 	ldmia.w	sp!, {r4, r5, r6, r7, r8, lr}
 8005bf8:	4611      	mov	r1, r2
 8005bfa:	f7ff bc75 	b.w	80054e8 <_malloc_r>
 8005bfe:	b92a      	cbnz	r2, 8005c0c <_realloc_r+0x24>
 8005c00:	f7ff fc06 	bl	8005410 <_free_r>
 8005c04:	4625      	mov	r5, r4
 8005c06:	4628      	mov	r0, r5
 8005c08:	e8bd 81f0 	ldmia.w	sp!, {r4, r5, r6, r7, r8, pc}
 8005c0c:	f000 f81a 	bl	8005c44 <_malloc_usable_size_r>
 8005c10:	4284      	cmp	r4, r0
 8005c12:	4606      	mov	r6, r0
 8005c14:	d802      	bhi.n	8005c1c <_realloc_r+0x34>
 8005c16:	ebb4 0f50 	cmp.w	r4, r0, lsr #1
 8005c1a:	d8f4      	bhi.n	8005c06 <_realloc_r+0x1e>
 8005c1c:	4621      	mov	r1, r4
 8005c1e:	4638      	mov	r0, r7
 8005c20:	f7ff fc62 	bl	80054e8 <_malloc_r>
 8005c24:	4680      	mov	r8, r0
 8005c26:	b908      	cbnz	r0, 8005c2c <_realloc_r+0x44>
 8005c28:	4645      	mov	r5, r8
 8005c2a:	e7ec      	b.n	8005c06 <_realloc_r+0x1e>
 8005c2c:	42b4      	cmp	r4, r6
 8005c2e:	4622      	mov	r2, r4
 8005c30:	4629      	mov	r1, r5
 8005c32:	bf28      	it	cs
 8005c34:	4632      	movcs	r2, r6
 8005c36:	f7ff fbdd 	bl	80053f4 <memcpy>
 8005c3a:	4629      	mov	r1, r5
 8005c3c:	4638      	mov	r0, r7
 8005c3e:	f7ff fbe7 	bl	8005410 <_free_r>
 8005c42:	e7f1      	b.n	8005c28 <_realloc_r+0x40>

08005c44 <_malloc_usable_size_r>:
 8005c44:	f851 3c04 	ldr.w	r3, [r1, #-4]
 8005c48:	1f18      	subs	r0, r3, #4
 8005c4a:	2b00      	cmp	r3, #0
 8005c4c:	bfbc      	itt	lt
 8005c4e:	580b      	ldrlt	r3, [r1, r0]
 8005c50:	18c0      	addlt	r0, r0, r3
 8005c52:	4770      	bx	lr

08005c54 <_init>:
 8005c54:	b5f8      	push	{r3, r4, r5, r6, r7, lr}
 8005c56:	bf00      	nop
 8005c58:	bcf8      	pop	{r3, r4, r5, r6, r7}
 8005c5a:	bc08      	pop	{r3}
 8005c5c:	469e      	mov	lr, r3
 8005c5e:	4770      	bx	lr

08005c60 <_fini>:
 8005c60:	b5f8      	push	{r3, r4, r5, r6, r7, lr}
 8005c62:	bf00      	nop
 8005c64:	bcf8      	pop	{r3, r4, r5, r6, r7}
 8005c66:	bc08      	pop	{r3}
 8005c68:	469e      	mov	lr, r3
 8005c6a:	4770      	bx	lr
